 TexasPokerHall

 Timestamp is 55557f77 (Fri May 15 13:09:11 2015)

 Preferred load address is 00400000

 Start         Length     Name                   Class
 0001:00000000 000b5425H .textbss                DATA
 0002:00000000 001664c0H .text                   CODE
 0002:001664c0 000105e1H .text$x                 CODE
 0002:00176ab0 00003a58H .text$yc                CODE
 0002:0017a510 0000113eH .text$yd                CODE
 0003:00000000 00000104H .CRT$XCA                DATA
 0003:00000104 00000104H .CRT$XCAA               DATA
 0003:00000208 0000044eH .CRT$XCU                DATA
 0003:00000658 00000104H .CRT$XCZ                DATA
 0003:0000075c 00000104H .CRT$XIA                DATA
 0003:00000860 00000104H .CRT$XIAA               DATA
 0003:00000964 00000109H .CRT$XIC                DATA
 0003:00000a70 00000104H .CRT$XIY                DATA
 0003:00000b74 00000104H .CRT$XIZ                DATA
 0003:00000c80 00013fb5H .rdata                  DATA
 0003:00014c38 00000186H .rdata$debug            DATA
 0003:00014dc0 00000104H .rtc$IAA                DATA
 0003:00014ec4 00000280H .rtc$IMZ                DATA
 0003:00015144 00000104H .rtc$IZZ                DATA
 0003:00015248 00000104H .rtc$TAA                DATA
 0003:0001534c 00000280H .rtc$TMZ                DATA
 0003:000155cc 00000104H .rtc$TZZ                DATA
 0003:000156d0 0000cd33H .xdata$x                DATA
 0003:00022403 00000000H .edata                  DATA
 0004:00000000 000010f2H .data                   DATA
 0004:000010f8 0000f4acH .bss                    DATA
 0005:00000000 00000078H .idata$2                DATA
 0005:00000078 00000014H .idata$3                DATA
 0005:0000008c 00000674H .idata$4                DATA
 0005:00000700 00000674H .idata$5                DATA
 0005:00000d74 00001a8eH .idata$6                DATA

  Address         Publics by Value              Rva+Base       Lib:Object

 0000:00000000       __except_list              00000000     <absolute>
 0000:00000000       ___safe_se_handler_count   00000000     <absolute>
 0000:00000000       ___safe_se_handler_table   00000000     <absolute>
 0000:00009876       __ldused                   00009876     <absolute>
 0000:00009876       __fltused                  00009876     <absolute>
 0000:00000000       ___ImageBase               00400000     <linker-defined>
 0001:00000000       __enc$textbss$begin        00401000     <linker-defined>
 0001:000b5425       __enc$textbss$end          004b6425     <linker-defined>
 0002:0000d880       ??$?5VVEString@VENet@@@@YAAAVBitStream@VENet@@AAV01@AAVVEString@1@@Z 004c4880 f i General.obj
 0002:0000d8f0       ??$Read@VVEString@VENet@@@BitStream@VENet@@QAE_NAAVVEString@1@@Z 004c48f0 f i General.obj
 0002:0000d950       ??$Write@G@BitStream@VENet@@QAEXABG@Z 004c4950 f i General.obj
 0002:0000da40       ??0VENetGUID@VENet@@QAE@_K@Z 004c4a40 f i General.obj
 0002:0000daa0       ??5@YAAAVBitStream@VENet@@AAV01@AAVVeStringA@@@Z 004c4aa0 f   General.obj
 0002:0000dbc0       ??6@YAAAVBitStream@VENet@@AAV01@ABVVeStringA@@@Z 004c4bc0 f   General.obj
 0002:0000dc30       ??6@YAAAVBitStream@VENet@@AAV01@PBD@Z 004c4c30 f   General.obj
 0002:0000dcf0       ??BVEString@VENet@@QBEPBDXZ 004c4cf0 f i General.obj
 0002:0000dd30       ?DoEndianSwap@BitStream@VENet@@SA_NXZ 004c4d30 f i General.obj
 0002:0000dda0       ?IsNetworkOrder@BitStream@VENet@@SA_NXZ 004c4da0 f i General.obj
 0002:0000de60       ?IsStreamError@@YA_NXZ     004c4e60 f   General.obj
 0002:0000dea0       ?StreamError@@YAXXZ        004c4ea0 f   General.obj
 0002:0000dee0       ?StreamErrorClear@@YAXXZ   004c4ee0 f   General.obj
 0002:0000df20       ??$OP_DELETE@VBitStream@VENet@@@VENet@@YAXPAVBitStream@0@PBDI@Z 004c4f20 f i BitStream.obj
 0002:0000dfb0       ??$OP_NEW@VBitStream@VENet@@@VENet@@YAPAVBitStream@0@PBDI@Z 004c4fb0 f i BitStream.obj
 0002:0000e0a0       ??$Read@G@BitStream@VENet@@QAE_NAAG@Z 004c50a0 f i BitStream.obj
 0002:0000e1b0       ??$Read@_N@BitStream@VENet@@QAE_NAA_N@Z 004c51b0 f i BitStream.obj
 0002:0000e260       ??$ReadCompressed@I@BitStream@VENet@@QAE_NAAI@Z 004c5260 f i BitStream.obj
 0002:0000e370       ??$Write@_N@BitStream@VENet@@QAEXAB_N@Z 004c5370 f i BitStream.obj
 0002:0000e3e0       ??$WriteCompressed@I@BitStream@VENet@@QAEXABI@Z 004c53e0 f i BitStream.obj
 0002:0000e4d0       ??0BitStream@VENet@@QAE@I@Z 004c54d0 f   BitStream.obj
 0002:0000e5f0       ??0BitStream@VENet@@QAE@PAEI_N@Z 004c55f0 f   BitStream.obj
 0002:0000e760       ??0BitStream@VENet@@QAE@XZ 004c5760 f   BitStream.obj
 0002:0000e7e0       ??1BitStream@VENet@@QAE@XZ 004c57e0 f   BitStream.obj
 0002:0000e880       ??_GBitStream@VENet@@QAEPAXI@Z 004c5880 f i BitStream.obj
 0002:0000e8f0       ?AddBitsAndReallocate@BitStream@VENet@@QAEXI@Z 004c58f0 f   BitStream.obj
 0002:0000eb60       ?AlignReadToByteBoundary@BitStream@VENet@@QAEXXZ 004c5b60 f i BitStream.obj
 0002:0000ebc0       ?AlignWriteToByteBoundary@BitStream@VENet@@QAEXXZ 004c5bc0 f i BitStream.obj
 0002:0000ec20       ?AssertCopyData@BitStream@VENet@@QAEXXZ 004c5c20 f   BitStream.obj
 0002:0000ed50       ?AssertStreamEmpty@BitStream@VENet@@QAEXXZ 004c5d50 f   BitStream.obj
 0002:0000ede0       ?C_String@VEString@VENet@@QBEPBDXZ 004c5de0 f i BitStream.obj
 0002:0000ee20       ?CopyData@BitStream@VENet@@QBEIPAPAE@Z 004c5e20 f   BitStream.obj
 0002:0000ef10       ?DestroyInstance@BitStream@VENet@@SAXPAV12@@Z 004c5f10 f   BitStream.obj
 0002:0000ef70       ?EndianSwapBytes@BitStream@VENet@@QAEXHH@Z 004c5f70 f   BitStream.obj
 0002:0000eff0       ?GetData@BitStream@VENet@@QBEPAEXZ 004c5ff0 f i BitStream.obj
 0002:0000f030       ?GetInstance@BitStream@VENet@@SAPAV12@XZ 004c6030 f   BitStream.obj
 0002:0000f090       ?GetNumberOfBitsAllocated@BitStream@VENet@@QBEIXZ 004c6090 f   BitStream.obj
 0002:0000f0d0       ?GetNumberOfBitsUsed@BitStream@VENet@@QBEIXZ 004c60d0 f i BitStream.obj
 0002:0000f120       ?GetNumberOfBytesUsed@BitStream@VENet@@QBEIXZ 004c6120 f i BitStream.obj
 0002:0000f170       ?GetNumberOfUnreadBits@BitStream@VENet@@QBEIXZ 004c6170 f i BitStream.obj
 0002:0000f1c0       ?GetReadOffset@BitStream@VENet@@QBEIXZ 004c61c0 f i BitStream.obj
 0002:0000f200       ?GetWriteOffset@BitStream@VENet@@QBEIXZ 004c6200 f i BitStream.obj
 0002:0000f240       ?IgnoreBits@BitStream@VENet@@QAEXI@Z 004c6240 f   BitStream.obj
 0002:0000f290       ?IgnoreBytes@BitStream@VENet@@QAEXI@Z 004c6290 f   BitStream.obj
 0002:0000f2f0       ?IsNetworkOrderInternal@BitStream@VENet@@SA_NXZ 004c62f0 f   BitStream.obj
 0002:0000f3a0       ?NumberOfLeadingZeroes@BitStream@VENet@@SAHC@Z 004c63a0 f   BitStream.obj
 0002:0000f3f0       ?NumberOfLeadingZeroes@BitStream@VENet@@SAHE@Z 004c63f0 f   BitStream.obj
 0002:0000f4b0       ?NumberOfLeadingZeroes@BitStream@VENet@@SAHF@Z 004c64b0 f   BitStream.obj
 0002:0000f500       ?NumberOfLeadingZeroes@BitStream@VENet@@SAHG@Z 004c6500 f   BitStream.obj
 0002:0000f5f0       ?NumberOfLeadingZeroes@BitStream@VENet@@SAHH@Z 004c65f0 f   BitStream.obj
 0002:0000f640       ?NumberOfLeadingZeroes@BitStream@VENet@@SAHI@Z 004c6640 f   BitStream.obj
 0002:0000f730       ?NumberOfLeadingZeroes@BitStream@VENet@@SAH_J@Z 004c6730 f   BitStream.obj
 0002:0000f790       ?NumberOfLeadingZeroes@BitStream@VENet@@SAH_K@Z 004c6790 f   BitStream.obj
 0002:0000f940       ?PadWithZeroToByteLength@BitStream@VENet@@QAEXI@Z 004c6940 f   BitStream.obj
 0002:0000fa10       ?PrintBits@BitStream@VENet@@QBEXPAD@Z 004c6a10 f   BitStream.obj
 0002:0000fbd0       ?PrintBits@BitStream@VENet@@QBEXXZ 004c6bd0 f   BitStream.obj
 0002:0000fca0       ?PrintHex@BitStream@VENet@@QBEXPAD@Z 004c6ca0 f   BitStream.obj
 0002:0000fd50       ?PrintHex@BitStream@VENet@@QBEXXZ 004c6d50 f   BitStream.obj
 0002:0000fe20       ?Read@BitStream@VENet@@QAEXAAV12@AAVVEString@2@@Z 004c6e20 f   BitStream.obj
 0002:0000fef0       ?Read@BitStream@VENet@@QAE_NAAV12@@Z 004c6ef0 f   BitStream.obj
 0002:0000ff50       ?Read@BitStream@VENet@@QAE_NAAV12@I@Z 004c6f50 f   BitStream.obj
 0002:0000ffd0       ?Read@BitStream@VENet@@QAE_NPAD@Z 004c6fd0 f   BitStream.obj
 0002:00010030       ?Read@BitStream@VENet@@QAE_NPADI@Z 004c7030 f   BitStream.obj
 0002:00010110       ?Read@BitStream@VENet@@QAE_NPAE@Z 004c7110 f   BitStream.obj
 0002:00010170       ?Read@BitStream@VENet@@QAE_NPAV12@@Z 004c7170 f   BitStream.obj
 0002:000101d0       ?Read@BitStream@VENet@@QAE_NPAV12@I@Z 004c71d0 f   BitStream.obj
 0002:00010250       ?ReadAlignedBytes@BitStream@VENet@@QAE_NPAEI@Z 004c7250 f   BitStream.obj
 0002:00010350       ?ReadAlignedBytesSafe@BitStream@VENet@@QAE_NPADAAHH@Z 004c7350 f   BitStream.obj
 0002:000103b0       ?ReadAlignedBytesSafe@BitStream@VENet@@QAE_NPADAAII@Z 004c73b0 f   BitStream.obj
 0002:00010450       ?ReadAlignedBytesSafeAlloc@BitStream@VENet@@QAE_NPAPADAAHI@Z 004c7450 f   BitStream.obj
 0002:000104b0       ?ReadAlignedBytesSafeAlloc@BitStream@VENet@@QAE_NPAPADAAII@Z 004c74b0 f   BitStream.obj
 0002:000105d0       ?ReadAlignedVar16@BitStream@VENet@@QAE_NPAD@Z 004c75d0 f   BitStream.obj
 0002:00010740       ?ReadAlignedVar32@BitStream@VENet@@QAE_NPAD@Z 004c7740 f   BitStream.obj
 0002:00010960       ?ReadAlignedVar8@BitStream@VENet@@QAE_NPAD@Z 004c7960 f   BitStream.obj
 0002:00010a40       ?ReadBit@BitStream@VENet@@QAE_NXZ 004c7a40 f   BitStream.obj
 0002:00010af0       ?ReadBits@BitStream@VENet@@QAE_NPAEI_N@Z 004c7af0 f   BitStream.obj
 0002:00010d40       ?ReadCompressed@BitStream@VENet@@AAE_NPAEI_N@Z 004c7d40 f   BitStream.obj
 0002:00010f40       ?ReadFloat16@BitStream@VENet@@QAE_NAAMMM@Z 004c7f40 f   BitStream.obj
 0002:000110a0       ?Reset@BitStream@VENet@@QAEXXZ 004c80a0 f   BitStream.obj
 0002:000110f0       ?ResetReadPointer@BitStream@VENet@@QAEXXZ 004c80f0 f   BitStream.obj
 0002:00011140       ?ResetWritePointer@BitStream@VENet@@QAEXXZ 004c8140 f   BitStream.obj
 0002:00011180       ?ReverseBytes@BitStream@VENet@@SAXPAE0I@Z 004c8180 f   BitStream.obj
 0002:000111f0       ?ReverseBytesInPlace@BitStream@VENet@@SAXPAEI@Z 004c81f0 f   BitStream.obj
 0002:00011280       ?SerializeFloat16@BitStream@VENet@@QAE_N_NAAMMM@Z 004c8280 f   BitStream.obj
 0002:00011340       ?SetData@BitStream@VENet@@QAEXPAE@Z 004c8340 f   BitStream.obj
 0002:00011390       ?SetNumberOfBitsAllocated@BitStream@VENet@@QAEXI@Z 004c8390 f   BitStream.obj
 0002:00011420       ?SetReadOffset@BitStream@VENet@@QAEXI@Z 004c8420 f i BitStream.obj
 0002:00011470       ?SetWriteOffset@BitStream@VENet@@QAEXI@Z 004c8470 f   BitStream.obj
 0002:000114c0       ?Write0@BitStream@VENet@@QAEXXZ 004c84c0 f   BitStream.obj
 0002:00011550       ?Write1@BitStream@VENet@@QAEXXZ 004c8550 f   BitStream.obj
 0002:00011620       ?Write@BitStream@VENet@@QAEXAAV12@@Z 004c8620 f   BitStream.obj
 0002:00011680       ?Write@BitStream@VENet@@QAEXAAV12@AAVVEString@2@@Z 004c8680 f   BitStream.obj
 0002:00011700       ?Write@BitStream@VENet@@QAEXAAV12@I@Z 004c8700 f   BitStream.obj
 0002:00011760       ?Write@BitStream@VENet@@QAEXPAV12@@Z 004c8760 f   BitStream.obj
 0002:000117d0       ?Write@BitStream@VENet@@QAEXPAV12@I@Z 004c87d0 f   BitStream.obj
 0002:00011a40       ?Write@BitStream@VENet@@QAEXPBDI@Z 004c8a40 f   BitStream.obj
 0002:00011b10       ?WriteAlignedBytes@BitStream@VENet@@QAEXPBEI@Z 004c8b10 f   BitStream.obj
 0002:00011b80       ?WriteAlignedBytesSafe@BitStream@VENet@@QAEXPBDII@Z 004c8b80 f   BitStream.obj
 0002:00011c50       ?WriteAlignedVar16@BitStream@VENet@@QAEXPBD@Z 004c8c50 f   BitStream.obj
 0002:00011da0       ?WriteAlignedVar32@BitStream@VENet@@QAEXPBD@Z 004c8da0 f   BitStream.obj
 0002:00011fa0       ?WriteAlignedVar8@BitStream@VENet@@QAEXPBD@Z 004c8fa0 f   BitStream.obj
 0002:00012070       ?WriteBits@BitStream@VENet@@QAEXPBEI_N@Z 004c9070 f   BitStream.obj
 0002:00012260       ?WriteCompressed@BitStream@VENet@@AAEXPBEI_N@Z 004c9260 f   BitStream.obj
 0002:00012450       ?WriteFloat16@BitStream@VENet@@QAEXMMM@Z 004c9450 f   BitStream.obj
 0002:00012650       ??0CCVENetSlidingWindow@VENet@@QAE@XZ 004c9650 f   CCVENetSlidingWindow.obj
 0002:000126d0       ??0uint24_t@VENet@@QAE@ABI@Z 004c96d0 f i CCVENetSlidingWindow.obj
 0002:00012730       ??0uint24_t@VENet@@QAE@ABU01@@Z 004c9730 f i CCVENetSlidingWindow.obj
 0002:00012780       ??0uint24_t@VENet@@QAE@XZ  004c9780 f i CCVENetSlidingWindow.obj
 0002:000127c0       ??1CCVENetSlidingWindow@VENet@@QAE@XZ 004c97c0 f   CCVENetSlidingWindow.obj
 0002:00012800       ??4uint24_t@VENet@@QAEAAU01@ABI@Z 004c9800 f i CCVENetSlidingWindow.obj
 0002:00012860       ??4uint24_t@VENet@@QAEAAU01@ABU01@@Z 004c9860 f i CCVENetSlidingWindow.obj
 0002:000128b0       ??8uint24_t@VENet@@QBE_NABU01@@Z 004c98b0 f i CCVENetSlidingWindow.obj
 0002:00012920       ??9uint24_t@VENet@@QBE_NABU01@@Z 004c9920 f i CCVENetSlidingWindow.obj
 0002:00012990       ??Buint24_t@VENet@@QBEIXZ  004c9990 f i CCVENetSlidingWindow.obj
 0002:000129d0       ??Euint24_t@VENet@@QAE?AU01@H@Z 004c99d0 f i CCVENetSlidingWindow.obj
 0002:00012aa0       ??Guint24_t@VENet@@QBE?BU01@ABU01@@Z 004c9aa0 f i CCVENetSlidingWindow.obj
 0002:00012b20       ??Huint24_t@VENet@@QBE?BU01@ABU01@@Z 004c9b20 f i CCVENetSlidingWindow.obj
 0002:00012ba0       ??Kuint24_t@VENet@@QBE?BU01@ABU01@@Z 004c9ba0 f i CCVENetSlidingWindow.obj
 0002:00012c20       ??Muint24_t@VENet@@QBE_NABU01@@Z 004c9c20 f i CCVENetSlidingWindow.obj
 0002:00012c90       ??Ouint24_t@VENet@@QBE_NABU01@@Z 004c9c90 f i CCVENetSlidingWindow.obj
 0002:00012d00       ?GetAndIncrementNextDatagramSequenceNumber@CCVENetSlidingWindow@VENet@@QAE?AUuint24_t@2@XZ 004c9d00 f   CCVENetSlidingWindow.obj
 0002:00012dc0       ?GetBytesPerSecondLimitByCongestionControl@CCVENetSlidingWindow@VENet@@QBE_KXZ 004c9dc0 f   CCVENetSlidingWindow.obj
 0002:00012e00       ?GetLocalReceiveRate@CCVENetSlidingWindow@VENet@@QBEN_K@Z 004c9e00 f   CCVENetSlidingWindow.obj
 0002:00012e40       ?GetMTU@CCVENetSlidingWindow@VENet@@QBEIXZ 004c9e40 f   CCVENetSlidingWindow.obj
 0002:00012e80       ?GetNextDatagramSequenceNumber@CCVENetSlidingWindow@VENet@@QAE?AUuint24_t@2@XZ 004c9e80 f   CCVENetSlidingWindow.obj
 0002:00012ee0       ?GetRTOForRetransmission@CCVENetSlidingWindow@VENet@@QBE_KE@Z 004c9ee0 f   CCVENetSlidingWindow.obj
 0002:00013080       ?GetRTT@CCVENetSlidingWindow@VENet@@QBENXZ 004ca080 f   CCVENetSlidingWindow.obj
 0002:000130e0       ?GetRetransmissionBandwidth@CCVENetSlidingWindow@VENet@@QAEH_K0I_N@Z 004ca0e0 f   CCVENetSlidingWindow.obj
 0002:00013120       ?GetSenderRTOForACK@CCVENetSlidingWindow@VENet@@IBE_KXZ 004ca120 f   CCVENetSlidingWindow.obj
 0002:00013310       ?GetTransmissionBandwidth@CCVENetSlidingWindow@VENet@@QAEH_K0I_N@Z 004ca310 f   CCVENetSlidingWindow.obj
 0002:000133e0       ?GreaterThan@CCVENetSlidingWindow@VENet@@SA_NUuint24_t@2@0@Z 004ca3e0 f   CCVENetSlidingWindow.obj
 0002:00013530       ?Init@CCVENetSlidingWindow@VENet@@QAEX_KI@Z 004ca530 f   CCVENetSlidingWindow.obj
 0002:000136a0       ?IsInSlowStart@CCVENetSlidingWindow@VENet@@IBE_NXZ 004ca6a0 f   CCVENetSlidingWindow.obj
 0002:00013730       ?LessThan@CCVENetSlidingWindow@VENet@@SA_NUuint24_t@2@0@Z 004ca730 f   CCVENetSlidingWindow.obj
 0002:00013870       ?OnAck@CCVENetSlidingWindow@VENet@@QAEX_K0_NNNN1Uuint24_t@2@@Z 004ca870 f   CCVENetSlidingWindow.obj
 0002:00013ce0       ?OnDuplicateAck@CCVENetSlidingWindow@VENet@@QAEX_KUuint24_t@2@@Z 004cace0 f   CCVENetSlidingWindow.obj
 0002:00013d20       ?OnGotPacket@CCVENetSlidingWindow@VENet@@QAE_NUuint24_t@2@_N_KIPAI@Z 004cad20 f   CCVENetSlidingWindow.obj
 0002:00013f00       ?OnGotPacketPair@CCVENetSlidingWindow@VENet@@QAEXUuint24_t@2@I_K@Z 004caf00 f   CCVENetSlidingWindow.obj
 0002:00013f40       ?OnNAK@CCVENetSlidingWindow@VENet@@QAEX_KUuint24_t@2@@Z 004caf40 f   CCVENetSlidingWindow.obj
 0002:00013fb0       ?OnResend@CCVENetSlidingWindow@VENet@@QAEX_K0@Z 004cafb0 f   CCVENetSlidingWindow.obj
 0002:00014150       ?OnSendAck@CCVENetSlidingWindow@VENet@@QAEX_KI@Z 004cb150 f   CCVENetSlidingWindow.obj
 0002:000141a0       ?OnSendAckGetBAndAS@CCVENetSlidingWindow@VENet@@QAEX_KPA_NPAN2@Z 004cb1a0 f   CCVENetSlidingWindow.obj
 0002:000141e0       ?OnSendBytes@CCVENetSlidingWindow@VENet@@QAEX_KI@Z 004cb1e0 f   CCVENetSlidingWindow.obj
 0002:00014220       ?OnSendNACK@CCVENetSlidingWindow@VENet@@QAEX_KI@Z 004cb220 f   CCVENetSlidingWindow.obj
 0002:00014260       ?SetMTU@CCVENetSlidingWindow@VENet@@QAEXI@Z 004cb260 f   CCVENetSlidingWindow.obj
 0002:000142b0       ?ShouldSendACKs@CCVENetSlidingWindow@VENet@@QAE_N_K0@Z 004cb2b0 f   CCVENetSlidingWindow.obj
 0002:00014440       ?Update@CCVENetSlidingWindow@VENet@@QAEX_K_N@Z 004cb440 f   CCVENetSlidingWindow.obj
 0002:00014480       ?abs@@YANN@Z               004cb480 f i CCVENetSlidingWindow.obj
 0002:000144e0       ?Add@CheckSum@@QAEXE@Z     004cb4e0 f   CheckSum.obj
 0002:00014570       ?Add@CheckSum@@QAEXG@Z     004cb570 f   CheckSum.obj
 0002:00014630       ?Add@CheckSum@@QAEXI@Z     004cb630 f   CheckSum.obj
 0002:000146f0       ?Add@CheckSum@@QAEXPAEI@Z  004cb6f0 f   CheckSum.obj
 0002:00014770       ??$OP_DELETE_ARRAY@URegisteredCommand@VENet@@@VENet@@YAXPAURegisteredCommand@0@PBDI@Z 004cb770 f i CommandParserInterface.obj
 0002:000147d0       ??$OP_NEW_ARRAY@URegisteredCommand@VENet@@@VENet@@YAPAURegisteredCommand@0@HPBDI@Z 004cb7d0 f i CommandParserInterface.obj
 0002:00014850       ??0?$List@URegisteredCommand@VENet@@@DataStructures@@QAE@XZ 004cb850 f i CommandParserInterface.obj
 0002:000148b0       ??0?$OrderedList@PBDURegisteredCommand@VENet@@$1?RegisteredCommandComp@2@YAHABQBDABU12@@Z@DataStructures@@QAE@XZ 004cb8b0 f i CommandParserInterface.obj
 0002:00014910       ??0CommandParserInterface@VENet@@QAE@XZ 004cb910 f   CommandParserInterface.obj
 0002:00014980       ??1?$List@URegisteredCommand@VENet@@@DataStructures@@QAE@XZ 004cb980 f i CommandParserInterface.obj
 0002:000149f0       ??1?$OrderedList@PBDURegisteredCommand@VENet@@$1?RegisteredCommandComp@2@YAHABQBDABU12@@Z@DataStructures@@QAE@XZ 004cb9f0 f i CommandParserInterface.obj
 0002:00014aa0       ??1CommandParserInterface@VENet@@UAE@XZ 004cbaa0 f   CommandParserInterface.obj
 0002:00014b00       ??A?$List@URegisteredCommand@VENet@@@DataStructures@@QBEAAURegisteredCommand@VENet@@I@Z 004cbb00 f i CommandParserInterface.obj
 0002:00014ba0       ??A?$OrderedList@PBDURegisteredCommand@VENet@@$1?RegisteredCommandComp@2@YAHABQBDABU12@@Z@DataStructures@@QBEAAURegisteredCommand@VENet@@I@Z 004cbba0 f i CommandParserInterface.obj
 0002:00014c00       ??_ECommandParserInterface@VENet@@UAEPAXI@Z 004cbc00 f i CommandParserInterface.obj
 0002:00014c00       ??_GCommandParserInterface@VENet@@UAEPAXI@Z 004cbc00 f i CommandParserInterface.obj
 0002:00014c70       ?Clear@?$List@URegisteredCommand@VENet@@@DataStructures@@QAEX_NPBDI@Z 004cbc70 f i CommandParserInterface.obj
 0002:00014d20       ?Clear@?$OrderedList@PBDURegisteredCommand@VENet@@$1?RegisteredCommandComp@2@YAHABQBDABU12@@Z@DataStructures@@QAEX_NPBDI@Z 004cbd20 f i CommandParserInterface.obj
 0002:00014d90       ?GetIndexFromKey@?$OrderedList@PBDURegisteredCommand@VENet@@$1?RegisteredCommandComp@2@YAHABQBDABU12@@Z@DataStructures@@QBEIABQBDPA_NP6AH0ABURegisteredCommand@VENet@@@Z@Z 004cbd90 f i CommandParserInterface.obj
 0002:00014ed0       ?GetRegisteredCommand@CommandParserInterface@VENet@@UAE_NPBDPAURegisteredCommand@2@@Z 004cbed0 f   CommandParserInterface.obj
 0002:00014fc0       ?Insert@?$List@URegisteredCommand@VENet@@@DataStructures@@QAEXABURegisteredCommand@VENet@@IPBDI@Z 004cbfc0 f i CommandParserInterface.obj
 0002:000151d0       ?Insert@?$List@URegisteredCommand@VENet@@@DataStructures@@QAEXABURegisteredCommand@VENet@@PBDI@Z 004cc1d0 f i CommandParserInterface.obj
 0002:00015340       ?Insert@?$OrderedList@PBDURegisteredCommand@VENet@@$1?RegisteredCommandComp@2@YAHABQBDABU12@@Z@DataStructures@@QAEIABQBDABURegisteredCommand@VENet@@_NPBDIP6AH01@Z@Z 004cc340 f i CommandParserInterface.obj
 0002:00015490       ?OnConnectionLost@CommandParserInterface@VENet@@UAEXABUSystemAddress@2@PAVTransportInterface@2@@Z 004cc490 f   CommandParserInterface.obj
 0002:000154d0       ?OnNewIncomingConnection@CommandParserInterface@VENet@@UAEXABUSystemAddress@2@PAVTransportInterface@2@@Z 004cc4d0 f   CommandParserInterface.obj
 0002:00015510       ?OnTransportChange@CommandParserInterface@VENet@@UAEXPAVTransportInterface@2@@Z 004cc510 f   CommandParserInterface.obj
 0002:00015550       ?ParseConsoleString@CommandParserInterface@VENet@@SAXPADDEPAIPAPADI@Z 004cc550 f   CommandParserInterface.obj
 0002:00015780       ?RegisterCommand@CommandParserInterface@VENet@@UAEXEPBD0@Z 004cc780 f   CommandParserInterface.obj
 0002:00015850       ?RegisteredCommandComp@VENet@@YAHABQBDABURegisteredCommand@1@@Z 004cc850 f   CommandParserInterface.obj
 0002:000158c0       ?ReturnResult@CommandParserInterface@VENet@@UAEXHPBDPAVTransportInterface@2@ABUSystemAddress@2@@Z 004cc8c0 f   CommandParserInterface.obj
 0002:00015970       ?ReturnResult@CommandParserInterface@VENet@@UAEXPADPBDPAVTransportInterface@2@ABUSystemAddress@2@@Z 004cc970 f   CommandParserInterface.obj
 0002:00015a20       ?ReturnResult@CommandParserInterface@VENet@@UAEXPBDPAVTransportInterface@2@ABUSystemAddress@2@@Z 004cca20 f   CommandParserInterface.obj
 0002:00015ac0       ?ReturnResult@CommandParserInterface@VENet@@UAEXUSystemAddress@2@PBDPAVTransportInterface@2@ABU32@@Z 004ccac0 f   CommandParserInterface.obj
 0002:00015c20       ?ReturnResult@CommandParserInterface@VENet@@UAEX_NPBDPAVTransportInterface@2@ABUSystemAddress@2@@Z 004ccc20 f   CommandParserInterface.obj
 0002:00015d30       ?SendCommandList@CommandParserInterface@VENet@@UAEXPAVTransportInterface@2@ABUSystemAddress@2@@Z 004ccd30 f   CommandParserInterface.obj
 0002:00015f50       ?Size@?$List@URegisteredCommand@VENet@@@DataStructures@@QBEIXZ 004ccf50 f i CommandParserInterface.obj
 0002:00015f90       ?Size@?$OrderedList@PBDURegisteredCommand@VENet@@$1?RegisteredCommandComp@2@YAHABQBDABU12@@Z@DataStructures@@QBEIXZ 004ccf90 f i CommandParserInterface.obj
 0002:00015fe0       ??$OP_DELETE@URemoteSystem@ConnectionGraph2@VENet@@@VENet@@YAXPAURemoteSystem@ConnectionGraph2@0@PBDI@Z 004ccfe0 f i ConnectionGraph2.obj
 0002:00016070       ??$OP_DELETE@VConnectionGraph2@VENet@@@VENet@@YAXPAVConnectionGraph2@0@PBDI@Z 004cd070 f i ConnectionGraph2.obj
 0002:00016110       ??$OP_DELETE_ARRAY@PAURemoteSystem@ConnectionGraph2@VENet@@@VENet@@YAXPAPAURemoteSystem@ConnectionGraph2@0@PBDI@Z 004cd110 f i ConnectionGraph2.obj
 0002:00016170       ??$OP_DELETE_ARRAY@USystemAddress@VENet@@@VENet@@YAXPAUSystemAddress@0@PBDI@Z 004cd170 f i ConnectionGraph2.obj
 0002:000161d0       ??$OP_DELETE_ARRAY@USystemAddressAndGuid@ConnectionGraph2@VENet@@@VENet@@YAXPAUSystemAddressAndGuid@ConnectionGraph2@0@PBDI@Z 004cd1d0 f i ConnectionGraph2.obj
 0002:00016230       ??$OP_DELETE_ARRAY@UVENetGUID@VENet@@@VENet@@YAXPAUVENetGUID@0@PBDI@Z 004cd230 f i ConnectionGraph2.obj
 0002:00016290       ??$OP_NEW@URemoteSystem@ConnectionGraph2@VENet@@@VENet@@YAPAURemoteSystem@ConnectionGraph2@0@PBDI@Z 004cd290 f i ConnectionGraph2.obj
 0002:00016370       ??$OP_NEW@VConnectionGraph2@VENet@@@VENet@@YAPAVConnectionGraph2@0@PBDI@Z 004cd370 f i ConnectionGraph2.obj
 0002:00016450       ??$OP_NEW_ARRAY@PAURemoteSystem@ConnectionGraph2@VENet@@@VENet@@YAPAPAURemoteSystem@ConnectionGraph2@0@HPBDI@Z 004cd450 f i ConnectionGraph2.obj
 0002:000164d0       ??$OP_NEW_ARRAY@USystemAddressAndGuid@ConnectionGraph2@VENet@@@VENet@@YAPAUSystemAddressAndGuid@ConnectionGraph2@0@HPBDI@Z 004cd4d0 f i ConnectionGraph2.obj
 0002:00016600       ??$OP_NEW_ARRAY@UVENetGUID@VENet@@@VENet@@YAPAUVENetGUID@0@HPBDI@Z 004cd600 f i ConnectionGraph2.obj
 0002:00016730       ??$Read@E@BitStream@VENet@@QAE_NAAE@Z 004cd730 f i ConnectionGraph2.obj
 0002:00016840       ??$Read@I@BitStream@VENet@@QAE_NAAI@Z 004cd840 f i ConnectionGraph2.obj
 0002:00016950       ??$Read@USystemAddress@VENet@@@BitStream@VENet@@QAE_NAAUSystemAddress@1@@Z 004cd950 f i ConnectionGraph2.obj
 0002:00016a90       ??$Read@UVENetGUID@VENet@@@BitStream@VENet@@QAE_NAAUVENetGUID@1@@Z 004cda90 f i ConnectionGraph2.obj
 0002:00016af0       ??$Read@_K@BitStream@VENet@@QAE_NAA_K@Z 004cdaf0 f i ConnectionGraph2.obj
 0002:00016c10       ??$Write@E@BitStream@VENet@@QAEXABE@Z 004cdc10 f i ConnectionGraph2.obj
 0002:00016d10       ??$Write@I@BitStream@VENet@@QAEXABI@Z 004cdd10 f i ConnectionGraph2.obj
 0002:00016e00       ??$Write@USystemAddress@VENet@@@BitStream@VENet@@QAEXABUSystemAddress@1@@Z 004cde00 f i ConnectionGraph2.obj
 0002:00016f70       ??$Write@UVENetGUID@VENet@@@BitStream@VENet@@QAEXABUVENetGUID@1@@Z 004cdf70 f i ConnectionGraph2.obj
 0002:00016fd0       ??$Write@_K@BitStream@VENet@@QAEXAB_K@Z 004cdfd0 f i ConnectionGraph2.obj
 0002:000170e0       ??$WriteCasted@GH@BitStream@VENet@@QAEXABH@Z 004ce0e0 f i ConnectionGraph2.obj
 0002:00017180       ??0?$List@PAURemoteSystem@ConnectionGraph2@VENet@@@DataStructures@@QAE@XZ 004ce180 f i ConnectionGraph2.obj
 0002:000171e0       ??0?$List@USystemAddress@VENet@@@DataStructures@@QAE@XZ 004ce1e0 f i ConnectionGraph2.obj
 0002:00017240       ??0?$List@USystemAddressAndGuid@ConnectionGraph2@VENet@@@DataStructures@@QAE@XZ 004ce240 f i ConnectionGraph2.obj
 0002:000172a0       ??0?$List@UVENetGUID@VENet@@@DataStructures@@QAE@XZ 004ce2a0 f i ConnectionGraph2.obj
 0002:00017300       ??0?$OrderedList@USystemAddressAndGuid@ConnectionGraph2@VENet@@U123@$1?SystemAddressAndGuidComp@23@SAHABU123@0@Z@DataStructures@@QAE@XZ 004ce300 f i ConnectionGraph2.obj
 0002:00017360       ??0?$OrderedList@UVENetGUID@VENet@@PAURemoteSystem@ConnectionGraph2@2@$1?RemoteSystemComp@42@SAHABU12@ABQAU342@@Z@DataStructures@@QAE@XZ 004ce360 f i ConnectionGraph2.obj
 0002:000173c0       ??0AddressOrGUID@VENet@@QAE@ABUSystemAddress@1@@Z 004ce3c0 f i ConnectionGraph2.obj
 0002:00017450       ??0AddressOrGUID@VENet@@QAE@ABUVENetGUID@1@@Z 004ce450 f i ConnectionGraph2.obj
 0002:000174e0       ??0ConnectionGraph2@VENet@@QAE@XZ 004ce4e0 f   ConnectionGraph2.obj
 0002:000175a0       ??0RemoteSystem@ConnectionGraph2@VENet@@QAE@XZ 004ce5a0 f i ConnectionGraph2.obj
 0002:00017650       ??0SystemAddressAndGuid@ConnectionGraph2@VENet@@QAE@XZ 004ce650 f i ConnectionGraph2.obj
 0002:000176b0       ??1?$List@PAURemoteSystem@ConnectionGraph2@VENet@@@DataStructures@@QAE@XZ 004ce6b0 f i ConnectionGraph2.obj
 0002:00017720       ??1?$List@USystemAddress@VENet@@@DataStructures@@QAE@XZ 004ce720 f i ConnectionGraph2.obj
 0002:00017790       ??1?$List@USystemAddressAndGuid@ConnectionGraph2@VENet@@@DataStructures@@QAE@XZ 004ce790 f i ConnectionGraph2.obj
 0002:00017800       ??1?$List@UVENetGUID@VENet@@@DataStructures@@QAE@XZ 004ce800 f i ConnectionGraph2.obj
 0002:00017870       ??1?$OrderedList@USystemAddressAndGuid@ConnectionGraph2@VENet@@U123@$1?SystemAddressAndGuidComp@23@SAHABU123@0@Z@DataStructures@@QAE@XZ 004ce870 f i ConnectionGraph2.obj
 0002:00017920       ??1?$OrderedList@UVENetGUID@VENet@@PAURemoteSystem@ConnectionGraph2@2@$1?RemoteSystemComp@42@SAHABU12@ABQAU342@@Z@DataStructures@@QAE@XZ 004ce920 f i ConnectionGraph2.obj
 0002:000179d0       ??1ConnectionGraph2@VENet@@UAE@XZ 004ce9d0 f   ConnectionGraph2.obj
 0002:00017a80       ??1RemoteSystem@ConnectionGraph2@VENet@@QAE@XZ 004cea80 f i ConnectionGraph2.obj
 0002:00017ad0       ??4SystemAddressAndGuid@ConnectionGraph2@VENet@@QAEAAU012@ABU012@@Z 004cead0 f i ConnectionGraph2.obj
 0002:00017b60       ??4VENetGUID@VENet@@QAEAAU01@ABU01@@Z 004ceb60 f i ConnectionGraph2.obj
 0002:00017bc0       ??A?$List@PAURemoteSystem@ConnectionGraph2@VENet@@@DataStructures@@QBEAAPAURemoteSystem@ConnectionGraph2@VENet@@I@Z 004cebc0 f i ConnectionGraph2.obj
 0002:00017c60       ??A?$List@USystemAddress@VENet@@@DataStructures@@QBEAAUSystemAddress@VENet@@I@Z 004cec60 f i ConnectionGraph2.obj
 0002:00017d00       ??A?$List@USystemAddressAndGuid@ConnectionGraph2@VENet@@@DataStructures@@QBEAAUSystemAddressAndGuid@ConnectionGraph2@VENet@@I@Z 004ced00 f i ConnectionGraph2.obj
 0002:00017da0       ??A?$List@UVENetGUID@VENet@@@DataStructures@@QBEAAUVENetGUID@VENet@@I@Z 004ceda0 f i ConnectionGraph2.obj
 0002:00017e40       ??A?$OrderedList@USystemAddressAndGuid@ConnectionGraph2@VENet@@U123@$1?SystemAddressAndGuidComp@23@SAHABU123@0@Z@DataStructures@@QBEAAUSystemAddressAndGuid@ConnectionGraph2@VENet@@I@Z 004cee40 f i ConnectionGraph2.obj
 0002:00017ea0       ??A?$OrderedList@UVENetGUID@VENet@@PAURemoteSystem@ConnectionGraph2@2@$1?RemoteSystemComp@42@SAHABU12@ABQAU342@@Z@DataStructures@@QBEAAPAURemoteSystem@ConnectionGraph2@VENet@@I@Z 004ceea0 f i ConnectionGraph2.obj
 0002:00017f00       ??_EConnectionGraph2@VENet@@UAEPAXI@Z 004cef00 f i ConnectionGraph2.obj
 0002:00017f00       ??_GConnectionGraph2@VENet@@UAEPAXI@Z 004cef00 f i ConnectionGraph2.obj
 0002:00017f70       ??_GRemoteSystem@ConnectionGraph2@VENet@@QAEPAXI@Z 004cef70 f i ConnectionGraph2.obj
 0002:00017fe0       ??_H@YGXPAXIHP6EPAX0@Z@Z   004cefe0 f i ConnectionGraph2.obj
 0002:00018050       ?AddParticipant@ConnectionGraph2@VENet@@QAEXABUSystemAddress@2@UVENetGUID@2@@Z 004cf050 f   ConnectionGraph2.obj
 0002:00018630       ?Clear@?$List@PAURemoteSystem@ConnectionGraph2@VENet@@@DataStructures@@QAEX_NPBDI@Z 004cf630 f i ConnectionGraph2.obj
 0002:000186e0       ?Clear@?$List@USystemAddressAndGuid@ConnectionGraph2@VENet@@@DataStructures@@QAEX_NPBDI@Z 004cf6e0 f i ConnectionGraph2.obj
 0002:00018790       ?Clear@?$List@UVENetGUID@VENet@@@DataStructures@@QAEX_NPBDI@Z 004cf790 f i ConnectionGraph2.obj
 0002:00018840       ?Clear@?$OrderedList@USystemAddressAndGuid@ConnectionGraph2@VENet@@U123@$1?SystemAddressAndGuidComp@23@SAHABU123@0@Z@DataStructures@@QAEX_NPBDI@Z 004cf840 f i ConnectionGraph2.obj
 0002:000188b0       ?Clear@?$OrderedList@UVENetGUID@VENet@@PAURemoteSystem@ConnectionGraph2@2@$1?RemoteSystemComp@42@SAHABU12@ABQAU342@@Z@DataStructures@@QAEX_NPBDI@Z 004cf8b0 f i ConnectionGraph2.obj
 0002:00018920       ?Clear@?$OrderedList@UVENetGUID@VENet@@U12@$1??$defaultOrderedListComparison@UVENetGUID@VENet@@U12@@DataStructures@@YAHABU12@0@Z@DataStructures@@QAEX_NPBDI@Z 004cf920 f i ConnectionGraph2.obj
 0002:00018990       ?ConnectionExists@ConnectionGraph2@VENet@@QAE_NUVENetGUID@2@0@Z 004cf990 f   ConnectionGraph2.obj
 0002:00018ae0       ?DestroyInstance@ConnectionGraph2@VENet@@SAXPAV12@@Z 004cfae0 f   ConnectionGraph2.obj
 0002:00018b40       ?GetAutoProcessNewConnections@ConnectionGraph2@VENet@@QBE_NXZ 004cfb40 f   ConnectionGraph2.obj
 0002:00018b80       ?GetConnectionListForRemoteSystem@ConnectionGraph2@VENet@@QAE_NUVENetGUID@2@PAUSystemAddress@2@PAU32@PAI@Z 004cfb80 f   ConnectionGraph2.obj
 0002:00018d80       ?GetIndexFromKey@?$OrderedList@USystemAddressAndGuid@ConnectionGraph2@VENet@@U123@$1?SystemAddressAndGuidComp@23@SAHABU123@0@Z@DataStructures@@QBEIABUSystemAddressAndGuid@ConnectionGraph2@VENet@@PA_NP6AH00@Z@Z 004cfd80 f i ConnectionGraph2.obj
 0002:00018ec0       ?GetIndexFromKey@?$OrderedList@UVENetGUID@VENet@@PAURemoteSystem@ConnectionGraph2@2@$1?RemoteSystemComp@42@SAHABU12@ABQAU342@@Z@DataStructures@@QBEIABUVENetGUID@VENet@@PA_NP6AH0ABQAURemoteSystem@ConnectionGraph2@4@@Z@Z 004cfec0 f i ConnectionGraph2.obj
 0002:00019000       ?GetInstance@ConnectionGraph2@VENet@@SAPAV12@XZ 004d0000 f   ConnectionGraph2.obj
 0002:00019060       ?GetLowestAveragePingSystem@ConnectionGraph2@VENet@@QBE?AUVENetGUID@2@XZ 004d0060 f   ConnectionGraph2.obj
 0002:00019350       ?GetParticipantList@ConnectionGraph2@VENet@@QAEXAAV?$OrderedList@UVENetGUID@VENet@@U12@$1??$defaultOrderedListComparison@UVENetGUID@VENet@@U12@@DataStructures@@YAHABU12@0@Z@DataStructures@@@Z 004d0350 f   ConnectionGraph2.obj
 0002:00019420       ?GetPingBetweenSystems@ConnectionGraph2@VENet@@QBEGUVENetGUID@2@0@Z 004d0420 f   ConnectionGraph2.obj
 0002:000196a0       ?HasData@?$OrderedList@USystemAddressAndGuid@ConnectionGraph2@VENet@@U123@$1?SystemAddressAndGuidComp@23@SAHABU123@0@Z@DataStructures@@QBE_NABUSystemAddressAndGuid@ConnectionGraph2@VENet@@P6AH00@Z@Z 004d06a0 f i ConnectionGraph2.obj
 0002:00019750       ?Insert@?$List@PAURemoteSystem@ConnectionGraph2@VENet@@@DataStructures@@QAEXABQAURemoteSystem@ConnectionGraph2@VENet@@IPBDI@Z 004d0750 f i ConnectionGraph2.obj
 0002:00019910       ?Insert@?$List@USystemAddressAndGuid@ConnectionGraph2@VENet@@@DataStructures@@QAEXABUSystemAddressAndGuid@ConnectionGraph2@VENet@@IPBDI@Z 004d0910 f i ConnectionGraph2.obj
 0002:00019af0       ?Insert@?$List@UVENetGUID@VENet@@@DataStructures@@QAEXABUVENetGUID@VENet@@PBDI@Z 004d0af0 f i ConnectionGraph2.obj
 0002:00019c40       ?InsertAtEnd@?$OrderedList@UVENetGUID@VENet@@U12@$1??$defaultOrderedListComparison@UVENetGUID@VENet@@U12@@DataStructures@@YAHABU12@0@Z@DataStructures@@QAEXABUVENetGUID@VENet@@PBDI@Z 004d0c40 f i ConnectionGraph2.obj
 0002:00019ca0       ?InsertAtIndex@?$OrderedList@USystemAddressAndGuid@ConnectionGraph2@VENet@@U123@$1?SystemAddressAndGuidComp@23@SAHABU123@0@Z@DataStructures@@QAEXABUSystemAddressAndGuid@ConnectionGraph2@VENet@@IPBDI@Z 004d0ca0 f i ConnectionGraph2.obj
 0002:00019d10       ?InsertAtIndex@?$OrderedList@UVENetGUID@VENet@@PAURemoteSystem@ConnectionGraph2@2@$1?RemoteSystemComp@42@SAHABU12@ABQAU342@@Z@DataStructures@@QAEXABQAURemoteSystem@ConnectionGraph2@VENet@@IPBDI@Z 004d0d10 f i ConnectionGraph2.obj
 0002:00019d80       ?OnAck@PluginInterface2@VENet@@UAEXIUSystemAddress@2@I@Z 004d0d80 f i ConnectionGraph2.obj
 0002:00019dc0       ?OnAttach@PluginInterface2@VENet@@UAEXXZ 004d0dc0 f i ConnectionGraph2.obj
 0002:00019e00       ?OnClosedConnection@ConnectionGraph2@VENet@@MAEXABUSystemAddress@2@UVENetGUID@2@W4PI2_LostConnectionReason@2@@Z 004d0e00 f   ConnectionGraph2.obj
 0002:0001a040       ?OnDetach@PluginInterface2@VENet@@UAEXXZ 004d1040 f i ConnectionGraph2.obj
 0002:0001a080       ?OnDirectSocketReceive@PluginInterface2@VENet@@UAEXPBDIUSystemAddress@2@@Z 004d1080 f i ConnectionGraph2.obj
 0002:0001a0c0       ?OnDirectSocketSend@PluginInterface2@VENet@@UAEXPBDIUSystemAddress@2@@Z 004d10c0 f i ConnectionGraph2.obj
 0002:0001a100       ?OnFailedConnectionAttempt@PluginInterface2@VENet@@UAEXPAUPacket@2@W4PI2_FailedConnectionAttemptReason@2@@Z 004d1100 f i ConnectionGraph2.obj
 0002:0001a140       ?OnInternalPacket@PluginInterface2@VENet@@UAEXPAUInternalPacket@2@IUSystemAddress@2@IH@Z 004d1140 f i ConnectionGraph2.obj
 0002:0001a180       ?OnNewConnection@ConnectionGraph2@VENet@@MAEXABUSystemAddress@2@UVENetGUID@2@_N@Z 004d1180 f   ConnectionGraph2.obj
 0002:0001a210       ?OnPushBackPacket@PluginInterface2@VENet@@UAEXPBDIUSystemAddress@2@@Z 004d1210 f i ConnectionGraph2.obj
 0002:0001a250       ?OnRakPeerStartup@PluginInterface2@VENet@@UAEXXZ 004d1250 f i ConnectionGraph2.obj
 0002:0001a290       ?OnReceive@ConnectionGraph2@VENet@@MAE?AW4PluginReceiveResult@2@PAUPacket@2@@Z 004d1290 f   ConnectionGraph2.obj
 0002:0001a770       ?OnReliabilityLayerNotification@PluginInterface2@VENet@@UAEXPBDIUSystemAddress@2@_N@Z 004d1770 f i ConnectionGraph2.obj
 0002:0001a7b0       ?OnVEPeerShutdown@PluginInterface2@VENet@@UAEXXZ 004d17b0 f i ConnectionGraph2.obj
 0002:0001a7f0       ?RemoteSystemComp@ConnectionGraph2@VENet@@SAHABUVENetGUID@2@ABQAURemoteSystem@12@@Z 004d17f0 f   ConnectionGraph2.obj
 0002:0001a880       ?RemoveAtIndex@?$List@PAURemoteSystem@ConnectionGraph2@VENet@@@DataStructures@@QAEXI@Z 004d1880 f i ConnectionGraph2.obj
 0002:0001a970       ?RemoveAtIndex@?$List@USystemAddressAndGuid@ConnectionGraph2@VENet@@@DataStructures@@QAEXI@Z 004d1970 f i ConnectionGraph2.obj
 0002:0001aa70       ?RemoveAtIndex@?$OrderedList@USystemAddressAndGuid@ConnectionGraph2@VENet@@U123@$1?SystemAddressAndGuidComp@23@SAHABU123@0@Z@DataStructures@@QAEXI@Z 004d1a70 f i ConnectionGraph2.obj
 0002:0001aad0       ?RemoveAtIndex@?$OrderedList@UVENetGUID@VENet@@PAURemoteSystem@ConnectionGraph2@2@$1?RemoteSystemComp@42@SAHABU12@ABQAU342@@Z@DataStructures@@QAEXI@Z 004d1ad0 f i ConnectionGraph2.obj
 0002:0001ab30       ?RemoveFromEnd@?$List@PAURemoteSystem@ConnectionGraph2@VENet@@@DataStructures@@QAEXI@Z 004d1b30 f i ConnectionGraph2.obj
 0002:0001abd0       ?RemoveFromEnd@?$List@USystemAddressAndGuid@ConnectionGraph2@VENet@@@DataStructures@@QAEXI@Z 004d1bd0 f i ConnectionGraph2.obj
 0002:0001ac70       ?SetAutoProcessNewConnections@ConnectionGraph2@VENet@@QAEX_N@Z 004d1c70 f   ConnectionGraph2.obj
 0002:0001acc0       ?Size@?$List@PAURemoteSystem@ConnectionGraph2@VENet@@@DataStructures@@QBEIXZ 004d1cc0 f i ConnectionGraph2.obj
 0002:0001ad00       ?Size@?$List@USystemAddress@VENet@@@DataStructures@@QBEIXZ 004d1d00 f i ConnectionGraph2.obj
 0002:0001ad40       ?Size@?$List@USystemAddressAndGuid@ConnectionGraph2@VENet@@@DataStructures@@QBEIXZ 004d1d40 f i ConnectionGraph2.obj
 0002:0001ad80       ?Size@?$OrderedList@USystemAddressAndGuid@ConnectionGraph2@VENet@@U123@$1?SystemAddressAndGuidComp@23@SAHABU123@0@Z@DataStructures@@QBEIXZ 004d1d80 f i ConnectionGraph2.obj
 0002:0001add0       ?Size@?$OrderedList@UVENetGUID@VENet@@PAURemoteSystem@ConnectionGraph2@2@$1?RemoteSystemComp@42@SAHABU12@ABQAU342@@Z@DataStructures@@QBEIXZ 004d1dd0 f i ConnectionGraph2.obj
 0002:0001ae20       ?SystemAddressAndGuidComp@ConnectionGraph2@VENet@@SAHABUSystemAddressAndGuid@12@0@Z 004d1e20 f   ConnectionGraph2.obj
 0002:0001aeb0       ?Update@PluginInterface2@VENet@@UAEXXZ 004d1eb0 f i ConnectionGraph2.obj
 0002:0001aef0       ?UsesReliabilityLayer@PluginInterface2@VENet@@UBE_NXZ 004d1ef0 f i ConnectionGraph2.obj
 0002:0001af30       ??$OP_DELETE@VDataCompressor@VENet@@@VENet@@YAXPAVDataCompressor@0@PBDI@Z 004d1f30 f i DataCompressor.obj
 0002:0001af90       ??$OP_NEW@VDataCompressor@VENet@@@VENet@@YAPAVDataCompressor@0@PBDI@Z 004d1f90 f i DataCompressor.obj
 0002:0001aff0       ?Compress@DataCompressor@VENet@@SAXPAEIPAVBitStream@2@@Z 004d1ff0 f   DataCompressor.obj
 0002:0001b310       ?DecompressAndAllocate@DataCompressor@VENet@@SAIPAVBitStream@2@PAPAE@Z 004d2310 f   DataCompressor.obj
 0002:0001b630       ?DestroyInstance@DataCompressor@VENet@@SAXPAV12@@Z 004d2630 f   DataCompressor.obj
 0002:0001b690       ?GetInstance@DataCompressor@VENet@@SAPAV12@XZ 004d2690 f   DataCompressor.obj
 0002:0001b6f0       ??0?$MemoryPool@$$BY0CAA@E@DataStructures@@QAE@XZ 004d26f0 f i DS_BytePool.obj
 0002:0001b750       ??0?$MemoryPool@$$BY0CAAA@E@DataStructures@@QAE@XZ 004d2750 f i DS_BytePool.obj
 0002:0001b7b0       ??0?$MemoryPool@$$BY0IA@E@DataStructures@@QAE@XZ 004d27b0 f i DS_BytePool.obj
 0002:0001b810       ??0?$MemoryPool@$$BY0IAA@E@DataStructures@@QAE@XZ 004d2810 f i DS_BytePool.obj
 0002:0001b870       ??0BytePool@DataStructures@@QAE@XZ 004d2870 f   DS_BytePool.obj
 0002:0001b990       ??1?$MemoryPool@$$BY0CAA@E@DataStructures@@QAE@XZ 004d2990 f i DS_BytePool.obj
 0002:0001b9f0       ??1?$MemoryPool@$$BY0CAAA@E@DataStructures@@QAE@XZ 004d29f0 f i DS_BytePool.obj
 0002:0001ba50       ??1?$MemoryPool@$$BY0IA@E@DataStructures@@QAE@XZ 004d2a50 f i DS_BytePool.obj
 0002:0001bab0       ??1?$MemoryPool@$$BY0IAA@E@DataStructures@@QAE@XZ 004d2ab0 f i DS_BytePool.obj
 0002:0001bb10       ??1BytePool@DataStructures@@QAE@XZ 004d2b10 f   DS_BytePool.obj
 0002:0001bbe0       ?Allocate@?$MemoryPool@$$BY0CAA@E@DataStructures@@QAEPAY0CAA@EPBDI@Z 004d2be0 f i DS_BytePool.obj
 0002:0001bf00       ?Allocate@?$MemoryPool@$$BY0CAAA@E@DataStructures@@QAEPAY0CAAA@EPBDI@Z 004d2f00 f i DS_BytePool.obj
 0002:0001c220       ?Allocate@?$MemoryPool@$$BY0IA@E@DataStructures@@QAEPAY0IA@EPBDI@Z 004d3220 f i DS_BytePool.obj
 0002:0001c540       ?Allocate@?$MemoryPool@$$BY0IAA@E@DataStructures@@QAEPAY0IAA@EPBDI@Z 004d3540 f i DS_BytePool.obj
 0002:0001c860       ?Allocate@BytePool@DataStructures@@QAEPAEHPBDI@Z 004d3860 f   DS_BytePool.obj
 0002:0001ca10       ?BlocksPerPage@?$MemoryPool@$$BY0CAA@E@DataStructures@@IBEHXZ 004d3a10 f i DS_BytePool.obj
 0002:0001ca60       ?BlocksPerPage@?$MemoryPool@$$BY0CAAA@E@DataStructures@@IBEHXZ 004d3a60 f i DS_BytePool.obj
 0002:0001cab0       ?BlocksPerPage@?$MemoryPool@$$BY0IA@E@DataStructures@@IBEHXZ 004d3ab0 f i DS_BytePool.obj
 0002:0001cb00       ?BlocksPerPage@?$MemoryPool@$$BY0IAA@E@DataStructures@@IBEHXZ 004d3b00 f i DS_BytePool.obj
 0002:0001cb50       ?Clear@?$MemoryPool@$$BY0CAA@E@DataStructures@@QAEXPBDI@Z 004d3b50 f i DS_BytePool.obj
 0002:0001cd90       ?Clear@?$MemoryPool@$$BY0CAAA@E@DataStructures@@QAEXPBDI@Z 004d3d90 f i DS_BytePool.obj
 0002:0001cfd0       ?Clear@?$MemoryPool@$$BY0IA@E@DataStructures@@QAEXPBDI@Z 004d3fd0 f i DS_BytePool.obj
 0002:0001d210       ?Clear@?$MemoryPool@$$BY0IAA@E@DataStructures@@QAEXPBDI@Z 004d4210 f i DS_BytePool.obj
 0002:0001d450       ?Clear@BytePool@DataStructures@@QAEXPBDI@Z 004d4450 f   DS_BytePool.obj
 0002:0001d490       ?InitPage@?$MemoryPool@$$BY0CAA@E@DataStructures@@IAE_NPAUPage@12@0PBDI@Z 004d4490 f i DS_BytePool.obj
 0002:0001d620       ?InitPage@?$MemoryPool@$$BY0CAAA@E@DataStructures@@IAE_NPAUPage@12@0PBDI@Z 004d4620 f i DS_BytePool.obj
 0002:0001d7b0       ?InitPage@?$MemoryPool@$$BY0IA@E@DataStructures@@IAE_NPAUPage@12@0PBDI@Z 004d47b0 f i DS_BytePool.obj
 0002:0001d940       ?InitPage@?$MemoryPool@$$BY0IAA@E@DataStructures@@IAE_NPAUPage@12@0PBDI@Z 004d4940 f i DS_BytePool.obj
 0002:0001dad0       ?Release@?$MemoryPool@$$BY0CAA@E@DataStructures@@QAEXPAY0CAA@EPBDI@Z 004d4ad0 f i DS_BytePool.obj
 0002:0001dde0       ?Release@?$MemoryPool@$$BY0CAAA@E@DataStructures@@QAEXPAY0CAAA@EPBDI@Z 004d4de0 f i DS_BytePool.obj
 0002:0001e0f0       ?Release@?$MemoryPool@$$BY0IA@E@DataStructures@@QAEXPAY0IA@EPBDI@Z 004d50f0 f i DS_BytePool.obj
 0002:0001e400       ?Release@?$MemoryPool@$$BY0IAA@E@DataStructures@@QAEXPAY0IAA@EPBDI@Z 004d5400 f i DS_BytePool.obj
 0002:0001e710       ?Release@BytePool@DataStructures@@QAEXPAEPBDI@Z 004d5710 f   DS_BytePool.obj
 0002:0001e8c0       ?SetPageSize@?$MemoryPool@$$BY0CAA@E@DataStructures@@QAEXH@Z 004d58c0 f i DS_BytePool.obj
 0002:0001e910       ?SetPageSize@?$MemoryPool@$$BY0CAAA@E@DataStructures@@QAEXH@Z 004d5910 f i DS_BytePool.obj
 0002:0001e960       ?SetPageSize@?$MemoryPool@$$BY0IA@E@DataStructures@@QAEXH@Z 004d5960 f i DS_BytePool.obj
 0002:0001e9b0       ?SetPageSize@?$MemoryPool@$$BY0IAA@E@DataStructures@@QAEXH@Z 004d59b0 f i DS_BytePool.obj
 0002:0001ea00       ?SetPageSize@BytePool@DataStructures@@QAEXH@Z 004d5a00 f   DS_BytePool.obj
 0002:0001ea90       ??0ByteQueue@DataStructures@@QAE@XZ 004d5a90 f   DS_ByteQueue.obj
 0002:0001eb00       ??1ByteQueue@DataStructures@@QAE@XZ 004d5b00 f   DS_ByteQueue.obj
 0002:0001eb60       ?Clear@ByteQueue@DataStructures@@QAEXPBDI@Z 004d5b60 f   DS_ByteQueue.obj
 0002:0001ec10       ?DecrementReadOffset@ByteQueue@DataStructures@@QAEXI@Z 004d5c10 f   DS_ByteQueue.obj
 0002:0001ec90       ?GetBytesWritten@ByteQueue@DataStructures@@QBEIXZ 004d5c90 f   DS_ByteQueue.obj
 0002:0001ed00       ?IncrementReadOffset@ByteQueue@DataStructures@@QAEXI@Z 004d5d00 f   DS_ByteQueue.obj
 0002:0001ed60       ?PeekContiguousBytes@ByteQueue@DataStructures@@QBEPADPAI@Z 004d5d60 f   DS_ByteQueue.obj
 0002:0001edf0       ?Print@ByteQueue@DataStructures@@QAEXXZ 004d5df0 f   DS_ByteQueue.obj
 0002:0001eeb0       ?ReadBytes@ByteQueue@DataStructures@@QAE_NPADI_N@Z 004d5eb0 f   DS_ByteQueue.obj
 0002:0001f020       ?WriteBytes@ByteQueue@DataStructures@@QAEXPBDI0I@Z 004d6020 f   DS_ByteQueue.obj
 0002:0001f2a0       ??$OP_DELETE@UHuffmanEncodingTreeNode@@@VENet@@YAXPAUHuffmanEncodingTreeNode@@PBDI@Z 004d62a0 f i DS_HuffmanEncodingTree.obj
 0002:0001f300       ??$OP_DELETE@Unode@?$CircularLinkedList@PAUHuffmanEncodingTreeNode@@@DataStructures@@@VENet@@YAXPAUnode@?$CircularLinkedList@PAUHuffmanEncodingTreeNode@@@DataStructures@@PBDI@Z 004d6300 f i DS_HuffmanEncodingTree.obj
 0002:0001f360       ??$OP_DELETE_ARRAY@PAUHuffmanEncodingTreeNode@@@VENet@@YAXPAPAUHuffmanEncodingTreeNode@@PBDI@Z 004d6360 f i DS_HuffmanEncodingTree.obj
 0002:0001f3c0       ??$OP_NEW@UHuffmanEncodingTreeNode@@@VENet@@YAPAUHuffmanEncodingTreeNode@@PBDI@Z 004d63c0 f i DS_HuffmanEncodingTree.obj
 0002:0001f420       ??$OP_NEW@Unode@?$CircularLinkedList@PAUHuffmanEncodingTreeNode@@@DataStructures@@@VENet@@YAPAUnode@?$CircularLinkedList@PAUHuffmanEncodingTreeNode@@@DataStructures@@PBDI@Z 004d6420 f i DS_HuffmanEncodingTree.obj
 0002:0001f480       ??$OP_NEW_ARRAY@PAUHuffmanEncodingTreeNode@@@VENet@@YAPAPAUHuffmanEncodingTreeNode@@HPBDI@Z 004d6480 f i DS_HuffmanEncodingTree.obj
 0002:0001f500       ??0?$CircularLinkedList@PAUHuffmanEncodingTreeNode@@@DataStructures@@QAE@XZ 004d6500 f i DS_HuffmanEncodingTree.obj
 0002:0001f560       ??0?$LinkedList@PAUHuffmanEncodingTreeNode@@@DataStructures@@QAE@XZ 004d6560 f i DS_HuffmanEncodingTree.obj
 0002:0001f5c0       ??0?$Queue@PAUHuffmanEncodingTreeNode@@@DataStructures@@QAE@XZ 004d65c0 f i DS_HuffmanEncodingTree.obj
 0002:0001f630       ??0HuffmanEncodingTree@VENet@@QAE@XZ 004d6630 f   DS_HuffmanEncodingTree.obj
 0002:0001f680       ??1?$CircularLinkedList@PAUHuffmanEncodingTreeNode@@@DataStructures@@QAE@XZ 004d6680 f i DS_HuffmanEncodingTree.obj
 0002:0001f6d0       ??1?$LinkedList@PAUHuffmanEncodingTreeNode@@@DataStructures@@QAE@XZ 004d66d0 f i DS_HuffmanEncodingTree.obj
 0002:0001f770       ??1?$Queue@PAUHuffmanEncodingTreeNode@@@DataStructures@@QAE@XZ 004d6770 f i DS_HuffmanEncodingTree.obj
 0002:0001f7e0       ??1HuffmanEncodingTree@VENet@@QAE@XZ 004d67e0 f   DS_HuffmanEncodingTree.obj
 0002:0001f830       ??E?$LinkedList@PAUHuffmanEncodingTreeNode@@@DataStructures@@QAEAAV01@XZ 004d6830 f i DS_HuffmanEncodingTree.obj
 0002:0001f8a0       ?Add@?$CircularLinkedList@PAUHuffmanEncodingTreeNode@@@DataStructures@@QAEAAPAUHuffmanEncodingTreeNode@@ABQAU3@@Z 004d68a0 f i DS_HuffmanEncodingTree.obj
 0002:0001faa0       ?Beginning@?$CircularLinkedList@PAUHuffmanEncodingTreeNode@@@DataStructures@@QAEXXZ 004d6aa0 f i DS_HuffmanEncodingTree.obj
 0002:0001faf0       ?Clear@?$CircularLinkedList@PAUHuffmanEncodingTreeNode@@@DataStructures@@QAEXXZ 004d6af0 f i DS_HuffmanEncodingTree.obj
 0002:0001fbe0       ?DecodeArray@HuffmanEncodingTree@VENet@@QAEIPAVBitStream@2@IIPAE@Z 004d6be0 f   DS_HuffmanEncodingTree.obj
 0002:0001fce0       ?DecodeArray@HuffmanEncodingTree@VENet@@QAEXPAEIPAVBitStream@2@@Z 004d6ce0 f   DS_HuffmanEncodingTree.obj
 0002:0001fea0       ?Del@?$CircularLinkedList@PAUHuffmanEncodingTreeNode@@@DataStructures@@QAEXXZ 004d6ea0 f i DS_HuffmanEncodingTree.obj
 0002:0001fff0       ?EncodeArray@HuffmanEncodingTree@VENet@@QAEXPAEIPAVBitStream@2@@Z 004d6ff0 f   DS_HuffmanEncodingTree.obj
 0002:00020170       ?End@?$CircularLinkedList@PAUHuffmanEncodingTreeNode@@@DataStructures@@QAEXXZ 004d7170 f i DS_HuffmanEncodingTree.obj
 0002:000201d0       ?FreeMemory@HuffmanEncodingTree@VENet@@QAEXXZ 004d71d0 f   DS_HuffmanEncodingTree.obj
 0002:000203e0       ?GenerateFromFrequencyTable@HuffmanEncodingTree@VENet@@QAEXQAI@Z 004d73e0 f   DS_HuffmanEncodingTree.obj
 0002:00020910       ?Insert@?$CircularLinkedList@PAUHuffmanEncodingTreeNode@@@DataStructures@@QAEXABQAUHuffmanEncodingTreeNode@@@Z 004d7910 f i DS_HuffmanEncodingTree.obj
 0002:00020b20       ?InsertNodeIntoSortedList@HuffmanEncodingTree@VENet@@ABEXPAUHuffmanEncodingTreeNode@@PAV?$LinkedList@PAUHuffmanEncodingTreeNode@@@DataStructures@@@Z 004d7b20 f   DS_HuffmanEncodingTree.obj
 0002:00020c20       ?Peek@?$CircularLinkedList@PAUHuffmanEncodingTreeNode@@@DataStructures@@QAEAAPAUHuffmanEncodingTreeNode@@XZ 004d7c20 f i DS_HuffmanEncodingTree.obj
 0002:00020c60       ?Pop@?$CircularLinkedList@PAUHuffmanEncodingTreeNode@@@DataStructures@@QAEPAUHuffmanEncodingTreeNode@@XZ 004d7c60 f i DS_HuffmanEncodingTree.obj
 0002:00020cd0       ?Pop@?$Queue@PAUHuffmanEncodingTreeNode@@@DataStructures@@QAEPAUHuffmanEncodingTreeNode@@XZ 004d7cd0 f i DS_HuffmanEncodingTree.obj
 0002:00020dc0       ?Push@?$Queue@PAUHuffmanEncodingTreeNode@@@DataStructures@@QAEXABQAUHuffmanEncodingTreeNode@@PBDI@Z 004d7dc0 f i DS_HuffmanEncodingTree.obj
 0002:00020fe0       ?Size@?$CircularLinkedList@PAUHuffmanEncodingTreeNode@@@DataStructures@@QAEIXZ 004d7fe0 f i DS_HuffmanEncodingTree.obj
 0002:00021020       ?Size@?$Queue@PAUHuffmanEncodingTreeNode@@@DataStructures@@QBEIXZ 004d8020 f i DS_HuffmanEncodingTree.obj
 0002:00021090       ??$OP_DELETE@UCell@Table@DataStructures@@@VENet@@YAXPAUCell@Table@DataStructures@@PBDI@Z 004d8090 f i DS_Table.obj
 0002:00021120       ??$OP_DELETE@URow@Table@DataStructures@@@VENet@@YAXPAURow@Table@DataStructures@@PBDI@Z 004d8120 f i DS_Table.obj
 0002:000211b0       ??$OP_DELETE_ARRAY@I@VENet@@YAXPAIPBDI@Z 004d81b0 f i DS_Table.obj
 0002:00021210       ??$OP_DELETE_ARRAY@PAU?$Page@IPAURow@Table@DataStructures@@$0BA@@DataStructures@@@VENet@@YAXPAPAU?$Page@IPAURow@Table@DataStructures@@$0BA@@DataStructures@@PBDI@Z 004d8210 f i DS_Table.obj
 0002:00021270       ??$OP_DELETE_ARRAY@PAUCell@Table@DataStructures@@@VENet@@YAXPAPAUCell@Table@DataStructures@@PBDI@Z 004d8270 f i DS_Table.obj
 0002:000212d0       ??$OP_DELETE_ARRAY@PAURow@Table@DataStructures@@@VENet@@YAXPAPAURow@Table@DataStructures@@PBDI@Z 004d82d0 f i DS_Table.obj
 0002:00021330       ??$OP_DELETE_ARRAY@UColumnDescriptor@Table@DataStructures@@@VENet@@YAXPAUColumnDescriptor@Table@DataStructures@@PBDI@Z 004d8330 f i DS_Table.obj
 0002:000213c0       ??$OP_NEW@UCell@Table@DataStructures@@@VENet@@YAPAUCell@Table@DataStructures@@PBDI@Z 004d83c0 f i DS_Table.obj
 0002:000214a0       ??$OP_NEW@URow@Table@DataStructures@@@VENet@@YAPAURow@Table@DataStructures@@PBDI@Z 004d84a0 f i DS_Table.obj
 0002:00021580       ??$OP_NEW_4@UCell@Table@DataStructures@@NPADPAXW4ColumnType@23@@VENet@@YAPAUCell@Table@DataStructures@@PBDIABNABQADABQAXABW4ColumnType@23@@Z 004d8580 f i DS_Table.obj
 0002:00021690       ??$OP_NEW_ARRAY@I@VENet@@YAPAIHPBDI@Z 004d8690 f i DS_Table.obj
 0002:00021710       ??$OP_NEW_ARRAY@PAU?$Page@IPAURow@Table@DataStructures@@$0BA@@DataStructures@@@VENet@@YAPAPAU?$Page@IPAURow@Table@DataStructures@@$0BA@@DataStructures@@HPBDI@Z 004d8710 f i DS_Table.obj
 0002:00021790       ??$OP_NEW_ARRAY@PAUCell@Table@DataStructures@@@VENet@@YAPAPAUCell@Table@DataStructures@@HPBDI@Z 004d8790 f i DS_Table.obj
 0002:00021810       ??$OP_NEW_ARRAY@PAURow@Table@DataStructures@@@VENet@@YAPAPAURow@Table@DataStructures@@HPBDI@Z 004d8810 f i DS_Table.obj
 0002:00021890       ??$OP_NEW_ARRAY@UColumnDescriptor@Table@DataStructures@@@VENet@@YAPAUColumnDescriptor@Table@DataStructures@@HPBDI@Z 004d8890 f i DS_Table.obj
 0002:000219f0       ??0?$BPlusTree@IPAURow@Table@DataStructures@@$0BA@@DataStructures@@QAE@XZ 004d89f0 f i DS_Table.obj
 0002:00021a60       ??0?$List@I@DataStructures@@QAE@ABV01@@Z 004d8a60 f i DS_Table.obj
 0002:00021b60       ??0?$List@I@DataStructures@@QAE@XZ 004d8b60 f i DS_Table.obj
 0002:00021bc0       ??0?$List@PAUCell@Table@DataStructures@@@DataStructures@@QAE@XZ 004d8bc0 f i DS_Table.obj
 0002:00021c20       ??0?$List@PAURow@Table@DataStructures@@@DataStructures@@QAE@XZ 004d8c20 f i DS_Table.obj
 0002:00021c80       ??0?$List@UColumnDescriptor@Table@DataStructures@@@DataStructures@@QAE@XZ 004d8c80 f i DS_Table.obj
 0002:00021ce0       ??0?$MemoryPool@U?$Page@IPAURow@Table@DataStructures@@$0BA@@DataStructures@@@DataStructures@@QAE@XZ 004d8ce0 f i DS_Table.obj
 0002:00021d40       ??0?$OrderedList@PAURow@Table@DataStructures@@PAU123@$1?RowSort@@YAHABQAU123@0@Z@DataStructures@@QAE@XZ 004d8d40 f i DS_Table.obj
 0002:00021da0       ??0?$Queue@PAU?$Page@IPAURow@Table@DataStructures@@$0BA@@DataStructures@@@DataStructures@@QAE@XZ 004d8da0 f i DS_Table.obj
 0002:00021e10       ??0Cell@Table@DataStructures@@QAE@ABU012@@Z 004d8e10 f   DS_Table.obj
 0002:00021f40       ??0Cell@Table@DataStructures@@QAE@NPADPAXW4ColumnType@12@@Z 004d8f40 f   DS_Table.obj
 0002:00021fc0       ??0Cell@Table@DataStructures@@QAE@XZ 004d8fc0 f   DS_Table.obj
 0002:00022030       ??0ColumnDescriptor@Table@DataStructures@@QAE@QBDW4ColumnType@12@@Z 004d9030 f   DS_Table.obj
 0002:000220a0       ??0ColumnDescriptor@Table@DataStructures@@QAE@XZ 004d90a0 f   DS_Table.obj
 0002:000220e0       ??0FilterQuery@Table@DataStructures@@QAE@IPAUCell@12@W4FilterQueryType@12@@Z 004d90e0 f   DS_Table.obj
 0002:00022140       ??0FilterQuery@Table@DataStructures@@QAE@XZ 004d9140 f   DS_Table.obj
 0002:00022190       ??0Row@Table@DataStructures@@QAE@XZ 004d9190 f i DS_Table.obj
 0002:000221f0       ??0Table@DataStructures@@QAE@XZ 004d91f0 f   DS_Table.obj
 0002:000222a0       ??1?$BPlusTree@IPAURow@Table@DataStructures@@$0BA@@DataStructures@@QAE@XZ 004d92a0 f i DS_Table.obj
 0002:00022340       ??1?$List@I@DataStructures@@QAE@XZ 004d9340 f i DS_Table.obj
 0002:000223b0       ??1?$List@PAUCell@Table@DataStructures@@@DataStructures@@QAE@XZ 004d93b0 f i DS_Table.obj
 0002:00022420       ??1?$List@PAURow@Table@DataStructures@@@DataStructures@@QAE@XZ 004d9420 f i DS_Table.obj
 0002:00022490       ??1?$List@UColumnDescriptor@Table@DataStructures@@@DataStructures@@QAE@XZ 004d9490 f i DS_Table.obj
 0002:00022500       ??1?$MemoryPool@U?$Page@IPAURow@Table@DataStructures@@$0BA@@DataStructures@@@DataStructures@@QAE@XZ 004d9500 f i DS_Table.obj
 0002:00022560       ??1?$OrderedList@PAURow@Table@DataStructures@@PAU123@$1?RowSort@@YAHABQAU123@0@Z@DataStructures@@QAE@XZ 004d9560 f i DS_Table.obj
 0002:00022610       ??1?$Queue@PAU?$Page@IPAURow@Table@DataStructures@@$0BA@@DataStructures@@@DataStructures@@QAE@XZ 004d9610 f i DS_Table.obj
 0002:00022680       ??1Cell@Table@DataStructures@@QAE@XZ 004d9680 f   DS_Table.obj
 0002:000226d0       ??1ColumnDescriptor@Table@DataStructures@@QAE@XZ 004d96d0 f   DS_Table.obj
 0002:00022710       ??1FilterQuery@Table@DataStructures@@QAE@XZ 004d9710 f   DS_Table.obj
 0002:00022750       ??1Row@Table@DataStructures@@QAE@XZ 004d9750 f i DS_Table.obj
 0002:000227a0       ??1Table@DataStructures@@QAE@XZ 004d97a0 f   DS_Table.obj
 0002:00022860       ??4Cell@Table@DataStructures@@QAEAAU012@ABU012@@Z 004d9860 f   DS_Table.obj
 0002:000229a0       ??4Table@DataStructures@@QAEAAV01@ABV01@@Z 004d99a0 f   DS_Table.obj
 0002:00022ad0       ??A?$List@I@DataStructures@@QBEAAII@Z 004d9ad0 f i DS_Table.obj
 0002:00022b70       ??A?$List@PAUCell@Table@DataStructures@@@DataStructures@@QBEAAPAUCell@Table@1@I@Z 004d9b70 f i DS_Table.obj
 0002:00022c10       ??A?$List@PAURow@Table@DataStructures@@@DataStructures@@QBEAAPAURow@Table@1@I@Z 004d9c10 f i DS_Table.obj
 0002:00022cb0       ??A?$List@UCell@Table@DataStructures@@@DataStructures@@QBEAAUCell@Table@1@I@Z 004d9cb0 f i DS_Table.obj
 0002:00022d50       ??A?$List@UColumnDescriptor@Table@DataStructures@@@DataStructures@@QBEAAUColumnDescriptor@Table@1@I@Z 004d9d50 f i DS_Table.obj
 0002:00022df0       ??A?$OrderedList@PAURow@Table@DataStructures@@PAU123@$1?RowSort@@YAHABQAU123@0@Z@DataStructures@@QBEAAPAURow@Table@1@I@Z 004d9df0 f i DS_Table.obj
 0002:00022e50       ??_EColumnDescriptor@Table@DataStructures@@QAEPAXI@Z 004d9e50 f i DS_Table.obj
 0002:00022f10       ??_GCell@Table@DataStructures@@QAEPAXI@Z 004d9f10 f i DS_Table.obj
 0002:00022f80       ??_GRow@Table@DataStructures@@QAEPAXI@Z 004d9f80 f i DS_Table.obj
 0002:00022ff0       ?AddColumn@Table@DataStructures@@QAEIQBDW4ColumnType@12@@Z 004d9ff0 f   DS_Table.obj
 0002:00023140       ?AddRow@Table@DataStructures@@QAEPAURow@12@I@Z 004da140 f   DS_Table.obj
 0002:000232a0       ?AddRow@Table@DataStructures@@QAEPAURow@12@IAAV?$List@PAUCell@Table@DataStructures@@@2@_N@Z 004da2a0 f   DS_Table.obj
 0002:00023550       ?AddRow@Table@DataStructures@@QAEPAURow@12@IAAV?$List@UCell@Table@DataStructures@@@2@@Z 004da550 f   DS_Table.obj
 0002:00023780       ?AddRowColumns@Table@DataStructures@@IAEPAURow@12@IPAU312@V?$List@I@2@@Z 004da780 f   DS_Table.obj
 0002:00023a10       ?Allocate@?$MemoryPool@U?$Page@IPAURow@Table@DataStructures@@$0BA@@DataStructures@@@DataStructures@@QAEPAU?$Page@IPAURow@Table@DataStructures@@$0BA@@2@PBDI@Z 004daa10 f i DS_Table.obj
 0002:00023d30       ?BlocksPerPage@?$MemoryPool@U?$Page@IPAURow@Table@DataStructures@@$0BA@@DataStructures@@@DataStructures@@IBEHXZ 004dad30 f i DS_Table.obj
 0002:00023d80       ?CanRotateLeft@?$BPlusTree@IPAURow@Table@DataStructures@@$0BA@@DataStructures@@IAE_NPAU?$Page@IPAURow@Table@DataStructures@@$0BA@@2@H@Z 004dad80 f i DS_Table.obj
 0002:00023e00       ?CanRotateRight@?$BPlusTree@IPAURow@Table@DataStructures@@$0BA@@DataStructures@@IAE_NPAU?$Page@IPAURow@Table@DataStructures@@$0BA@@2@H@Z 004dae00 f i DS_Table.obj
 0002:00023e80       ?Clear@?$BPlusTree@IPAURow@Table@DataStructures@@$0BA@@DataStructures@@QAEXXZ 004dae80 f i DS_Table.obj
 0002:00023f10       ?Clear@?$List@PAURow@Table@DataStructures@@@DataStructures@@QAEX_NPBDI@Z 004daf10 f i DS_Table.obj
 0002:00023fc0       ?Clear@?$List@UColumnDescriptor@Table@DataStructures@@@DataStructures@@QAEX_NPBDI@Z 004dafc0 f i DS_Table.obj
 0002:00024070       ?Clear@?$MemoryPool@U?$Page@IPAURow@Table@DataStructures@@$0BA@@DataStructures@@@DataStructures@@QAEXPBDI@Z 004db070 f i DS_Table.obj
 0002:000242b0       ?Clear@?$OrderedList@PAURow@Table@DataStructures@@PAU123@$1?RowSort@@YAHABQAU123@0@Z@DataStructures@@QAEX_NPBDI@Z 004db2b0 f i DS_Table.obj
 0002:00024320       ?Clear@Cell@Table@DataStructures@@QAEXXZ 004db320 f   DS_Table.obj
 0002:000243d0       ?Clear@Table@DataStructures@@QAEXXZ 004db3d0 f   DS_Table.obj
 0002:00024450       ?ColumnIndex@Table@DataStructures@@QBEIPBD@Z 004db450 f   DS_Table.obj
 0002:00024500       ?ColumnIndex@Table@DataStructures@@QBEIQAD@Z 004db500 f   DS_Table.obj
 0002:00024560       ?ColumnName@Table@DataStructures@@QBEPADI@Z 004db560 f   DS_Table.obj
 0002:000245e0       ?Delete@?$BPlusTree@IPAURow@Table@DataStructures@@$0BA@@DataStructures@@QAE_NI@Z 004db5e0 f i DS_Table.obj
 0002:00024680       ?Delete@?$BPlusTree@IPAURow@Table@DataStructures@@$0BA@@DataStructures@@QAE_NIAAPAURow@Table@2@@Z 004db680 f i DS_Table.obj
 0002:000248f0       ?DeleteFromPageAtIndex@?$BPlusTree@IPAURow@Table@DataStructures@@$0BA@@DataStructures@@IAEXHPAU?$Page@IPAURow@Table@DataStructures@@$0BA@@2@@Z 004db8f0 f i DS_Table.obj
 0002:00024a20       ?DeleteRow@Table@DataStructures@@IAEXPAURow@12@@Z 004dba20 f   DS_Table.obj
 0002:00024ae0       ?EstimateColumnType@Cell@Table@DataStructures@@QBE?AW4ColumnType@23@XZ 004dbae0 f   DS_Table.obj
 0002:00024b70       ?ExtendRows@@YAXPAURow@Table@DataStructures@@H@Z 004dbb70 f   DS_Table.obj
 0002:00024c00       ?FindDeleteRebalance@?$BPlusTree@IPAURow@Table@DataStructures@@$0BA@@DataStructures@@IAE_NIPAU?$Page@IPAURow@Table@DataStructures@@$0BA@@2@PA_NIPAUReturnAction@12@AAPAURow@Table@2@@Z 004dbc00 f i DS_Table.obj
 0002:00024f40       ?FixUnderflow@?$BPlusTree@IPAURow@Table@DataStructures@@$0BA@@DataStructures@@IAE_NHPAU?$Page@IPAURow@Table@DataStructures@@$0BA@@2@IPAUReturnAction@12@@Z 004dbf40 f i DS_Table.obj
 0002:000255f0       ?ForEachData@?$BPlusTree@IPAURow@Table@DataStructures@@$0BA@@DataStructures@@QAEXP6AXPAURow@Table@2@H@Z@Z 004dc5f0 f i DS_Table.obj
 0002:000256d0       ?FreePages@?$BPlusTree@IPAURow@Table@DataStructures@@$0BA@@DataStructures@@IAEXXZ 004dc6d0 f i DS_Table.obj
 0002:00025860       ?FreeRow@@YAXPAURow@Table@DataStructures@@H@Z 004dc860 f   DS_Table.obj
 0002:00025920       ?Get@?$BPlusTree@IPAURow@Table@DataStructures@@$0BA@@DataStructures@@QBE_NIAAPAURow@Table@2@@Z 004dc920 f i DS_Table.obj
 0002:00025a10       ?Get@Cell@Table@DataStructures@@QAEXPAD@Z 004dca10 f   DS_Table.obj
 0002:00025ab0       ?Get@Cell@Table@DataStructures@@QAEXPADPAH@Z 004dcab0 f   DS_Table.obj
 0002:00025b70       ?Get@Cell@Table@DataStructures@@QAEXPAH@Z 004dcb70 f   DS_Table.obj
 0002:00025c10       ?Get@Cell@Table@DataStructures@@QAEXPAN@Z 004dcc10 f   DS_Table.obj
 0002:00025cb0       ?GetAvailableRowId@Table@DataStructures@@QBEIXZ 004dccb0 f   DS_Table.obj
 0002:00025da0       ?GetCellValueByIndex@Table@DataStructures@@QAEXIIPAD@Z 004dcda0 f   DS_Table.obj
 0002:00025e70       ?GetCellValueByIndex@Table@DataStructures@@QAEXIIPADPAH@Z 004dce70 f   DS_Table.obj
 0002:00025f40       ?GetCellValueByIndex@Table@DataStructures@@QAEXIIPAH@Z 004dcf40 f   DS_Table.obj
 0002:00026010       ?GetColumnCount@Table@DataStructures@@QBEIXZ 004dd010 f   DS_Table.obj
 0002:00026070       ?GetColumnType@Table@DataStructures@@QBE?AW4ColumnType@12@I@Z 004dd070 f   DS_Table.obj
 0002:000260f0       ?GetColumns@Table@DataStructures@@QBEABV?$List@UColumnDescriptor@Table@DataStructures@@@2@XZ 004dd0f0 f   DS_Table.obj
 0002:00026130       ?GetIndexFromKey@?$OrderedList@PAURow@Table@DataStructures@@PAU123@$1?RowSort@@YAHABQAU123@0@Z@DataStructures@@QBEIABQAURow@Table@2@PA_NP6AH00@Z@Z 004dd130 f i DS_Table.obj
 0002:00026270       ?GetIndexOf@?$BPlusTree@IPAURow@Table@DataStructures@@$0BA@@DataStructures@@IBE_NIPAU?$Page@IPAURow@Table@DataStructures@@$0BA@@2@PAH@Z 004dd270 f i DS_Table.obj
 0002:000263b0       ?GetLeafFromKey@?$BPlusTree@IPAURow@Table@DataStructures@@$0BA@@DataStructures@@IBEPAU?$Page@IPAURow@Table@DataStructures@@$0BA@@2@I@Z 004dd3b0 f i DS_Table.obj
 0002:000264a0       ?GetListHead@?$BPlusTree@IPAURow@Table@DataStructures@@$0BA@@DataStructures@@QBEPAU?$Page@IPAURow@Table@DataStructures@@$0BA@@2@XZ 004dd4a0 f i DS_Table.obj
 0002:000264e0       ?GetListHead@Table@DataStructures@@QAEPAU?$Page@IPAURow@Table@DataStructures@@$0BA@@2@XZ 004dd4e0 f   DS_Table.obj
 0002:00026530       ?GetRowByID@Table@DataStructures@@QBEPAURow@12@I@Z 004dd530 f   DS_Table.obj
 0002:000265d0       ?GetRowByIndex@Table@DataStructures@@QBEPAURow@12@IPAI@Z 004dd5d0 f   DS_Table.obj
 0002:000266a0       ?GetRowCount@Table@DataStructures@@QBEIXZ 004dd6a0 f   DS_Table.obj
 0002:000266f0       ?GetRows@Table@DataStructures@@QBEABV?$BPlusTree@IPAURow@Table@DataStructures@@$0BA@@2@XZ 004dd6f0 f   DS_Table.obj
 0002:00026730       ?InitPage@?$MemoryPool@U?$Page@IPAURow@Table@DataStructures@@$0BA@@DataStructures@@@DataStructures@@IAE_NPAUPage@12@0PBDI@Z 004dd730 f i DS_Table.obj
 0002:000268c0       ?Insert@?$BPlusTree@IPAURow@Table@DataStructures@@$0BA@@DataStructures@@QAE_NIABQAURow@Table@2@@Z 004dd8c0 f i DS_Table.obj
 0002:00026b90       ?Insert@?$List@I@DataStructures@@QAEXABIPBDI@Z 004ddb90 f i DS_Table.obj
 0002:00026ce0       ?Insert@?$List@PAUCell@Table@DataStructures@@@DataStructures@@QAEXABQAUCell@Table@2@PBDI@Z 004ddce0 f i DS_Table.obj
 0002:00026e30       ?Insert@?$List@PAURow@Table@DataStructures@@@DataStructures@@QAEXABQAURow@Table@2@IPBDI@Z 004dde30 f i DS_Table.obj
 0002:00026ff0       ?Insert@?$List@PAURow@Table@DataStructures@@@DataStructures@@QAEXABQAURow@Table@2@PBDI@Z 004ddff0 f i DS_Table.obj
 0002:00027140       ?Insert@?$List@UColumnDescriptor@Table@DataStructures@@@DataStructures@@QAEXABUColumnDescriptor@Table@2@PBDI@Z 004de140 f i DS_Table.obj
 0002:000272a0       ?Insert@?$OrderedList@PAURow@Table@DataStructures@@PAU123@$1?RowSort@@YAHABQAU123@0@Z@DataStructures@@QAEIABQAURow@Table@2@0_NPBDIP6AH00@Z@Z 004de2a0 f i DS_Table.obj
 0002:000273f0       ?InsertBranchDown@?$BPlusTree@IPAURow@Table@DataStructures@@$0BA@@DataStructures@@IAEPAU?$Page@IPAURow@Table@DataStructures@@$0BA@@2@IABQAURow@Table@2@PAU32@PAUReturnAction@12@PA_N@Z 004de3f0 f i DS_Table.obj
 0002:00027a20       ?InsertIntoNode@?$BPlusTree@IPAURow@Table@DataStructures@@$0BA@@DataStructures@@IAEPAU?$Page@IPAURow@Table@DataStructures@@$0BA@@2@IABQAURow@Table@2@HPAU32@1PAUReturnAction@12@@Z 004dea20 f i DS_Table.obj
 0002:000280f0       ?Pop@?$Queue@PAU?$Page@IPAURow@Table@DataStructures@@$0BA@@DataStructures@@@DataStructures@@QAEPAU?$Page@IPAURow@Table@DataStructures@@$0BA@@2@XZ 004df0f0 f i DS_Table.obj
 0002:000281e0       ?PrintColumnHeaders@Table@DataStructures@@QBEXPADHD@Z 004df1e0 f   DS_Table.obj
 0002:00028370       ?PrintRow@Table@DataStructures@@QBEXPADHD_NPAURow@12@@Z 004df370 f   DS_Table.obj
 0002:00028a10       ?Push@?$Queue@PAU?$Page@IPAURow@Table@DataStructures@@$0BA@@DataStructures@@@DataStructures@@QAEXABQAU?$Page@IPAURow@Table@DataStructures@@$0BA@@2@PBDI@Z 004dfa10 f i DS_Table.obj
 0002:00028c30       ?QueryRow@Table@DataStructures@@IAEXAAV?$List@I@2@0IPAURow@12@PAUFilterQuery@12@PAV12@@Z 004dfc30 f   DS_Table.obj
 0002:00029900       ?QueryTable@Table@DataStructures@@QAEXPAIIPAUFilterQuery@12@I0IPAV12@@Z 004e0900 f   DS_Table.obj
 0002:00029e00       ?Release@?$MemoryPool@U?$Page@IPAURow@Table@DataStructures@@$0BA@@DataStructures@@@DataStructures@@QAEXPAU?$Page@IPAURow@Table@DataStructures@@$0BA@@2@PBDI@Z 004e0e00 f i DS_Table.obj
 0002:0002a110       ?RemoveAtIndex@?$List@PAUCell@Table@DataStructures@@@DataStructures@@QAEXI@Z 004e1110 f i DS_Table.obj
 0002:0002a200       ?RemoveAtIndex@?$List@UColumnDescriptor@Table@DataStructures@@@DataStructures@@QAEXI@Z 004e1200 f i DS_Table.obj
 0002:0002a300       ?RemoveColumn@Table@DataStructures@@QAEXI@Z 004e1300 f   DS_Table.obj
 0002:0002a410       ?RemoveFromEnd@?$List@PAUCell@Table@DataStructures@@@DataStructures@@QAEXI@Z 004e1410 f i DS_Table.obj
 0002:0002a4b0       ?RemoveFromEnd@?$List@UColumnDescriptor@Table@DataStructures@@@DataStructures@@QAEXI@Z 004e14b0 f i DS_Table.obj
 0002:0002a550       ?RemoveRow@Table@DataStructures@@QAE_NI@Z 004e1550 f   DS_Table.obj
 0002:0002a600       ?RemoveRows@Table@DataStructures@@QAEXPAV12@@Z 004e1600 f   DS_Table.obj
 0002:0002a6c0       ?RotateLeft@?$BPlusTree@IPAURow@Table@DataStructures@@$0BA@@DataStructures@@IAEXPAU?$Page@IPAURow@Table@DataStructures@@$0BA@@2@HPAUReturnAction@12@@Z 004e16c0 f i DS_Table.obj
 0002:0002a840       ?RotateRight@?$BPlusTree@IPAURow@Table@DataStructures@@$0BA@@DataStructures@@IAEXPAU?$Page@IPAURow@Table@DataStructures@@$0BA@@2@HPAUReturnAction@12@@Z 004e1840 f i DS_Table.obj
 0002:0002a9c0       ?RowSort@@YAHABQAURow@Table@DataStructures@@0@Z 004e19c0 f   DS_Table.obj
 0002:0002ad70       ?Set@Cell@Table@DataStructures@@QAEXH@Z 004e1d70 f   DS_Table.obj
 0002:0002ae00       ?Set@Cell@Table@DataStructures@@QAEXI@Z 004e1e00 f   DS_Table.obj
 0002:0002ae60       ?Set@Cell@Table@DataStructures@@QAEXN@Z 004e1e60 f   DS_Table.obj
 0002:0002aef0       ?Set@Cell@Table@DataStructures@@QAEXPBD@Z 004e1ef0 f   DS_Table.obj
 0002:0002b000       ?Set@Cell@Table@DataStructures@@QAEXPBDH@Z 004e2000 f   DS_Table.obj
 0002:0002b100       ?SetByType@Cell@Table@DataStructures@@QAEXNPADPAXW4ColumnType@23@@Z 004e2100 f   DS_Table.obj
 0002:0002b1d0       ?SetPtr@Cell@Table@DataStructures@@QAEXPAX@Z 004e21d0 f   DS_Table.obj
 0002:0002b240       ?ShiftNodeLeft@?$BPlusTree@IPAURow@Table@DataStructures@@$0BA@@DataStructures@@IAEXPAU?$Page@IPAURow@Table@DataStructures@@$0BA@@2@@Z 004e2240 f i DS_Table.obj
 0002:0002b370       ?ShiftNodeRight@?$BPlusTree@IPAURow@Table@DataStructures@@$0BA@@DataStructures@@IAEXPAU?$Page@IPAURow@Table@DataStructures@@$0BA@@2@@Z 004e2370 f i DS_Table.obj
 0002:0002b490       ?Size@?$BPlusTree@IPAURow@Table@DataStructures@@$0BA@@DataStructures@@QBEIXZ 004e2490 f i DS_Table.obj
 0002:0002b520       ?Size@?$List@I@DataStructures@@QBEIXZ 004e2520 f i DS_Table.obj
 0002:0002b560       ?Size@?$List@PAUCell@Table@DataStructures@@@DataStructures@@QBEIXZ 004e2560 f i DS_Table.obj
 0002:0002b5a0       ?Size@?$List@PAURow@Table@DataStructures@@@DataStructures@@QBEIXZ 004e25a0 f i DS_Table.obj
 0002:0002b5e0       ?Size@?$List@UCell@Table@DataStructures@@@DataStructures@@QBEIXZ 004e25e0 f i DS_Table.obj
 0002:0002b620       ?Size@?$List@UColumnDescriptor@Table@DataStructures@@@DataStructures@@QBEIXZ 004e2620 f i DS_Table.obj
 0002:0002b660       ?Size@?$OrderedList@PAURow@Table@DataStructures@@PAU123@$1?RowSort@@YAHABQAU123@0@Z@DataStructures@@QBEIXZ 004e2660 f i DS_Table.obj
 0002:0002b6b0       ?Size@?$Queue@PAU?$Page@IPAURow@Table@DataStructures@@$0BA@@DataStructures@@@DataStructures@@QBEIXZ 004e26b0 f i DS_Table.obj
 0002:0002b720       ?SortTable@Table@DataStructures@@QAEXPAUSortQuery@12@IPAPAURow@12@@Z 004e2720 f   DS_Table.obj
 0002:0002bb00       ?ToString@Cell@Table@DataStructures@@QAE?AVVEString@VENet@@W4ColumnType@23@@Z 004e2b00 f   DS_Table.obj
 0002:0002bcb0       ?UpdateCell@Row@Table@DataStructures@@QAEXIHPBD@Z 004e2cb0 f   DS_Table.obj
 0002:0002bd30       ?UpdateCell@Row@Table@DataStructures@@QAEXIN@Z 004e2d30 f   DS_Table.obj
 0002:0002bdc0       ?UpdateCell@Row@Table@DataStructures@@QAEXIPBD@Z 004e2dc0 f   DS_Table.obj
 0002:0002be40       ?UpdateCell@Table@DataStructures@@QAE_NIIH@Z 004e2e40 f   DS_Table.obj
 0002:0002bf20       ?UpdateCell@Table@DataStructures@@QAE_NIIHPAD@Z 004e2f20 f   DS_Table.obj
 0002:0002bff0       ?UpdateCell@Table@DataStructures@@QAE_NIIPAD@Z 004e2ff0 f   DS_Table.obj
 0002:0002c0c0       ?UpdateCellByIndex@Table@DataStructures@@QAE_NIIH@Z 004e30c0 f   DS_Table.obj
 0002:0002c1a0       ?UpdateCellByIndex@Table@DataStructures@@QAE_NIIHPAD@Z 004e31a0 f   DS_Table.obj
 0002:0002c270       ?UpdateCellByIndex@Table@DataStructures@@QAE_NIIPAD@Z 004e3270 f   DS_Table.obj
 0002:0002c340       ?EpochTimeToString@@YAPAD_J@Z 004e3340 f   EpochTimeToString.obj
 0002:0002c4b0       _FormatString              004e34b0 f   FormatString.obj
 0002:0002c5a0       _FormatStringTS            004e35a0 f   FormatString.obj
 0002:0002c620       ??$OP_DELETE@UVerifiedJoinInProgress@FullyConnectedMesh2@VENet@@@VENet@@YAXPAUVerifiedJoinInProgress@FullyConnectedMesh2@0@PBDI@Z 004e3620 f i FullyConnectedMesh2.obj
 0002:0002c6b0       ??$OP_DELETE@VFullyConnectedMesh2@VENet@@@VENet@@YAXPAVFullyConnectedMesh2@0@PBDI@Z 004e36b0 f i FullyConnectedMesh2.obj
 0002:0002c750       ??$OP_DELETE_ARRAY@PAUVerifiedJoinInProgress@FullyConnectedMesh2@VENet@@@VENet@@YAXPAPAUVerifiedJoinInProgress@FullyConnectedMesh2@0@PBDI@Z 004e3750 f i FullyConnectedMesh2.obj
 0002:0002c7b0       ??$OP_DELETE_ARRAY@UFCM2Participant@FullyConnectedMesh2@VENet@@@VENet@@YAXPAUFCM2Participant@FullyConnectedMesh2@0@PBDI@Z 004e37b0 f i FullyConnectedMesh2.obj
 0002:0002c810       ??$OP_DELETE_ARRAY@UVerifiedJoinInProgressMember@FullyConnectedMesh2@VENet@@@VENet@@YAXPAUVerifiedJoinInProgressMember@FullyConnectedMesh2@0@PBDI@Z 004e3810 f i FullyConnectedMesh2.obj
 0002:0002c870       ??$OP_NEW@UVerifiedJoinInProgress@FullyConnectedMesh2@VENet@@@VENet@@YAPAUVerifiedJoinInProgress@FullyConnectedMesh2@0@PBDI@Z 004e3870 f i FullyConnectedMesh2.obj
 0002:0002c950       ??$OP_NEW@VFullyConnectedMesh2@VENet@@@VENet@@YAPAVFullyConnectedMesh2@0@PBDI@Z 004e3950 f i FullyConnectedMesh2.obj
 0002:0002ca30       ??$OP_NEW_ARRAY@PAUVerifiedJoinInProgress@FullyConnectedMesh2@VENet@@@VENet@@YAPAPAUVerifiedJoinInProgress@FullyConnectedMesh2@0@HPBDI@Z 004e3a30 f i FullyConnectedMesh2.obj
 0002:0002cab0       ??$OP_NEW_ARRAY@UFCM2Participant@FullyConnectedMesh2@VENet@@@VENet@@YAPAUFCM2Participant@FullyConnectedMesh2@0@HPBDI@Z 004e3ab0 f i FullyConnectedMesh2.obj
 0002:0002cbe0       ??$OP_NEW_ARRAY@USystemAddress@VENet@@@VENet@@YAPAUSystemAddress@0@HPBDI@Z 004e3be0 f i FullyConnectedMesh2.obj
 0002:0002cd10       ??$OP_NEW_ARRAY@UVerifiedJoinInProgressMember@FullyConnectedMesh2@VENet@@@VENet@@YAPAUVerifiedJoinInProgressMember@FullyConnectedMesh2@0@HPBDI@Z 004e3d10 f i FullyConnectedMesh2.obj
 0002:0002ce40       ??$Read@_J@BitStream@VENet@@QAE_NAA_J@Z 004e3e40 f i FullyConnectedMesh2.obj
 0002:0002cf60       ??$ReadCasted@EW4JoinInProgressState@FullyConnectedMesh2@VENet@@@BitStream@VENet@@QAE_NAAW4JoinInProgressState@FullyConnectedMesh2@1@@Z 004e3f60 f i FullyConnectedMesh2.obj
 0002:0002d000       ??$Write@_J@BitStream@VENet@@QAEXAB_J@Z 004e4000 f i FullyConnectedMesh2.obj
 0002:0002d110       ??$WriteCasted@EW4JoinInProgressState@FullyConnectedMesh2@VENet@@@BitStream@VENet@@QAEXABW4JoinInProgressState@FullyConnectedMesh2@1@@Z 004e4110 f i FullyConnectedMesh2.obj
 0002:0002d1b0       ??$WriteCasted@GI@BitStream@VENet@@QAEXABI@Z 004e41b0 f i FullyConnectedMesh2.obj
 0002:0002d250       ??0?$List@PAUVerifiedJoinInProgress@FullyConnectedMesh2@VENet@@@DataStructures@@QAE@XZ 004e4250 f i FullyConnectedMesh2.obj
 0002:0002d2b0       ??0?$List@UFCM2Participant@FullyConnectedMesh2@VENet@@@DataStructures@@QAE@XZ 004e42b0 f i FullyConnectedMesh2.obj
 0002:0002d310       ??0?$List@UVerifiedJoinInProgressMember@FullyConnectedMesh2@VENet@@@DataStructures@@QAE@XZ 004e4310 f i FullyConnectedMesh2.obj
 0002:0002d370       ??0?$OrderedList@UFCM2Participant@FullyConnectedMesh2@VENet@@U123@$1?FCM2ParticipantComp@@YAHABU123@0@Z@DataStructures@@QAE@XZ 004e4370 f i FullyConnectedMesh2.obj
 0002:0002d3d0       ??0AddressOrGUID@VENet@@QAE@ABU01@@Z 004e43d0 f i FullyConnectedMesh2.obj
 0002:0002d460       ??0FCM2Participant@FullyConnectedMesh2@VENet@@QAE@XZ 004e4460 f i FullyConnectedMesh2.obj
 0002:0002d4c0       ??0FullyConnectedMesh2@VENet@@QAE@XZ 004e44c0 f   FullyConnectedMesh2.obj
 0002:0002d620       ??0VerifiedJoinInProgress@FullyConnectedMesh2@VENet@@QAE@XZ 004e4620 f i FullyConnectedMesh2.obj
 0002:0002d680       ??0VerifiedJoinInProgressMember@FullyConnectedMesh2@VENet@@QAE@XZ 004e4680 f i FullyConnectedMesh2.obj
 0002:0002d6e0       ??1?$List@PAUVerifiedJoinInProgress@FullyConnectedMesh2@VENet@@@DataStructures@@QAE@XZ 004e46e0 f i FullyConnectedMesh2.obj
 0002:0002d750       ??1?$List@UFCM2Participant@FullyConnectedMesh2@VENet@@@DataStructures@@QAE@XZ 004e4750 f i FullyConnectedMesh2.obj
 0002:0002d7c0       ??1?$List@UVerifiedJoinInProgressMember@FullyConnectedMesh2@VENet@@@DataStructures@@QAE@XZ 004e47c0 f i FullyConnectedMesh2.obj
 0002:0002d830       ??1?$OrderedList@UFCM2Participant@FullyConnectedMesh2@VENet@@U123@$1?FCM2ParticipantComp@@YAHABU123@0@Z@DataStructures@@QAE@XZ 004e4830 f i FullyConnectedMesh2.obj
 0002:0002d8e0       ??1FullyConnectedMesh2@VENet@@UAE@XZ 004e48e0 f   FullyConnectedMesh2.obj
 0002:0002d9d0       ??1VerifiedJoinInProgress@FullyConnectedMesh2@VENet@@QAE@XZ 004e49d0 f i FullyConnectedMesh2.obj
 0002:0002da30       ??4FCM2Participant@FullyConnectedMesh2@VENet@@QAEAAU012@ABU012@@Z 004e4a30 f i FullyConnectedMesh2.obj
 0002:0002dab0       ??4VerifiedJoinInProgressMember@FullyConnectedMesh2@VENet@@QAEAAU012@ABU012@@Z 004e4ab0 f i FullyConnectedMesh2.obj
 0002:0002db40       ??A?$List@PAUVerifiedJoinInProgress@FullyConnectedMesh2@VENet@@@DataStructures@@QBEAAPAUVerifiedJoinInProgress@FullyConnectedMesh2@VENet@@I@Z 004e4b40 f i FullyConnectedMesh2.obj
 0002:0002dbe0       ??A?$List@UFCM2Participant@FullyConnectedMesh2@VENet@@@DataStructures@@QBEAAUFCM2Participant@FullyConnectedMesh2@VENet@@I@Z 004e4be0 f i FullyConnectedMesh2.obj
 0002:0002dc80       ??A?$List@UVerifiedJoinInProgressMember@FullyConnectedMesh2@VENet@@@DataStructures@@QBEAAUVerifiedJoinInProgressMember@FullyConnectedMesh2@VENet@@I@Z 004e4c80 f i FullyConnectedMesh2.obj
 0002:0002dd20       ??A?$OrderedList@UFCM2Participant@FullyConnectedMesh2@VENet@@U123@$1?FCM2ParticipantComp@@YAHABU123@0@Z@DataStructures@@QBEAAUFCM2Participant@FullyConnectedMesh2@VENet@@I@Z 004e4d20 f i FullyConnectedMesh2.obj
 0002:0002dd80       ??_EFullyConnectedMesh2@VENet@@UAEPAXI@Z 004e4d80 f i FullyConnectedMesh2.obj
 0002:0002dd80       ??_GFullyConnectedMesh2@VENet@@UAEPAXI@Z 004e4d80 f i FullyConnectedMesh2.obj
 0002:0002ddf0       ??_GVerifiedJoinInProgress@FullyConnectedMesh2@VENet@@QAEPAXI@Z 004e4df0 f i FullyConnectedMesh2.obj
 0002:0002de60       ?AddParticipant@FullyConnectedMesh2@VENet@@QAEXUVENetGUID@2@@Z 004e4e60 f   FullyConnectedMesh2.obj
 0002:0002df80       ?AddParticipantInternal@FullyConnectedMesh2@VENet@@IAE_NUVENetGUID@2@_J@Z 004e4f80 f   FullyConnectedMesh2.obj
 0002:0002e110       ?AssignOurFCMGuid@FullyConnectedMesh2@VENet@@IAEXXZ 004e5110 f   FullyConnectedMesh2.obj
 0002:0002e290       ?CalculateAndPushHost@FullyConnectedMesh2@VENet@@IAEXXZ 004e5290 f   FullyConnectedMesh2.obj
 0002:0002e3e0       ?CalculateHost@FullyConnectedMesh2@VENet@@IAEXPAUVENetGUID@2@PA_J@Z 004e53e0 f   FullyConnectedMesh2.obj
 0002:0002e6b0       ?CategorizeVJIP@FullyConnectedMesh2@VENet@@IAEXPAUVerifiedJoinInProgress@12@AAV?$List@UVENetGUID@VENet@@@DataStructures@@1111@Z 004e56b0 f   FullyConnectedMesh2.obj
 0002:0002e960       ?Clear@?$List@PAUVerifiedJoinInProgress@FullyConnectedMesh2@VENet@@@DataStructures@@QAEX_NPBDI@Z 004e5960 f i FullyConnectedMesh2.obj
 0002:0002ea10       ?Clear@?$List@UFCM2Participant@FullyConnectedMesh2@VENet@@@DataStructures@@QAEX_NPBDI@Z 004e5a10 f i FullyConnectedMesh2.obj
 0002:0002eac0       ?Clear@?$List@USystemAddress@VENet@@@DataStructures@@QAEX_NPBDI@Z 004e5ac0 f i FullyConnectedMesh2.obj
 0002:0002eb70       ?Clear@?$OrderedList@UFCM2Participant@FullyConnectedMesh2@VENet@@U123@$1?FCM2ParticipantComp@@YAHABU123@0@Z@DataStructures@@QAEX_NPBDI@Z 004e5b70 f i FullyConnectedMesh2.obj
 0002:0002ebe0       ?Clear@FullyConnectedMesh2@VENet@@QAEXXZ 004e5be0 f   FullyConnectedMesh2.obj
 0002:0002ed00       ?ConnectToRemoteNewIncomingConnections@FullyConnectedMesh2@VENet@@QAEXPAUPacket@2@@Z 004e5d00 f   FullyConnectedMesh2.obj
 0002:0002efa0       ?DecomposeJoinCapable@FullyConnectedMesh2@VENet@@IAEXPAUPacket@2@PAUVerifiedJoinInProgress@12@@Z 004e5fa0 f   FullyConnectedMesh2.obj
 0002:0002f1c0       ?DestroyInstance@FullyConnectedMesh2@VENet@@SAXPAV12@@Z 004e61c0 f   FullyConnectedMesh2.obj
 0002:0002f220       ?FCM2ParticipantComp@@YAHABUFCM2Participant@FullyConnectedMesh2@VENet@@0@Z 004e6220 f   FullyConnectedMesh2.obj
 0002:0002f2f0       ?GetConnectedHost@FullyConnectedMesh2@VENet@@QBE?AUVENetGUID@2@XZ 004e62f0 f   FullyConnectedMesh2.obj
 0002:0002f3b0       ?GetConnectedHostAddr@FullyConnectedMesh2@VENet@@QBE?AUSystemAddress@2@XZ 004e63b0 f   FullyConnectedMesh2.obj
 0002:0002f4c0       ?GetElapsedRuntime@FullyConnectedMesh2@VENet@@QAE_KXZ 004e64c0 f   FullyConnectedMesh2.obj
 0002:0002f570       ?GetHostOrder@FullyConnectedMesh2@VENet@@QAEXAAV?$List@UVENetGUID@VENet@@@DataStructures@@@Z 004e6570 f   FullyConnectedMesh2.obj
 0002:0002f860       ?GetHostSystem@FullyConnectedMesh2@VENet@@QBE?AUVENetGUID@2@XZ 004e6860 f   FullyConnectedMesh2.obj
 0002:0002f980       ?GetIndexFromKey@?$OrderedList@UFCM2Participant@FullyConnectedMesh2@VENet@@U123@$1?FCM2ParticipantComp@@YAHABU123@0@Z@DataStructures@@QBEIABUFCM2Participant@FullyConnectedMesh2@VENet@@PA_NP6AH00@Z@Z 004e6980 f i FullyConnectedMesh2.obj
 0002:0002fac0       ?GetInstance@FullyConnectedMesh2@VENet@@SAPAV12@XZ 004e6ac0 f   FullyConnectedMesh2.obj
 0002:0002fb20       ?GetJoinsInProgressIndex@FullyConnectedMesh2@VENet@@IBEIUVENetGUID@2@@Z 004e6b20 f   FullyConnectedMesh2.obj
 0002:0002fbd0       ?GetParticipantCount@FullyConnectedMesh2@VENet@@QBEIXZ 004e6bd0 f   FullyConnectedMesh2.obj
 0002:0002fc30       ?GetParticipantCount@FullyConnectedMesh2@VENet@@QBEXPAI@Z 004e6c30 f   FullyConnectedMesh2.obj
 0002:0002fc90       ?GetParticipantList@FullyConnectedMesh2@VENet@@QAEXAAV?$List@UVENetGUID@VENet@@@DataStructures@@@Z 004e6c90 f   FullyConnectedMesh2.obj
 0002:0002fd60       ?GetTotalConnectionCount@FullyConnectedMesh2@VENet@@QBEIXZ 004e6d60 f   FullyConnectedMesh2.obj
 0002:0002fda0       ?GetVerifiedJoinAcceptedAdditionalData@FullyConnectedMesh2@VENet@@UAEXPAUPacket@2@PA_NAAV?$List@UVENetGUID@VENet@@@DataStructures@@PAVBitStream@2@@Z 004e6da0 f   FullyConnectedMesh2.obj
 0002:00030120       ?GetVerifiedJoinInProgressMemberIndex@FullyConnectedMesh2@VENet@@IAEIUAddressOrGUID@2@PAUVerifiedJoinInProgress@12@@Z 004e7120 f   FullyConnectedMesh2.obj
 0002:00030230       ?GetVerifiedJoinRejectedAdditionalData@FullyConnectedMesh2@VENet@@UAEXPAUPacket@2@PAVBitStream@2@@Z 004e7230 f   FullyConnectedMesh2.obj
 0002:00030370       ?GetVerifiedJoinRequiredProcessingList@FullyConnectedMesh2@VENet@@UAEXUVENetGUID@2@AAV?$List@USystemAddress@VENet@@@DataStructures@@AAV?$List@UVENetGUID@VENet@@@5@@Z 004e7370 f   FullyConnectedMesh2.obj
 0002:00030500       ?HasParticipant@FullyConnectedMesh2@VENet@@QAE_NUVENetGUID@2@@Z 004e7500 f   FullyConnectedMesh2.obj
 0002:000305b0       ?IncrementTotalConnectionCount@FullyConnectedMesh2@VENet@@IAEXI@Z 004e75b0 f   FullyConnectedMesh2.obj
 0002:00030600       ?Insert@?$List@PAUVerifiedJoinInProgress@FullyConnectedMesh2@VENet@@@DataStructures@@QAEXABQAUVerifiedJoinInProgress@FullyConnectedMesh2@VENet@@PBDI@Z 004e7600 f i FullyConnectedMesh2.obj
 0002:00030750       ?Insert@?$List@UFCM2Participant@FullyConnectedMesh2@VENet@@@DataStructures@@QAEXABUFCM2Participant@FullyConnectedMesh2@VENet@@IPBDI@Z 004e7750 f i FullyConnectedMesh2.obj
 0002:00030930       ?Insert@?$List@UFCM2Participant@FullyConnectedMesh2@VENet@@@DataStructures@@QAEXABUFCM2Participant@FullyConnectedMesh2@VENet@@PBDI@Z 004e7930 f i FullyConnectedMesh2.obj
 0002:00030a80       ?Insert@?$List@USystemAddress@VENet@@@DataStructures@@QAEXABUSystemAddress@VENet@@PBDI@Z 004e7a80 f i FullyConnectedMesh2.obj
 0002:00030bd0       ?Insert@?$List@UVerifiedJoinInProgressMember@FullyConnectedMesh2@VENet@@@DataStructures@@QAEXABUVerifiedJoinInProgressMember@FullyConnectedMesh2@VENet@@PBDI@Z 004e7bd0 f i FullyConnectedMesh2.obj
 0002:00030d20       ?Insert@?$OrderedList@UFCM2Participant@FullyConnectedMesh2@VENet@@U123@$1?FCM2ParticipantComp@@YAHABU123@0@Z@DataStructures@@QAEIABUFCM2Participant@FullyConnectedMesh2@VENet@@0_NPBDIP6AH00@Z@Z 004e7d20 f i FullyConnectedMesh2.obj
 0002:00030e70       ?IsConnectedHost@FullyConnectedMesh2@VENet@@QBE_NXZ 004e7e70 f   FullyConnectedMesh2.obj
 0002:00030f40       ?IsHostSystem@FullyConnectedMesh2@VENet@@QBE_NXZ 004e7f40 f   FullyConnectedMesh2.obj
 0002:00031010       ?OnAttach@FullyConnectedMesh2@VENet@@UAEXXZ 004e8010 f   FullyConnectedMesh2.obj
 0002:000310a0       ?OnClosedConnection@FullyConnectedMesh2@VENet@@UAEXABUSystemAddress@2@UVENetGUID@2@W4PI2_LostConnectionReason@2@@Z 004e80a0 f   FullyConnectedMesh2.obj
 0002:00031430       ?OnFailedConnectionAttempt@FullyConnectedMesh2@VENet@@UAEXPAUPacket@2@W4PI2_FailedConnectionAttemptReason@2@@Z 004e8430 f   FullyConnectedMesh2.obj
 0002:00031520       ?OnInformFCMGuid@FullyConnectedMesh2@VENet@@IAEXPAUPacket@2@@Z 004e8520 f   FullyConnectedMesh2.obj
 0002:00031980       ?OnNewConnection@FullyConnectedMesh2@VENet@@UAEXABUSystemAddress@2@UVENetGUID@2@_N@Z 004e8980 f   FullyConnectedMesh2.obj
 0002:00031a50       ?OnRakPeerShutdown@FullyConnectedMesh2@VENet@@UAEXXZ 004e8a50 f   FullyConnectedMesh2.obj
 0002:00031ac0       ?OnRakPeerStartup@FullyConnectedMesh2@VENet@@UAEXXZ 004e8ac0 f   FullyConnectedMesh2.obj
 0002:00031b20       ?OnReceive@FullyConnectedMesh2@VENet@@UAE?AW4PluginReceiveResult@2@PAUPacket@2@@Z 004e8b20 f   FullyConnectedMesh2.obj
 0002:00031fa0       ?OnRequestFCMGuid@FullyConnectedMesh2@VENet@@IAEXPAUPacket@2@@Z 004e8fa0 f   FullyConnectedMesh2.obj
 0002:000324e0       ?OnRespondConnectionCount@FullyConnectedMesh2@VENet@@IAEXPAUPacket@2@@Z 004e94e0 f   FullyConnectedMesh2.obj
 0002:000327a0       ?OnUpdateMinTotalConnectionCount@FullyConnectedMesh2@VENet@@IAEXPAUPacket@2@@Z 004e97a0 f   FullyConnectedMesh2.obj
 0002:00032900       ?OnVerifiedJoinAccepted@FullyConnectedMesh2@VENet@@MAEXPAUPacket@2@@Z 004e9900 f   FullyConnectedMesh2.obj
 0002:00032e00       ?OnVerifiedJoinCapable@FullyConnectedMesh2@VENet@@IAE?AW4PluginReceiveResult@2@PAUPacket@2@@Z 004e9e00 f   FullyConnectedMesh2.obj
 0002:000334d0       ?OnVerifiedJoinFailed@FullyConnectedMesh2@VENet@@MAEXUVENetGUID@2@@Z 004ea4d0 f   FullyConnectedMesh2.obj
 0002:00033640       ?OnVerifiedJoinRejected@FullyConnectedMesh2@VENet@@MAEXPAUPacket@2@@Z 004ea640 f   FullyConnectedMesh2.obj
 0002:000336d0       ?OnVerifiedJoinStart@FullyConnectedMesh2@VENet@@IAE?AW4PluginReceiveResult@2@PAUPacket@2@@Z 004ea6d0 f   FullyConnectedMesh2.obj
 0002:00033dc0       ?ParticipantListComplete@FullyConnectedMesh2@VENet@@IAE_NXZ 004eadc0 f   FullyConnectedMesh2.obj
 0002:00033e70       ?Pop@?$List@UFCM2Participant@FullyConnectedMesh2@VENet@@@DataStructures@@QAEAAUFCM2Participant@FullyConnectedMesh2@VENet@@XZ 004eae70 f i FullyConnectedMesh2.obj
 0002:00033f10       ?ProcessVerifiedJoinInProgressIfCompleted@FullyConnectedMesh2@VENet@@IAE_NPAUVerifiedJoinInProgress@12@@Z 004eaf10 f   FullyConnectedMesh2.obj
 0002:000341b0       ?Push@?$List@PAUVerifiedJoinInProgress@FullyConnectedMesh2@VENet@@@DataStructures@@QAEXABQAUVerifiedJoinInProgress@FullyConnectedMesh2@VENet@@PBDI@Z 004eb1b0 f i FullyConnectedMesh2.obj
 0002:00034210       ?Push@?$List@UFCM2Participant@FullyConnectedMesh2@VENet@@@DataStructures@@QAEXABUFCM2Participant@FullyConnectedMesh2@VENet@@PBDI@Z 004eb210 f i FullyConnectedMesh2.obj
 0002:00034270       ?Push@?$List@USystemAddress@VENet@@@DataStructures@@QAEXABUSystemAddress@VENet@@PBDI@Z 004eb270 f i FullyConnectedMesh2.obj
 0002:000342d0       ?Push@?$List@UVENetGUID@VENet@@@DataStructures@@QAEXABUVENetGUID@VENet@@PBDI@Z 004eb2d0 f i FullyConnectedMesh2.obj
 0002:00034330       ?Push@?$List@UVerifiedJoinInProgressMember@FullyConnectedMesh2@VENet@@@DataStructures@@QAEXABUVerifiedJoinInProgressMember@FullyConnectedMesh2@VENet@@PBDI@Z 004eb330 f i FullyConnectedMesh2.obj
 0002:00034390       ?PushNewHost@FullyConnectedMesh2@VENet@@IAEXABUVENetGUID@2@U32@@Z 004eb390 f   FullyConnectedMesh2.obj
 0002:000345b0       ?ReadVerifiedJoinInProgressMember@FullyConnectedMesh2@VENet@@IAEXPAVBitStream@2@PAUVerifiedJoinInProgressMember@12@@Z 004eb5b0 f   FullyConnectedMesh2.obj
 0002:00034690       ?RemoveAtIndex@?$List@PAUVerifiedJoinInProgress@FullyConnectedMesh2@VENet@@@DataStructures@@QAEXI@Z 004eb690 f i FullyConnectedMesh2.obj
 0002:00034780       ?RemoveFromEnd@?$List@PAUVerifiedJoinInProgress@FullyConnectedMesh2@VENet@@@DataStructures@@QAEXI@Z 004eb780 f i FullyConnectedMesh2.obj
 0002:00034820       ?ResetHostCalculation@FullyConnectedMesh2@VENet@@QAEXXZ 004eb820 f   FullyConnectedMesh2.obj
 0002:00034920       ?RespondOnVerifiedJoinCapable@FullyConnectedMesh2@VENet@@UAEXPAUPacket@2@_NPAVBitStream@2@@Z 004eb920 f   FullyConnectedMesh2.obj
 0002:00035250       ?SendConnectionCountResponse@FullyConnectedMesh2@VENet@@IAEXUSystemAddress@2@I@Z 004ec250 f   FullyConnectedMesh2.obj
 0002:000353c0       ?SendFCMGuidRequest@FullyConnectedMesh2@VENet@@IAEXUVENetGUID@2@@Z 004ec3c0 f   FullyConnectedMesh2.obj
 0002:00035660       ?SendOurFCMGuid@FullyConnectedMesh2@VENet@@IAEXUSystemAddress@2@@Z 004ec660 f   FullyConnectedMesh2.obj
 0002:00035840       ?SetAutoparticipateConnections@FullyConnectedMesh2@VENet@@QAEX_N@Z 004ec840 f   FullyConnectedMesh2.obj
 0002:00035890       ?SetConnectOnNewRemoteConnection@FullyConnectedMesh2@VENet@@QAEX_NVVEString@2@@Z 004ec890 f   FullyConnectedMesh2.obj
 0002:00035950       ?Size@?$List@PAUVerifiedJoinInProgress@FullyConnectedMesh2@VENet@@@DataStructures@@QBEIXZ 004ec950 f i FullyConnectedMesh2.obj
 0002:00035990       ?Size@?$List@UFCM2Participant@FullyConnectedMesh2@VENet@@@DataStructures@@QBEIXZ 004ec990 f i FullyConnectedMesh2.obj
 0002:000359d0       ?Size@?$List@UVENetGUID@VENet@@@DataStructures@@QBEIXZ 004ec9d0 f i FullyConnectedMesh2.obj
 0002:00035a10       ?Size@?$List@UVerifiedJoinInProgressMember@FullyConnectedMesh2@VENet@@@DataStructures@@QBEIXZ 004eca10 f i FullyConnectedMesh2.obj
 0002:00035a50       ?Size@?$OrderedList@UFCM2Participant@FullyConnectedMesh2@VENet@@U123@$1?FCM2ParticipantComp@@YAHABU123@0@Z@DataStructures@@QBEIXZ 004eca50 f i FullyConnectedMesh2.obj
 0002:00035aa0       ?StartVerifiedJoin@FullyConnectedMesh2@VENet@@UAEXUVENetGUID@2@@Z 004ecaa0 f   FullyConnectedMesh2.obj
 0002:00035de0       ?UpdateVerifiedJoinInProgressMember@FullyConnectedMesh2@VENet@@IAEXUAddressOrGUID@2@UVENetGUID@2@W4JoinInProgressState@12@@Z 004ecde0 f   FullyConnectedMesh2.obj
 0002:00035f70       ?size@VENetGUID@VENet@@SAHXZ 004ecf70 f i FullyConnectedMesh2.obj
 0002:00035fb0       _Gets                      004ecfb0 f   Gets.obj
 0002:00036100       ?GetTime@VENet@@YA_KXZ     004ed100 f   GetTime.obj
 0002:00036160       ?GetTimeMS@VENet@@YAIXZ    004ed160 f   GetTime.obj
 0002:000361c0       ?GetTimeUS@VENet@@YA_KXZ   004ed1c0 f   GetTime.obj
 0002:00036210       ?GetTimeUS_Windows@@YA_KXZ 004ed210 f   GetTime.obj
 0002:000363e0       ?GreaterThan@VENet@@YA_N_K0@Z 004ed3e0 f   GetTime.obj
 0002:000364a0       ?LessThan@VENet@@YA_N_K0@Z 004ed4a0 f   GetTime.obj
 0002:00036560       ?gettimeofday@@YAHPAUtimeval@@PAUtimezone@@@Z 004ed560 f   gettimeofday.obj
 0002:00036740       ??$OP_DELETE_ARRAY@PAX@VENet@@YAXPAPAXPBDI@Z 004ed740 f i GridSectorizer.obj
 0002:000367a0       ??$OP_DELETE_ARRAY@V?$List@PAX@DataStructures@@@VENet@@YAXPAV?$List@PAX@DataStructures@@PBDI@Z 004ed7a0 f i GridSectorizer.obj
 0002:00036830       ??$OP_NEW_ARRAY@PAX@VENet@@YAPAPAXHPBDI@Z 004ed830 f i GridSectorizer.obj
 0002:000368b0       ??$OP_NEW_ARRAY@V?$List@PAX@DataStructures@@@VENet@@YAPAV?$List@PAX@DataStructures@@HPBDI@Z 004ed8b0 f i GridSectorizer.obj
 0002:00036a10       ??0?$List@PAX@DataStructures@@QAE@XZ 004eda10 f i GridSectorizer.obj
 0002:00036a70       ??0GridSectorizer@@QAE@XZ  004eda70 f   GridSectorizer.obj
 0002:00036ac0       ??1?$List@PAX@DataStructures@@QAE@XZ 004edac0 f i GridSectorizer.obj
 0002:00036b30       ??1GridSectorizer@@QAE@XZ  004edb30 f   GridSectorizer.obj
 0002:00036bb0       ??A?$List@PAX@DataStructures@@QBEAAPAXI@Z 004edbb0 f i GridSectorizer.obj
 0002:00036c50       ??_E?$List@PAX@DataStructures@@QAEPAXI@Z 004edc50 f i GridSectorizer.obj
 0002:00036d10       ?AddEntry@GridSectorizer@@QAEXPAXMMMM@Z 004edd10 f   GridSectorizer.obj
 0002:00036ed0       ?Clear@?$List@PAX@DataStructures@@QAEX_NPBDI@Z 004eded0 f i GridSectorizer.obj
 0002:00036f80       ?Clear@GridSectorizer@@QAEXXZ 004edf80 f   GridSectorizer.obj
 0002:00037030       ?GetEntries@GridSectorizer@@QAEXAAV?$List@PAX@DataStructures@@MMMM@Z 004ee030 f   GridSectorizer.obj
 0002:000371d0       ?Init@GridSectorizer@@QAEXMMMMMM@Z 004ee1d0 f   GridSectorizer.obj
 0002:00037400       ?Insert@?$List@PAX@DataStructures@@QAEXABQAXPBDI@Z 004ee400 f i GridSectorizer.obj
 0002:00037550       ?PositionCrossesCells@GridSectorizer@@IBE_NMMMM@Z 004ee550 f   GridSectorizer.obj
 0002:00037610       ?Size@?$List@PAX@DataStructures@@QBEIXZ 004ee610 f i GridSectorizer.obj
 0002:00037650       ?WorldToCellX@GridSectorizer@@IBEHM@Z 004ee650 f   GridSectorizer.obj
 0002:000376b0       ?WorldToCellXOffsetAndClamped@GridSectorizer@@IBEHM@Z 004ee6b0 f   GridSectorizer.obj
 0002:00037780       ?WorldToCellY@GridSectorizer@@IBEHM@Z 004ee780 f   GridSectorizer.obj
 0002:000377e0       ?WorldToCellYOffsetAndClamped@GridSectorizer@@IBEHM@Z 004ee7e0 f   GridSectorizer.obj
 0002:000378b0       ?ceil@@YAMM@Z              004ee8b0 f i GridSectorizer.obj
 0002:00037910       _ceilf                     004ee910 f i GridSectorizer.obj
 0002:000379a0       ??$OP_DELETE@VHTTPConnection@VENet@@@VENet@@YAXPAVHTTPConnection@0@PBDI@Z 004ee9a0 f i HTTPConnection.obj
 0002:00037a40       ??$OP_DELETE_ARRAY@UBadResponse@HTTPConnection@VENet@@@VENet@@YAXPAUBadResponse@HTTPConnection@0@PBDI@Z 004eea40 f i HTTPConnection.obj
 0002:00037ad0       ??$OP_DELETE_ARRAY@UOutgoingCommand@HTTPConnection@VENet@@@VENet@@YAXPAUOutgoingCommand@HTTPConnection@0@PBDI@Z 004eead0 f i HTTPConnection.obj
 0002:00037b60       ??$OP_DELETE_ARRAY@VVEString@VENet@@@VENet@@YAXPAVVEString@0@PBDI@Z 004eeb60 f i HTTPConnection.obj
 0002:00037bf0       ??$OP_NEW@VHTTPConnection@VENet@@@VENet@@YAPAVHTTPConnection@0@PBDI@Z 004eebf0 f i HTTPConnection.obj
 0002:00037cd0       ??$OP_NEW_ARRAY@UBadResponse@HTTPConnection@VENet@@@VENet@@YAPAUBadResponse@HTTPConnection@0@HPBDI@Z 004eecd0 f i HTTPConnection.obj
 0002:00037e30       ??$OP_NEW_ARRAY@UOutgoingCommand@HTTPConnection@VENet@@@VENet@@YAPAUOutgoingCommand@HTTPConnection@0@HPBDI@Z 004eee30 f i HTTPConnection.obj
 0002:00037f90       ??$OP_NEW_ARRAY@VVEString@VENet@@@VENet@@YAPAVVEString@0@HPBDI@Z 004eef90 f i HTTPConnection.obj
 0002:000380f0       ??0?$Queue@UBadResponse@HTTPConnection@VENet@@@DataStructures@@QAE@XZ 004ef0f0 f i HTTPConnection.obj
 0002:00038160       ??0?$Queue@UOutgoingCommand@HTTPConnection@VENet@@@DataStructures@@QAE@XZ 004ef160 f i HTTPConnection.obj
 0002:000381d0       ??0?$Queue@VVEString@VENet@@@DataStructures@@QAE@XZ 004ef1d0 f i HTTPConnection.obj
 0002:00038240       ??0BadResponse@HTTPConnection@VENet@@QAE@ABU012@@Z 004ef240 f i HTTPConnection.obj
 0002:000382b0       ??0BadResponse@HTTPConnection@VENet@@QAE@PBEH@Z 004ef2b0 f i HTTPConnection.obj
 0002:00038320       ??0BadResponse@HTTPConnection@VENet@@QAE@XZ 004ef320 f i HTTPConnection.obj
 0002:00038380       ??0HTTPConnection@VENet@@QAE@XZ 004ef380 f   HTTPConnection.obj
 0002:000384b0       ??0OutgoingCommand@HTTPConnection@VENet@@QAE@ABU012@@Z 004ef4b0 f i HTTPConnection.obj
 0002:000385a0       ??0OutgoingCommand@HTTPConnection@VENet@@QAE@XZ 004ef5a0 f i HTTPConnection.obj
 0002:00038660       ??1?$Queue@UBadResponse@HTTPConnection@VENet@@@DataStructures@@QAE@XZ 004ef660 f i HTTPConnection.obj
 0002:000386d0       ??1?$Queue@UOutgoingCommand@HTTPConnection@VENet@@@DataStructures@@QAE@XZ 004ef6d0 f i HTTPConnection.obj
 0002:00038740       ??1?$Queue@VVEString@VENet@@@DataStructures@@QAE@XZ 004ef740 f i HTTPConnection.obj
 0002:000387b0       ??1BadResponse@HTTPConnection@VENet@@QAE@XZ 004ef7b0 f i HTTPConnection.obj
 0002:00038800       ??1HTTPConnection@VENet@@UAE@XZ 004ef800 f   HTTPConnection.obj
 0002:00038950       ??1OutgoingCommand@HTTPConnection@VENet@@QAE@XZ 004ef950 f i HTTPConnection.obj
 0002:00038a10       ??4BadResponse@HTTPConnection@VENet@@QAEAAU012@ABU012@@Z 004efa10 f i HTTPConnection.obj
 0002:00038a80       ??4OutgoingCommand@HTTPConnection@VENet@@QAEAAU012@ABU012@@Z 004efa80 f i HTTPConnection.obj
 0002:00038b20       ??_EBadResponse@HTTPConnection@VENet@@QAEPAXI@Z 004efb20 f i HTTPConnection.obj
 0002:00038be0       ??_EOutgoingCommand@HTTPConnection@VENet@@QAEPAXI@Z 004efbe0 f i HTTPConnection.obj
 0002:00038ca0       ??_EVEString@VENet@@QAEPAXI@Z 004efca0 f i HTTPConnection.obj
 0002:00038d60       ??_EHTTPConnection@VENet@@UAEPAXI@Z 004efd60 f i HTTPConnection.obj
 0002:00038d60       ??_GHTTPConnection@VENet@@UAEPAXI@Z 004efd60 f i HTTPConnection.obj
 0002:00038dd0       ?CloseConnection@HTTPConnection@VENet@@AAEXXZ 004efdd0 f   HTTPConnection.obj
 0002:00038e20       ?DestroyInstance@HTTPConnection@VENet@@SAXPAV12@@Z 004efe20 f   HTTPConnection.obj
 0002:00038e80       ?Get@HTTPConnection@VENet@@QAEXPBD@Z 004efe80 f   HTTPConnection.obj
 0002:00038f90       ?GetInstance@HTTPConnection@VENet@@SAPAV12@XZ 004eff90 f   HTTPConnection.obj
 0002:00038ff0       ?GetServerAddress@HTTPConnection@VENet@@QBE?AUSystemAddress@2@XZ 004efff0 f   HTTPConnection.obj
 0002:00039060       ?GetState@HTTPConnection@VENet@@QBEHXZ 004f0060 f   HTTPConnection.obj
 0002:000390a0       ?HasBadResponse@HTTPConnection@VENet@@QAE_NPAHPAVVEString@2@@Z 004f00a0 f   HTTPConnection.obj
 0002:000391f0       ?HasRead@HTTPConnection@VENet@@QBE_NXZ 004f01f0 f   HTTPConnection.obj
 0002:00039270       ?Init@HTTPConnection@VENet@@QAEXPAVTCPInterface@2@PBDG@Z 004f0270 f   HTTPConnection.obj
 0002:000392f0       ?IsBusy@HTTPConnection@VENet@@QBE_NXZ 004f02f0 f   HTTPConnection.obj
 0002:00039360       ?IsEmpty@?$Queue@UBadResponse@HTTPConnection@VENet@@@DataStructures@@QBE_NXZ 004f0360 f i HTTPConnection.obj
 0002:000393d0       ?IsEmpty@?$Queue@UOutgoingCommand@HTTPConnection@VENet@@@DataStructures@@QBE_NXZ 004f03d0 f i HTTPConnection.obj
 0002:00039440       ?IsEmpty@?$Queue@VVEString@VENet@@@DataStructures@@QBE_NXZ 004f0440 f i HTTPConnection.obj
 0002:000394b0       ?Peek@?$Queue@UBadResponse@HTTPConnection@VENet@@@DataStructures@@QBE?AUBadResponse@HTTPConnection@VENet@@XZ 004f04b0 f i HTTPConnection.obj
 0002:00039580       ?Pop@?$Queue@UBadResponse@HTTPConnection@VENet@@@DataStructures@@QAE?AUBadResponse@HTTPConnection@VENet@@XZ 004f0580 f i HTTPConnection.obj
 0002:000396d0       ?Pop@?$Queue@UOutgoingCommand@HTTPConnection@VENet@@@DataStructures@@QAE?AUOutgoingCommand@HTTPConnection@VENet@@XZ 004f06d0 f i HTTPConnection.obj
 0002:00039820       ?Pop@?$Queue@VVEString@VENet@@@DataStructures@@QAE?AVVEString@VENet@@XZ 004f0820 f i HTTPConnection.obj
 0002:00039970       ?Post@HTTPConnection@VENet@@QAEXPBD00@Z 004f0970 f   HTTPConnection.obj
 0002:00039aa0       ?ProcessTCPPacket@HTTPConnection@VENet@@QAEXPAUPacket@2@@Z 004f0aa0 f   HTTPConnection.obj
 0002:00039e10       ?Push@?$Queue@UBadResponse@HTTPConnection@VENet@@@DataStructures@@QAEXABUBadResponse@HTTPConnection@VENet@@PBDI@Z 004f0e10 f i HTTPConnection.obj
 0002:0003a050       ?Push@?$Queue@UOutgoingCommand@HTTPConnection@VENet@@@DataStructures@@QAEXABUOutgoingCommand@HTTPConnection@VENet@@PBDI@Z 004f1050 f i HTTPConnection.obj
 0002:0003a290       ?Push@?$Queue@VVEString@VENet@@@DataStructures@@QAEXABVVEString@VENet@@PBDI@Z 004f1290 f i HTTPConnection.obj
 0002:0003a4d0       ?Read@HTTPConnection@VENet@@QAE?AVVEString@2@XZ 004f14d0 f   HTTPConnection.obj
 0002:0003a6b0       ?Update@HTTPConnection@VENet@@QAEXXZ 004f16b0 f   HTTPConnection.obj
 0002:0003ac10       _Itoa                      004f1c10 f   Itoa.obj
 0002:0003ad40       ??0LocklessUint32_t@VENet@@QAE@I@Z 004f1d40 f   LocklessTypes.obj
 0002:0003ad90       ??0LocklessUint32_t@VENet@@QAE@XZ 004f1d90 f   LocklessTypes.obj
 0002:0003ade0       ?Decrement@LocklessUint32_t@VENet@@QAEIXZ 004f1de0 f   LocklessTypes.obj
 0002:0003ae40       ?Increment@LocklessUint32_t@VENet@@QAEIXZ 004f1e40 f   LocklessTypes.obj
 0002:0003aea0       ??$OP_DELETE@VLogCommandParser@VENet@@@VENet@@YAXPAVLogCommandParser@0@PBDI@Z 004f1ea0 f i LogCommandParser.obj
 0002:0003af40       ??$OP_DELETE_ARRAY@USystemAddressAndChannel@LogCommandParser@VENet@@@VENet@@YAXPAUSystemAddressAndChannel@LogCommandParser@0@PBDI@Z 004f1f40 f i LogCommandParser.obj
 0002:0003afa0       ??$OP_NEW@VLogCommandParser@VENet@@@VENet@@YAPAVLogCommandParser@0@PBDI@Z 004f1fa0 f i LogCommandParser.obj
 0002:0003b090       ??$OP_NEW_ARRAY@USystemAddressAndChannel@LogCommandParser@VENet@@@VENet@@YAPAUSystemAddressAndChannel@LogCommandParser@0@HPBDI@Z 004f2090 f i LogCommandParser.obj
 0002:0003b1c0       ??0?$List@USystemAddressAndChannel@LogCommandParser@VENet@@@DataStructures@@QAE@XZ 004f21c0 f i LogCommandParser.obj
 0002:0003b220       ??0LogCommandParser@VENet@@QAE@XZ 004f2220 f   LogCommandParser.obj
 0002:0003b340       ??0SystemAddressAndChannel@LogCommandParser@VENet@@QAE@XZ 004f2340 f i LogCommandParser.obj
 0002:0003b3a0       ??1?$List@USystemAddressAndChannel@LogCommandParser@VENet@@@DataStructures@@QAE@XZ 004f23a0 f i LogCommandParser.obj
 0002:0003b410       ??1LogCommandParser@VENet@@UAE@XZ 004f2410 f   LogCommandParser.obj
 0002:0003b4c0       ??4SystemAddressAndChannel@LogCommandParser@VENet@@QAEAAU012@ABU012@@Z 004f24c0 f i LogCommandParser.obj
 0002:0003b530       ??A?$List@USystemAddressAndChannel@LogCommandParser@VENet@@@DataStructures@@QBEAAUSystemAddressAndChannel@LogCommandParser@VENet@@I@Z 004f2530 f i LogCommandParser.obj
 0002:0003b5d0       ??_GLogCommandParser@VENet@@UAEPAXI@Z 004f25d0 f i LogCommandParser.obj
 0002:0003b5d0       ??_ELogCommandParser@VENet@@UAEPAXI@Z 004f25d0 f i LogCommandParser.obj
 0002:0003b640       ?AddChannel@LogCommandParser@VENet@@QAEXPBD@Z 004f2640 f   LogCommandParser.obj
 0002:0003b750       ?DestroyInstance@LogCommandParser@VENet@@SAXPAV12@@Z 004f2750 f   LogCommandParser.obj
 0002:0003b7b0       ?GetChannelIndexFromName@LogCommandParser@VENet@@IAEIPBD@Z 004f27b0 f   LogCommandParser.obj
 0002:0003b870       ?GetInstance@LogCommandParser@VENet@@SAPAV12@XZ 004f2870 f   LogCommandParser.obj
 0002:0003b8d0       ?GetName@LogCommandParser@VENet@@UBEPBDXZ 004f28d0 f   LogCommandParser.obj
 0002:0003b910       ?Insert@?$List@USystemAddressAndChannel@LogCommandParser@VENet@@@DataStructures@@QAEXABUSystemAddressAndChannel@LogCommandParser@VENet@@PBDI@Z 004f2910 f i LogCommandParser.obj
 0002:0003ba60       ?OnCommand@LogCommandParser@VENet@@UAE_NPBDIPAPADPAVTransportInterface@2@ABUSystemAddress@2@0@Z 004f2a60 f   LogCommandParser.obj
 0002:0003bec0       ?OnConnectionLost@LogCommandParser@VENet@@UAEXABUSystemAddress@2@PAVTransportInterface@2@@Z 004f2ec0 f   LogCommandParser.obj
 0002:0003bf20       ?OnNewIncomingConnection@LogCommandParser@VENet@@UAEXABUSystemAddress@2@PAVTransportInterface@2@@Z 004f2f20 f   LogCommandParser.obj
 0002:0003bf60       ?OnTransportChange@LogCommandParser@VENet@@UAEXPAVTransportInterface@2@@Z 004f2f60 f   LogCommandParser.obj
 0002:0003bfb0       ?PrintChannels@LogCommandParser@VENet@@IBEXABUSystemAddress@2@PAVTransportInterface@2@@Z 004f2fb0 f   LogCommandParser.obj
 0002:0003c150       ?RemoveFromEnd@?$List@USystemAddressAndChannel@LogCommandParser@VENet@@@DataStructures@@QAEXI@Z 004f3150 f i LogCommandParser.obj
 0002:0003c1f0       ?SendHelp@LogCommandParser@VENet@@UAEXPAVTransportInterface@2@ABUSystemAddress@2@@Z 004f31f0 f   LogCommandParser.obj
 0002:0003c350       ?Size@?$List@USystemAddressAndChannel@LogCommandParser@VENet@@@DataStructures@@QBEIXZ 004f3350 f i LogCommandParser.obj
 0002:0003c390       ?Subscribe@LogCommandParser@VENet@@IAEIABUSystemAddress@2@PBD@Z 004f3390 f   LogCommandParser.obj
 0002:0003c590       ?Unsubscribe@LogCommandParser@VENet@@IAEIABUSystemAddress@2@PBD@Z 004f3590 f   LogCommandParser.obj
 0002:0003c710       ?WriteLog@LogCommandParser@VENet@@QAAXPBD0ZZ 004f3710 f   LogCommandParser.obj
 0002:0003ca60       ??$OP_DELETE@UFilterSet@VENet@@@VENet@@YAXPAUFilterSet@0@PBDI@Z 004f3a60 f i MessageFilter.obj
 0002:0003caf0       ??$OP_DELETE@UNode@?$Hash@UAddressOrGUID@VENet@@UFilteredSystem@2@$0IAA@$1?ToInteger@12@SAKABU12@@Z@DataStructures@@@VENet@@YAXPAUNode@?$Hash@UAddressOrGUID@VENet@@UFilteredSystem@2@$0IAA@$1?ToInteger@12@SAKABU12@@Z@DataStructures@@PBDI@Z 004f3af0 f i MessageFilter.obj
 0002:0003cb50       ??$OP_DELETE@VMessageFilter@VENet@@@VENet@@YAXPAVMessageFilter@0@PBDI@Z 004f3b50 f i MessageFilter.obj
 0002:0003cbf0       ??$OP_DELETE_ARRAY@PAUFilterSet@VENet@@@VENet@@YAXPAPAUFilterSet@0@PBDI@Z 004f3bf0 f i MessageFilter.obj
 0002:0003cc50       ??$OP_DELETE_ARRAY@PAUNode@?$Hash@UAddressOrGUID@VENet@@UFilteredSystem@2@$0IAA@$1?ToInteger@12@SAKABU12@@Z@DataStructures@@@VENet@@YAXPAPAUNode@?$Hash@UAddressOrGUID@VENet@@UFilteredSystem@2@$0IAA@$1?ToInteger@12@SAKABU12@@Z@DataStructures@@PBDI@Z 004f3c50 f i MessageFilter.obj
 0002:0003ccb0       ??$OP_DELETE_ARRAY@UAddressOrGUID@VENet@@@VENet@@YAXPAUAddressOrGUID@0@PBDI@Z 004f3cb0 f i MessageFilter.obj
 0002:0003cd10       ??$OP_DELETE_ARRAY@UFilteredSystem@VENet@@@VENet@@YAXPAUFilteredSystem@0@PBDI@Z 004f3d10 f i MessageFilter.obj
 0002:0003cd70       ??$OP_NEW@UFilterSet@VENet@@@VENet@@YAPAUFilterSet@0@PBDI@Z 004f3d70 f i MessageFilter.obj
 0002:0003ce60       ??$OP_NEW@VMessageFilter@VENet@@@VENet@@YAPAVMessageFilter@0@PBDI@Z 004f3e60 f i MessageFilter.obj
 0002:0003cf40       ??$OP_NEW_2@UNode@?$Hash@UAddressOrGUID@VENet@@UFilteredSystem@2@$0IAA@$1?ToInteger@12@SAKABU12@@Z@DataStructures@@UAddressOrGUID@VENet@@UFilteredSystem@5@@VENet@@YAPAUNode@?$Hash@UAddressOrGUID@VENet@@UFilteredSystem@2@$0IAA@$1?ToInteger@12@SAKABU12@@Z@DataStructures@@PBDIABUAddressOrGUID@0@ABUFilteredSystem@0@@Z 004f3f40 f i MessageFilter.obj
 0002:0003d040       ??$OP_NEW_ARRAY@PAUFilterSet@VENet@@@VENet@@YAPAPAUFilterSet@0@HPBDI@Z 004f4040 f i MessageFilter.obj
 0002:0003d0c0       ??$OP_NEW_ARRAY@PAUNode@?$Hash@UAddressOrGUID@VENet@@UFilteredSystem@2@$0IAA@$1?ToInteger@12@SAKABU12@@Z@DataStructures@@@VENet@@YAPAPAUNode@?$Hash@UAddressOrGUID@VENet@@UFilteredSystem@2@$0IAA@$1?ToInteger@12@SAKABU12@@Z@DataStructures@@HPBDI@Z 004f40c0 f i MessageFilter.obj
 0002:0003d140       ??$OP_NEW_ARRAY@UAddressOrGUID@VENet@@@VENet@@YAPAUAddressOrGUID@0@HPBDI@Z 004f4140 f i MessageFilter.obj
 0002:0003d270       ??$OP_NEW_ARRAY@UFilteredSystem@VENet@@@VENet@@YAPAUFilteredSystem@0@HPBDI@Z 004f4270 f i MessageFilter.obj
 0002:0003d2f0       ??$ReadCompressed@VVEString@VENet@@@BitStream@VENet@@QAE_NAAVVEString@1@@Z 004f42f0 f i MessageFilter.obj
 0002:0003d350       ??$defaultOrderedListComparison@VVEString@VENet@@V12@@DataStructures@@YAHABVVEString@VENet@@0@Z 004f4350 f i MessageFilter.obj
 0002:0003d3d0       ??0?$Hash@UAddressOrGUID@VENet@@UFilteredSystem@2@$0IAA@$1?ToInteger@12@SAKABU12@@Z@DataStructures@@QAE@XZ 004f43d0 f i MessageFilter.obj
 0002:0003d420       ??0?$List@PAUFilterSet@VENet@@@DataStructures@@QAE@XZ 004f4420 f i MessageFilter.obj
 0002:0003d480       ??0?$List@UAddressOrGUID@VENet@@@DataStructures@@QAE@XZ 004f4480 f i MessageFilter.obj
 0002:0003d4e0       ??0?$List@UFilteredSystem@VENet@@@DataStructures@@QAE@XZ 004f44e0 f i MessageFilter.obj
 0002:0003d540       ??0?$List@VVEString@VENet@@@DataStructures@@QAE@XZ 004f4540 f i MessageFilter.obj
 0002:0003d5a0       ??0?$OrderedList@HPAUFilterSet@VENet@@$1?FilterSetComp@2@YAHABHABQAU12@@Z@DataStructures@@QAE@XZ 004f45a0 f i MessageFilter.obj
 0002:0003d600       ??0?$OrderedList@VVEString@VENet@@V12@$1??$defaultOrderedListComparison@VVEString@VENet@@V12@@DataStructures@@YAHABV12@0@Z@DataStructures@@QAE@XZ 004f4600 f i MessageFilter.obj
 0002:0003d660       ??0AddressOrGUID@VENet@@QAE@XZ 004f4660 f i MessageFilter.obj
 0002:0003d6c0       ??0FilterSet@VENet@@QAE@XZ 004f46c0 f i MessageFilter.obj
 0002:0003d720       ??0MessageFilter@VENet@@QAE@XZ 004f4720 f   MessageFilter.obj
 0002:0003d800       ??0Node@?$Hash@UAddressOrGUID@VENet@@UFilteredSystem@2@$0IAA@$1?ToInteger@12@SAKABU12@@Z@DataStructures@@QAE@UAddressOrGUID@VENet@@ABUFilteredSystem@4@@Z 004f4800 f i MessageFilter.obj
 0002:0003d880       ??1?$Hash@UAddressOrGUID@VENet@@UFilteredSystem@2@$0IAA@$1?ToInteger@12@SAKABU12@@Z@DataStructures@@QAE@XZ 004f4880 f i MessageFilter.obj
 0002:0003d8e0       ??1?$List@PAUFilterSet@VENet@@@DataStructures@@QAE@XZ 004f48e0 f i MessageFilter.obj
 0002:0003d950       ??1?$List@UAddressOrGUID@VENet@@@DataStructures@@QAE@XZ 004f4950 f i MessageFilter.obj
 0002:0003d9c0       ??1?$List@UFilteredSystem@VENet@@@DataStructures@@QAE@XZ 004f49c0 f i MessageFilter.obj
 0002:0003da30       ??1?$List@VVEString@VENet@@@DataStructures@@QAE@XZ 004f4a30 f i MessageFilter.obj
 0002:0003daa0       ??1?$OrderedList@HPAUFilterSet@VENet@@$1?FilterSetComp@2@YAHABHABQAU12@@Z@DataStructures@@QAE@XZ 004f4aa0 f i MessageFilter.obj
 0002:0003db50       ??1?$OrderedList@VVEString@VENet@@V12@$1??$defaultOrderedListComparison@VVEString@VENet@@V12@@DataStructures@@YAHABV12@0@Z@DataStructures@@QAE@XZ 004f4b50 f i MessageFilter.obj
 0002:0003dc00       ??1FilterSet@VENet@@QAE@XZ 004f4c00 f i MessageFilter.obj
 0002:0003dc60       ??1MessageFilter@VENet@@UAE@XZ 004f4c60 f   MessageFilter.obj
 0002:0003dd30       ??4AddressOrGUID@VENet@@QAEAAU01@ABU01@@Z 004f4d30 f i MessageFilter.obj
 0002:0003dda0       ??8AddressOrGUID@VENet@@QBE_NABU01@@Z 004f4da0 f i MessageFilter.obj
 0002:0003de80       ??A?$List@PAUFilterSet@VENet@@@DataStructures@@QBEAAPAUFilterSet@VENet@@I@Z 004f4e80 f i MessageFilter.obj
 0002:0003df20       ??A?$List@UAddressOrGUID@VENet@@@DataStructures@@QBEAAUAddressOrGUID@VENet@@I@Z 004f4f20 f i MessageFilter.obj
 0002:0003dfc0       ??A?$List@UFilteredSystem@VENet@@@DataStructures@@QBEAAUFilteredSystem@VENet@@I@Z 004f4fc0 f i MessageFilter.obj
 0002:0003e060       ??A?$List@VVEString@VENet@@@DataStructures@@QBEAAVVEString@VENet@@I@Z 004f5060 f i MessageFilter.obj
 0002:0003e100       ??A?$OrderedList@HPAUFilterSet@VENet@@$1?FilterSetComp@2@YAHABHABQAU12@@Z@DataStructures@@QBEAAPAUFilterSet@VENet@@I@Z 004f5100 f i MessageFilter.obj
 0002:0003e160       ??_GFilterSet@VENet@@QAEPAXI@Z 004f5160 f i MessageFilter.obj
 0002:0003e1d0       ??_GMessageFilter@VENet@@UAEPAXI@Z 004f51d0 f i MessageFilter.obj
 0002:0003e1d0       ??_EMessageFilter@VENet@@UAEPAXI@Z 004f51d0 f i MessageFilter.obj
 0002:0003e240       ?Clear@?$Hash@UAddressOrGUID@VENet@@UFilteredSystem@2@$0IAA@$1?ToInteger@12@SAKABU12@@Z@DataStructures@@QAEXPBDI@Z 004f5240 f i MessageFilter.obj
 0002:0003e310       ?Clear@?$List@PAUFilterSet@VENet@@@DataStructures@@QAEX_NPBDI@Z 004f5310 f i MessageFilter.obj
 0002:0003e3c0       ?Clear@?$List@UAddressOrGUID@VENet@@@DataStructures@@QAEX_NPBDI@Z 004f53c0 f i MessageFilter.obj
 0002:0003e470       ?Clear@?$List@UFilteredSystem@VENet@@@DataStructures@@QAEX_NPBDI@Z 004f5470 f i MessageFilter.obj
 0002:0003e520       ?Clear@?$List@VVEString@VENet@@@DataStructures@@QAEX_NPBDI@Z 004f5520 f i MessageFilter.obj
 0002:0003e5d0       ?Clear@?$OrderedList@HPAUFilterSet@VENet@@$1?FilterSetComp@2@YAHABHABQAU12@@Z@DataStructures@@QAEX_NPBDI@Z 004f55d0 f i MessageFilter.obj
 0002:0003e640       ?Clear@?$OrderedList@VVEString@VENet@@V12@$1??$defaultOrderedListComparison@VVEString@VENet@@V12@@DataStructures@@YAHABV12@0@Z@DataStructures@@QAEX_NPBDI@Z 004f5640 f i MessageFilter.obj
 0002:0003e6b0       ?Clear@MessageFilter@VENet@@IAEXXZ 004f56b0 f   MessageFilter.obj
 0002:0003e790       ?ClearIndex@?$Hash@UAddressOrGUID@VENet@@UFilteredSystem@2@$0IAA@$1?ToInteger@12@SAKABU12@@Z@DataStructures@@IAEXIPBDI@Z 004f5790 f i MessageFilter.obj
 0002:0003e850       ?DeallocateFilterSet@MessageFilter@VENet@@IAEXPAUFilterSet@2@@Z 004f5850 f   MessageFilter.obj
 0002:0003e8c0       ?DeleteFilterSet@MessageFilter@VENet@@QAEXH@Z 004f58c0 f   MessageFilter.obj
 0002:0003eb10       ?DestroyInstance@MessageFilter@VENet@@SAXPAV12@@Z 004f5b10 f   MessageFilter.obj
 0002:0003eb70       ?FilterSetComp@VENet@@YAHABHABQAUFilterSet@1@@Z 004f5b70 f   MessageFilter.obj
 0002:0003ebe0       ?GetAsList@?$Hash@UAddressOrGUID@VENet@@UFilteredSystem@2@$0IAA@$1?ToInteger@12@SAKABU12@@Z@DataStructures@@QBEXAAV?$List@UFilteredSystem@VENet@@@2@AAV?$List@UAddressOrGUID@VENet@@@2@PBDI@Z 004f5be0 f i MessageFilter.obj
 0002:0003ed00       ?GetFilterSetByID@MessageFilter@VENet@@IAEPAUFilterSet@2@H@Z 004f5d00 f   MessageFilter.obj
 0002:0003ef10       ?GetFilterSetCount@MessageFilter@VENet@@QBEIXZ 004f5f10 f   MessageFilter.obj
 0002:0003ef70       ?GetFilterSetIDByIndex@MessageFilter@VENet@@QAEHI@Z 004f5f70 f   MessageFilter.obj
 0002:0003efd0       ?GetIndexFromKey@?$OrderedList@HPAUFilterSet@VENet@@$1?FilterSetComp@2@YAHABHABQAU12@@Z@DataStructures@@QBEIABHPA_NP6AH0ABQAUFilterSet@VENet@@@Z@Z 004f5fd0 f i MessageFilter.obj
 0002:0003f110       ?GetIndexFromKey@?$OrderedList@VVEString@VENet@@V12@$1??$defaultOrderedListComparison@VVEString@VENet@@V12@@DataStructures@@YAHABV12@0@Z@DataStructures@@QBEIABVVEString@VENet@@PA_NP6AH00@Z@Z 004f6110 f i MessageFilter.obj
 0002:0003f250       ?GetIndexOf@?$Hash@UAddressOrGUID@VENet@@UFilteredSystem@2@$0IAA@$1?ToInteger@12@SAKABU12@@Z@DataStructures@@QAE?AUHashIndex@2@UAddressOrGUID@VENet@@@Z 004f6250 f i MessageFilter.obj
 0002:0003f3f0       ?GetInstance@MessageFilter@VENet@@SAPAV12@XZ 004f63f0 f   MessageFilter.obj
 0002:0003f450       ?GetSystemCount@MessageFilter@VENet@@QBEIH@Z 004f6450 f   MessageFilter.obj
 0002:0003f620       ?GetSystemFilterSet@MessageFilter@VENet@@QAEHUAddressOrGUID@2@@Z 004f6620 f   MessageFilter.obj
 0002:0003f700       ?HasData@?$Hash@UAddressOrGUID@VENet@@UFilteredSystem@2@$0IAA@$1?ToInteger@12@SAKABU12@@Z@DataStructures@@QAE_NUAddressOrGUID@VENet@@@Z 004f6700 f i MessageFilter.obj
 0002:0003f7a0       ?HasData@?$OrderedList@VVEString@VENet@@V12@$1??$defaultOrderedListComparison@VVEString@VENet@@V12@@DataStructures@@YAHABV12@0@Z@DataStructures@@QBE_NABVVEString@VENet@@P6AH00@Z@Z 004f67a0 f i MessageFilter.obj
 0002:0003f850       ?Insert@?$List@PAUFilterSet@VENet@@@DataStructures@@QAEXABQAUFilterSet@VENet@@IPBDI@Z 004f6850 f i MessageFilter.obj
 0002:0003fa10       ?Insert@?$List@PAUFilterSet@VENet@@@DataStructures@@QAEXABQAUFilterSet@VENet@@PBDI@Z 004f6a10 f i MessageFilter.obj
 0002:0003fb60       ?Insert@?$List@UAddressOrGUID@VENet@@@DataStructures@@QAEXABUAddressOrGUID@VENet@@PBDI@Z 004f6b60 f i MessageFilter.obj
 0002:0003fcb0       ?Insert@?$List@UFilteredSystem@VENet@@@DataStructures@@QAEXABUFilteredSystem@VENet@@PBDI@Z 004f6cb0 f i MessageFilter.obj
 0002:0003fe10       ?Insert@?$List@VVEString@VENet@@@DataStructures@@QAEXABVVEString@VENet@@IPBDI@Z 004f6e10 f i MessageFilter.obj
 0002:0003fff0       ?Insert@?$OrderedList@HPAUFilterSet@VENet@@$1?FilterSetComp@2@YAHABHABQAU12@@Z@DataStructures@@QAEIABHABQAUFilterSet@VENet@@_NPBDIP6AH01@Z@Z 004f6ff0 f i MessageFilter.obj
 0002:00040140       ?InsertAtIndex@?$OrderedList@VVEString@VENet@@V12@$1??$defaultOrderedListComparison@VVEString@VENet@@V12@@DataStructures@@YAHABV12@0@Z@DataStructures@@QAEXABVVEString@VENet@@IPBDI@Z 004f7140 f i MessageFilter.obj
 0002:000401b0       ?IsInvalid@HashIndex@DataStructures@@QBE_NXZ 004f71b0 f i MessageFilter.obj
 0002:00040220       ?IsUndefined@AddressOrGUID@VENet@@QBE_NXZ 004f7220 f i MessageFilter.obj
 0002:000402c0       ?ItemAtIndex@?$Hash@UAddressOrGUID@VENet@@UFilteredSystem@2@$0IAA@$1?ToInteger@12@SAKABU12@@Z@DataStructures@@QAEAAUFilteredSystem@VENet@@ABUHashIndex@2@@Z 004f72c0 f i MessageFilter.obj
 0002:000403c0       ?MessageFilterStrComp@VENet@@YAHABQAD0@Z 004f73c0 f   MessageFilter.obj
 0002:00040420       ?OnClosedConnection@MessageFilter@VENet@@UAEXABUSystemAddress@2@UVENetGUID@2@W4PI2_LostConnectionReason@2@@Z 004f7420 f   MessageFilter.obj
 0002:00040510       ?OnInvalidMessage@MessageFilter@VENet@@IAEXPAUFilterSet@2@UAddressOrGUID@2@E@Z 004f7510 f   MessageFilter.obj
 0002:000406e0       ?OnNewConnection@MessageFilter@VENet@@UAEXABUSystemAddress@2@UVENetGUID@2@_N@Z 004f76e0 f   MessageFilter.obj
 0002:00040800       ?OnReceive@MessageFilter@VENet@@UAE?AW4PluginReceiveResult@2@PAUPacket@2@@Z 004f7800 f   MessageFilter.obj
 0002:00040c30       ?Push@?$Hash@UAddressOrGUID@VENet@@UFilteredSystem@2@$0IAA@$1?ToInteger@12@SAKABU12@@Z@DataStructures@@QAEXUAddressOrGUID@VENet@@ABUFilteredSystem@4@PBDI@Z 004f7c30 f i MessageFilter.obj
 0002:00040d40       ?Push@?$List@UAddressOrGUID@VENet@@@DataStructures@@QAEXABUAddressOrGUID@VENet@@PBDI@Z 004f7d40 f i MessageFilter.obj
 0002:00040da0       ?Push@?$List@UFilteredSystem@VENet@@@DataStructures@@QAEXABUFilteredSystem@VENet@@PBDI@Z 004f7da0 f i MessageFilter.obj
 0002:00040e00       ?Remove@?$Hash@UAddressOrGUID@VENet@@UFilteredSystem@2@$0IAA@$1?ToInteger@12@SAKABU12@@Z@DataStructures@@QAE_NUAddressOrGUID@VENet@@PBDI@Z 004f7e00 f i MessageFilter.obj
 0002:00040e90       ?RemoveAtIndex@?$Hash@UAddressOrGUID@VENet@@UFilteredSystem@2@$0IAA@$1?ToInteger@12@SAKABU12@@Z@DataStructures@@QAE_NUHashIndex@2@PBDI@Z 004f7e90 f i MessageFilter.obj
 0002:00041020       ?RemoveAtIndex@?$List@PAUFilterSet@VENet@@@DataStructures@@QAEXI@Z 004f8020 f i MessageFilter.obj
 0002:00041110       ?RemoveAtIndex@?$List@VVEString@VENet@@@DataStructures@@QAEXI@Z 004f8110 f i MessageFilter.obj
 0002:00041210       ?RemoveAtIndex@?$OrderedList@HPAUFilterSet@VENet@@$1?FilterSetComp@2@YAHABHABQAU12@@Z@DataStructures@@QAEXI@Z 004f8210 f i MessageFilter.obj
 0002:00041270       ?RemoveAtIndex@?$OrderedList@VVEString@VENet@@V12@$1??$defaultOrderedListComparison@VVEString@VENet@@V12@@DataStructures@@YAHABV12@0@Z@DataStructures@@QAEXI@Z 004f8270 f i MessageFilter.obj
 0002:000412d0       ?RemoveFromEnd@?$List@PAUFilterSet@VENet@@@DataStructures@@QAEXI@Z 004f82d0 f i MessageFilter.obj
 0002:00041370       ?RemoveFromEnd@?$List@VVEString@VENet@@@DataStructures@@QAEXI@Z 004f8370 f i MessageFilter.obj
 0002:00041410       ?SetActionOnDisallowedMessage@MessageFilter@VENet@@QAEX_N0IH@Z 004f8410 f   MessageFilter.obj
 0002:00041490       ?SetAllowMessageID@MessageFilter@VENet@@QAEX_NHHH@Z 004f8490 f   MessageFilter.obj
 0002:00041560       ?SetAllowRPC4@MessageFilter@VENet@@QAEX_NPBDH@Z 004f8560 f   MessageFilter.obj
 0002:00041770       ?SetAutoAddNewConnectionsToFilter@MessageFilter@VENet@@QAEXH@Z 004f8770 f   MessageFilter.obj
 0002:000417c0       ?SetDisallowedMessageCallback@MessageFilter@VENet@@QAEXHPAXP6AXPAVVEPeerInterface@2@UAddressOrGUID@2@H0E@Z@Z 004f87c0 f   MessageFilter.obj
 0002:00041830       ?SetFilterMaxTime@MessageFilter@VENet@@QAEXH_NIH@Z 004f8830 f   MessageFilter.obj
 0002:000418b0       ?SetInvalid@HashIndex@DataStructures@@QAEXXZ 004f88b0 f i MessageFilter.obj
 0002:00041900       ?SetSystemFilterSet@MessageFilter@VENet@@QAEXUAddressOrGUID@2@H@Z 004f8900 f   MessageFilter.obj
 0002:00041b00       ?SetTimeoutCallback@MessageFilter@VENet@@QAEXHPAXP6AXPAVVEPeerInterface@2@UAddressOrGUID@2@H0@Z@Z 004f8b00 f   MessageFilter.obj
 0002:00041b70       ?Size@?$Hash@UAddressOrGUID@VENet@@UFilteredSystem@2@$0IAA@$1?ToInteger@12@SAKABU12@@Z@DataStructures@@QBEIXZ 004f8b70 f i MessageFilter.obj
 0002:00041bb0       ?Size@?$List@PAUFilterSet@VENet@@@DataStructures@@QBEIXZ 004f8bb0 f i MessageFilter.obj
 0002:00041bf0       ?Size@?$List@UFilteredSystem@VENet@@@DataStructures@@QBEIXZ 004f8bf0 f i MessageFilter.obj
 0002:00041c30       ?Size@?$List@VVEString@VENet@@@DataStructures@@QBEIXZ 004f8c30 f i MessageFilter.obj
 0002:00041c70       ?Size@?$OrderedList@HPAUFilterSet@VENet@@$1?FilterSetComp@2@YAHABHABQAU12@@Z@DataStructures@@QBEIXZ 004f8c70 f i MessageFilter.obj
 0002:00041cc0       ?Size@?$OrderedList@VVEString@VENet@@V12@$1??$defaultOrderedListComparison@VVEString@VENet@@V12@@DataStructures@@YAHABV12@0@Z@DataStructures@@QBEIXZ 004f8cc0 f i MessageFilter.obj
 0002:00041d10       ?Update@MessageFilter@VENet@@UAEXXZ 004f8d10 f   MessageFilter.obj
 0002:000421d0       ??$OP_DELETE@VNetworkIDManager@VENet@@@VENet@@YAXPAVNetworkIDManager@0@PBDI@Z 004f91d0 f i NetworkIDManager.obj
 0002:00042270       ??$OP_NEW@VNetworkIDManager@VENet@@@VENet@@YAPAVNetworkIDManager@0@PBDI@Z 004f9270 f i NetworkIDManager.obj
 0002:00042360       ??0NetworkIDManager@VENet@@QAE@XZ 004f9360 f   NetworkIDManager.obj
 0002:000423f0       ??1NetworkIDManager@VENet@@UAE@XZ 004f93f0 f   NetworkIDManager.obj
 0002:00042430       ??_ENetworkIDManager@VENet@@UAEPAXI@Z 004f9430 f i NetworkIDManager.obj
 0002:00042430       ??_GNetworkIDManager@VENet@@UAEPAXI@Z 004f9430 f i NetworkIDManager.obj
 0002:000424a0       ?DestroyInstance@NetworkIDManager@VENet@@SAXPAV12@@Z 004f94a0 f   NetworkIDManager.obj
 0002:00042500       ?GET_BASE_OBJECT_FROM_ID@NetworkIDManager@VENet@@QAEPAVNetworkIDObject@2@_K@Z 004f9500 f   NetworkIDManager.obj
 0002:000425e0       ?GetInstance@NetworkIDManager@VENet@@SAPAV12@XZ 004f95e0 f   NetworkIDManager.obj
 0002:00042640       ?GetNewNetworkID@NetworkIDManager@VENet@@IAE_KXZ 004f9640 f   NetworkIDManager.obj
 0002:00042710       ?NetworkIDToHashIndex@NetworkIDManager@VENet@@IAEI_K@Z 004f9710 f   NetworkIDManager.obj
 0002:00042770       ?StopTrackingNetworkIDObject@NetworkIDManager@VENet@@QAEXPAVNetworkIDObject@2@@Z 004f9770 f   NetworkIDManager.obj
 0002:00042950       ?TrackNetworkIDObject@NetworkIDManager@VENet@@QAEXPAVNetworkIDObject@2@@Z 004f9950 f   NetworkIDManager.obj
 0002:00042c70       ??0NetworkIDObject@VENet@@QAE@XZ 004f9c70 f   NetworkIDObject.obj
 0002:00042cf0       ??1NetworkIDObject@VENet@@UAE@XZ 004f9cf0 f   NetworkIDObject.obj
 0002:00042d90       ??_ENetworkIDObject@VENet@@UAEPAXI@Z 004f9d90 f i NetworkIDObject.obj
 0002:00042d90       ??_GNetworkIDObject@VENet@@UAEPAXI@Z 004f9d90 f i NetworkIDObject.obj
 0002:00042e00       ?GetNetworkID@NetworkIDObject@VENet@@UAE_KXZ 004f9e00 f   NetworkIDObject.obj
 0002:00042ee0       ?GetNetworkIDManager@NetworkIDObject@VENet@@UAEPAVNetworkIDManager@2@XZ 004f9ee0 f   NetworkIDObject.obj
 0002:00042f20       ?GetParent@NetworkIDObject@VENet@@UBEPAXXZ 004f9f20 f   NetworkIDObject.obj
 0002:00042f60       ?SetNetworkID@NetworkIDObject@VENet@@UAEX_K@Z 004f9f60 f   NetworkIDObject.obj
 0002:00043040       ?SetNetworkIDManager@NetworkIDObject@VENet@@UAEXPAVNetworkIDManager@2@@Z 004fa040 f   NetworkIDObject.obj
 0002:00043090       ?SetParent@NetworkIDObject@VENet@@UAEXPAX@Z 004fa090 f   NetworkIDObject.obj
 0002:000430e0       ??0PacketConsoleLogger@VENet@@QAE@XZ 004fa0e0 f   PacketConsoleLogger.obj
 0002:00043150       ??1PacketConsoleLogger@VENet@@UAE@XZ 004fa150 f i PacketConsoleLogger.obj
 0002:000431a0       ??_GPacketConsoleLogger@VENet@@UAEPAXI@Z 004fa1a0 f i PacketConsoleLogger.obj
 0002:000431a0       ??_EPacketConsoleLogger@VENet@@UAEPAXI@Z 004fa1a0 f i PacketConsoleLogger.obj
 0002:00043210       ?OnClosedConnection@PluginInterface2@VENet@@UAEXABUSystemAddress@2@UVENetGUID@2@W4PI2_LostConnectionReason@2@@Z 004fa210 f i PacketConsoleLogger.obj
 0002:00043250       ?OnNewConnection@PluginInterface2@VENet@@UAEXABUSystemAddress@2@UVENetGUID@2@_N@Z 004fa250 f i PacketConsoleLogger.obj
 0002:00043290       ?OnReceive@PluginInterface2@VENet@@UAE?AW4PluginReceiveResult@2@PAUPacket@2@@Z 004fa290 f i PacketConsoleLogger.obj
 0002:000432d0       ?SetLogCommandParser@PacketConsoleLogger@VENet@@UAEXPAVLogCommandParser@2@@Z 004fa2d0 f   PacketConsoleLogger.obj
 0002:00043350       ?UsesReliabilityLayer@PacketLogger@VENet@@MBE_NXZ 004fa350 f i PacketConsoleLogger.obj
 0002:00043390       ?WriteLog@PacketConsoleLogger@VENet@@UAEXPBD@Z 004fa390 f   PacketConsoleLogger.obj
 0002:00043410       ??0PacketFileLogger@VENet@@QAE@XZ 004fa410 f   PacketFileLogger.obj
 0002:00043480       ??1PacketFileLogger@VENet@@UAE@XZ 004fa480 f   PacketFileLogger.obj
 0002:00043530       ??_GPacketFileLogger@VENet@@UAEPAXI@Z 004fa530 f i PacketFileLogger.obj
 0002:00043530       ??_EPacketFileLogger@VENet@@UAEPAXI@Z 004fa530 f i PacketFileLogger.obj
 0002:000435a0       ?StartLog@PacketFileLogger@VENet@@QAEXPBD@Z 004fa5a0 f   PacketFileLogger.obj
 0002:00043730       ?WriteLog@PacketFileLogger@VENet@@UAEXPBD@Z 004fa730 f   PacketFileLogger.obj
 0002:000437e0       ??$OP_DELETE@UPacket@VENet@@@VENet@@YAXPAUPacket@0@PBDI@Z 004fa7e0 f i PacketizedTCP.obj
 0002:00043840       ??$OP_DELETE@VByteQueue@DataStructures@@@VENet@@YAXPAVByteQueue@DataStructures@@PBDI@Z 004fa840 f i PacketizedTCP.obj
 0002:000438d0       ??$OP_DELETE@VPacketizedTCP@VENet@@@VENet@@YAXPAVPacketizedTCP@0@PBDI@Z 004fa8d0 f i PacketizedTCP.obj
 0002:00043970       ??$OP_DELETE_ARRAY@PAUPacket@VENet@@@VENet@@YAXPAPAUPacket@0@PBDI@Z 004fa970 f i PacketizedTCP.obj
 0002:000439d0       ??$OP_DELETE_ARRAY@PAVPluginInterface2@VENet@@@VENet@@YAXPAPAVPluginInterface2@0@PBDI@Z 004fa9d0 f i PacketizedTCP.obj
 0002:00043a30       ??$OP_DELETE_ARRAY@UMapNode@?$Map@USystemAddress@VENet@@PAVByteQueue@DataStructures@@$1??$defaultMapKeyComparison@USystemAddress@VENet@@@4@YAHABU12@0@Z@DataStructures@@@VENet@@YAXPAUMapNode@?$Map@USystemAddress@VENet@@PAVByteQueue@DataStructures@@$1??$defaultMapKeyComparison@USystemAddress@VENet@@@4@YAHABU12@0@Z@DataStructures@@PBDI@Z 004faa30 f i PacketizedTCP.obj
 0002:00043a90       ??$OP_NEW@UPacket@VENet@@@VENet@@YAPAUPacket@0@PBDI@Z 004faa90 f i PacketizedTCP.obj
 0002:00043b70       ??$OP_NEW@VByteQueue@DataStructures@@@VENet@@YAPAVByteQueue@DataStructures@@PBDI@Z 004fab70 f i PacketizedTCP.obj
 0002:00043c50       ??$OP_NEW@VPacketizedTCP@VENet@@@VENet@@YAPAVPacketizedTCP@0@PBDI@Z 004fac50 f i PacketizedTCP.obj
 0002:00043d40       ??$OP_NEW_ARRAY@PAUPacket@VENet@@@VENet@@YAPAPAUPacket@0@HPBDI@Z 004fad40 f i PacketizedTCP.obj
 0002:00043dc0       ??$OP_NEW_ARRAY@PAVPluginInterface2@VENet@@@VENet@@YAPAPAVPluginInterface2@0@HPBDI@Z 004fadc0 f i PacketizedTCP.obj
 0002:00043e40       ??$OP_NEW_ARRAY@UMapNode@?$Map@USystemAddress@VENet@@PAVByteQueue@DataStructures@@$1??$defaultMapKeyComparison@USystemAddress@VENet@@@4@YAHABU12@0@Z@DataStructures@@@VENet@@YAPAUMapNode@?$Map@USystemAddress@VENet@@PAVByteQueue@DataStructures@@$1??$defaultMapKeyComparison@USystemAddress@VENet@@@4@YAHABU12@0@Z@DataStructures@@HPBDI@Z 004fae40 f i PacketizedTCP.obj
 0002:00043f70       ??$defaultMapKeyComparison@USystemAddress@VENet@@@DataStructures@@YAHABUSystemAddress@VENet@@0@Z 004faf70 f i PacketizedTCP.obj
 0002:00043ff0       ??0?$List@PAVPluginInterface2@VENet@@@DataStructures@@QAE@XZ 004faff0 f i PacketizedTCP.obj
 0002:00044050       ??0?$List@UMapNode@?$Map@USystemAddress@VENet@@PAVByteQueue@DataStructures@@$1??$defaultMapKeyComparison@USystemAddress@VENet@@@4@YAHABU12@0@Z@DataStructures@@@DataStructures@@QAE@XZ 004fb050 f i PacketizedTCP.obj
 0002:000440b0       ??0?$Map@USystemAddress@VENet@@PAVByteQueue@DataStructures@@$1??$defaultMapKeyComparison@USystemAddress@VENet@@@4@YAHABU12@0@Z@DataStructures@@QAE@XZ 004fb0b0 f i PacketizedTCP.obj
 0002:00044160       ??0?$OrderedList@USystemAddress@VENet@@UMapNode@?$Map@USystemAddress@VENet@@PAVByteQueue@DataStructures@@$1??$defaultMapKeyComparison@USystemAddress@VENet@@@4@YAHABU12@0@Z@DataStructures@@$1?NodeComparisonFunc@45@SAHABU12@ABU345@@Z@DataStructures@@QAE@XZ 004fb160 f i PacketizedTCP.obj
 0002:000441c0       ??0?$Queue@PAUPacket@VENet@@@DataStructures@@QAE@XZ 004fb1c0 f i PacketizedTCP.obj
 0002:00044230       ??0?$Queue@USystemAddress@VENet@@@DataStructures@@QAE@XZ 004fb230 f i PacketizedTCP.obj
 0002:000442a0       ??0MapNode@?$Map@USystemAddress@VENet@@PAVByteQueue@DataStructures@@$1??$defaultMapKeyComparison@USystemAddress@VENet@@@4@YAHABU12@0@Z@DataStructures@@QAE@USystemAddress@VENet@@PAVByteQueue@2@@Z 004fb2a0 f i PacketizedTCP.obj
 0002:00044310       ??0MapNode@?$Map@USystemAddress@VENet@@PAVByteQueue@DataStructures@@$1??$defaultMapKeyComparison@USystemAddress@VENet@@@4@YAHABU12@0@Z@DataStructures@@QAE@XZ 004fb310 f i PacketizedTCP.obj
 0002:00044370       ??0Packet@VENet@@QAE@XZ    004fb370 f i PacketizedTCP.obj
 0002:000443d0       ??0PacketizedTCP@VENet@@QAE@XZ 004fb3d0 f   PacketizedTCP.obj
 0002:00044510       ??1?$List@PAVPluginInterface2@VENet@@@DataStructures@@QAE@XZ 004fb510 f i PacketizedTCP.obj
 0002:00044580       ??1?$List@UMapNode@?$Map@USystemAddress@VENet@@PAVByteQueue@DataStructures@@$1??$defaultMapKeyComparison@USystemAddress@VENet@@@4@YAHABU12@0@Z@DataStructures@@@DataStructures@@QAE@XZ 004fb580 f i PacketizedTCP.obj
 0002:000445f0       ??1?$Map@USystemAddress@VENet@@PAVByteQueue@DataStructures@@$1??$defaultMapKeyComparison@USystemAddress@VENet@@@4@YAHABU12@0@Z@DataStructures@@QAE@XZ 004fb5f0 f i PacketizedTCP.obj
 0002:00044690       ??1?$OrderedList@USystemAddress@VENet@@UMapNode@?$Map@USystemAddress@VENet@@PAVByteQueue@DataStructures@@$1??$defaultMapKeyComparison@USystemAddress@VENet@@@4@YAHABU12@0@Z@DataStructures@@$1?NodeComparisonFunc@45@SAHABU12@ABU345@@Z@DataStructures@@QAE@XZ 004fb690 f i PacketizedTCP.obj
 0002:00044740       ??1?$Queue@PAUPacket@VENet@@@DataStructures@@QAE@XZ 004fb740 f i PacketizedTCP.obj
 0002:000447b0       ??1?$Queue@USystemAddress@VENet@@@DataStructures@@QAE@XZ 004fb7b0 f i PacketizedTCP.obj
 0002:00044820       ??1PacketizedTCP@VENet@@UAE@XZ 004fb820 f   PacketizedTCP.obj
 0002:00044970       ??4MapNode@?$Map@USystemAddress@VENet@@PAVByteQueue@DataStructures@@$1??$defaultMapKeyComparison@USystemAddress@VENet@@@4@YAHABU12@0@Z@DataStructures@@QAEAAU012@ABU012@@Z 004fb970 f i PacketizedTCP.obj
 0002:000449e0       ??A?$List@PAVPluginInterface2@VENet@@@DataStructures@@QBEAAPAVPluginInterface2@VENet@@I@Z 004fb9e0 f i PacketizedTCP.obj
 0002:00044a80       ??A?$List@UMapNode@?$Map@USystemAddress@VENet@@PAVByteQueue@DataStructures@@$1??$defaultMapKeyComparison@USystemAddress@VENet@@@4@YAHABU12@0@Z@DataStructures@@@DataStructures@@QBEAAUMapNode@?$Map@USystemAddress@VENet@@PAVByteQueue@DataStructures@@$1??$defaultMapKeyComparison@USystemAddress@VENet@@@4@YAHABU12@0@Z@1@I@Z 004fba80 f i PacketizedTCP.obj
 0002:00044b20       ??A?$Map@USystemAddress@VENet@@PAVByteQueue@DataStructures@@$1??$defaultMapKeyComparison@USystemAddress@VENet@@@4@YAHABU12@0@Z@DataStructures@@QBEAAPAVByteQueue@1@I@Z 004fbb20 f i PacketizedTCP.obj
 0002:00044b80       ??A?$OrderedList@USystemAddress@VENet@@UMapNode@?$Map@USystemAddress@VENet@@PAVByteQueue@DataStructures@@$1??$defaultMapKeyComparison@USystemAddress@VENet@@@4@YAHABU12@0@Z@DataStructures@@$1?NodeComparisonFunc@45@SAHABU12@ABU345@@Z@DataStructures@@QBEAAUMapNode@?$Map@USystemAddress@VENet@@PAVByteQueue@DataStructures@@$1??$defaultMapKeyComparison@USystemAddress@VENet@@@4@YAHABU12@0@Z@1@I@Z 004fbb80 f i PacketizedTCP.obj
 0002:00044be0       ??A?$Queue@PAUPacket@VENet@@@DataStructures@@QBEAAPAUPacket@VENet@@I@Z 004fbbe0 f i PacketizedTCP.obj
 0002:00044cb0       ??_GByteQueue@DataStructures@@QAEPAXI@Z 004fbcb0 f i PacketizedTCP.obj
 0002:00044d20       ??_EPacketizedTCP@VENet@@UAEPAXI@Z 004fbd20 f i PacketizedTCP.obj
 0002:00044d20       ??_GPacketizedTCP@VENet@@UAEPAXI@Z 004fbd20 f i PacketizedTCP.obj
 0002:00044d90       ?AddToConnectionList@PacketizedTCP@VENet@@IAEXABUSystemAddress@2@@Z 004fbd90 f   PacketizedTCP.obj
 0002:00044e40       ?AttachPlugin@PacketizedTCP@VENet@@QAEXPAVPluginInterface2@2@@Z 004fbe40 f   PacketizedTCP.obj
 0002:00044f00       ?Clear@?$List@UMapNode@?$Map@USystemAddress@VENet@@PAVByteQueue@DataStructures@@$1??$defaultMapKeyComparison@USystemAddress@VENet@@@4@YAHABU12@0@Z@DataStructures@@@DataStructures@@QAEX_NPBDI@Z 004fbf00 f i PacketizedTCP.obj
 0002:00044fb0       ?Clear@?$Map@USystemAddress@VENet@@PAVByteQueue@DataStructures@@$1??$defaultMapKeyComparison@USystemAddress@VENet@@@4@YAHABU12@0@Z@DataStructures@@QAEXXZ 004fbfb0 f i PacketizedTCP.obj
 0002:00045020       ?Clear@?$OrderedList@USystemAddress@VENet@@UMapNode@?$Map@USystemAddress@VENet@@PAVByteQueue@DataStructures@@$1??$defaultMapKeyComparison@USystemAddress@VENet@@@4@YAHABU12@0@Z@DataStructures@@$1?NodeComparisonFunc@45@SAHABU12@ABU345@@Z@DataStructures@@QAEX_NPBDI@Z 004fc020 f i PacketizedTCP.obj
 0002:00045090       ?ClearAllConnections@PacketizedTCP@VENet@@IAEXXZ 004fc090 f   PacketizedTCP.obj
 0002:00045150       ?CloseConnection@PacketizedTCP@VENet@@QAEXUSystemAddress@2@@Z 004fc150 f   PacketizedTCP.obj
 0002:00045290       ?DestroyInstance@PacketizedTCP@VENet@@SAXPAV12@@Z 004fc290 f   PacketizedTCP.obj
 0002:000452f0       ?DetachPlugin@PacketizedTCP@VENet@@QAEXPAVPluginInterface2@2@@Z 004fc2f0 f   PacketizedTCP.obj
 0002:00045420       ?GetIndexAtKey@?$Map@USystemAddress@VENet@@PAVByteQueue@DataStructures@@$1??$defaultMapKeyComparison@USystemAddress@VENet@@@4@YAHABU12@0@Z@DataStructures@@QAEIABUSystemAddress@VENet@@@Z 004fc420 f i PacketizedTCP.obj
 0002:00045540       ?GetIndexFromKey@?$OrderedList@USystemAddress@VENet@@UMapNode@?$Map@USystemAddress@VENet@@PAVByteQueue@DataStructures@@$1??$defaultMapKeyComparison@USystemAddress@VENet@@@4@YAHABU12@0@Z@DataStructures@@$1?NodeComparisonFunc@45@SAHABU12@ABU345@@Z@DataStructures@@QBEIABUSystemAddress@VENet@@PA_NP6AH0ABUMapNode@?$Map@USystemAddress@VENet@@PAVByteQueue@DataStructures@@$1??$defaultMapKeyComparison@USystemAddress@VENet@@@4@YAHABU12@0@Z@2@@Z@Z 004fc540 f i PacketizedTCP.obj
 0002:00045680       ?GetIndexOf@?$List@PAVPluginInterface2@VENet@@@DataStructures@@QBEIABQAVPluginInterface2@VENet@@@Z 004fc680 f i PacketizedTCP.obj
 0002:00045700       ?GetInstance@PacketizedTCP@VENet@@SAPAV12@XZ 004fc700 f   PacketizedTCP.obj
 0002:00045760       ?GetValue@LocklessUint32_t@VENet@@QBEIXZ 004fc760 f i PacketizedTCP.obj
 0002:000457a0       ?Has@?$Map@USystemAddress@VENet@@PAVByteQueue@DataStructures@@$1??$defaultMapKeyComparison@USystemAddress@VENet@@@4@YAHABU12@0@Z@DataStructures@@QBE_NABUSystemAddress@VENet@@@Z 004fc7a0 f i PacketizedTCP.obj
 0002:00045890       ?HasCompletedConnectionAttempt@PacketizedTCP@VENet@@QAE?AUSystemAddress@2@XZ 004fc890 f   PacketizedTCP.obj
 0002:00045960       ?HasFailedConnectionAttempt@PacketizedTCP@VENet@@QAE?AUSystemAddress@2@XZ 004fc960 f   PacketizedTCP.obj
 0002:00045a30       ?HasLostConnection@PacketizedTCP@VENet@@QAE?AUSystemAddress@2@XZ 004fca30 f   PacketizedTCP.obj
 0002:00045b00       ?HasNewIncomingConnection@PacketizedTCP@VENet@@QAE?AUSystemAddress@2@XZ 004fcb00 f   PacketizedTCP.obj
 0002:00045bd0       ?HasSavedSearchResult@?$Map@USystemAddress@VENet@@PAVByteQueue@DataStructures@@$1??$defaultMapKeyComparison@USystemAddress@VENet@@@4@YAHABU12@0@Z@DataStructures@@IBE_NABUSystemAddress@VENet@@@Z 004fcbd0 f i PacketizedTCP.obj
 0002:00045c10       ?Insert@?$List@PAVPluginInterface2@VENet@@@DataStructures@@QAEXABQAVPluginInterface2@VENet@@PBDI@Z 004fcc10 f i PacketizedTCP.obj
 0002:00045d60       ?Insert@?$List@UMapNode@?$Map@USystemAddress@VENet@@PAVByteQueue@DataStructures@@$1??$defaultMapKeyComparison@USystemAddress@VENet@@@4@YAHABU12@0@Z@DataStructures@@@DataStructures@@QAEXABUMapNode@?$Map@USystemAddress@VENet@@PAVByteQueue@DataStructures@@$1??$defaultMapKeyComparison@USystemAddress@VENet@@@4@YAHABU12@0@Z@2@IPBDI@Z 004fcd60 f i PacketizedTCP.obj
 0002:00045f40       ?Insert@?$List@UMapNode@?$Map@USystemAddress@VENet@@PAVByteQueue@DataStructures@@$1??$defaultMapKeyComparison@USystemAddress@VENet@@@4@YAHABU12@0@Z@DataStructures@@@DataStructures@@QAEXABUMapNode@?$Map@USystemAddress@VENet@@PAVByteQueue@DataStructures@@$1??$defaultMapKeyComparison@USystemAddress@VENet@@@4@YAHABU12@0@Z@2@PBDI@Z 004fcf40 f i PacketizedTCP.obj
 0002:00046090       ?Insert@?$OrderedList@USystemAddress@VENet@@UMapNode@?$Map@USystemAddress@VENet@@PAVByteQueue@DataStructures@@$1??$defaultMapKeyComparison@USystemAddress@VENet@@@4@YAHABU12@0@Z@DataStructures@@$1?NodeComparisonFunc@45@SAHABU12@ABU345@@Z@DataStructures@@QAEIABUSystemAddress@VENet@@ABUMapNode@?$Map@USystemAddress@VENet@@PAVByteQueue@DataStructures@@$1??$defaultMapKeyComparison@USystemAddress@VENet@@@4@YAHABU12@0@Z@2@_NPBDIP6AH01@Z@Z 004fd090 f i PacketizedTCP.obj
 0002:000461e0       ?IsEmpty@?$Queue@PAUPacket@VENet@@@DataStructures@@QBE_NXZ 004fd1e0 f i PacketizedTCP.obj
 0002:00046250       ?IsEmpty@?$Queue@USystemAddress@VENet@@@DataStructures@@QBE_NXZ 004fd250 f i PacketizedTCP.obj
 0002:000462c0       ?NodeComparisonFunc@?$Map@USystemAddress@VENet@@PAVByteQueue@DataStructures@@$1??$defaultMapKeyComparison@USystemAddress@VENet@@@4@YAHABU12@0@Z@DataStructures@@SAHABUSystemAddress@VENet@@ABUMapNode@12@@Z 004fd2c0 f i PacketizedTCP.obj
 0002:00046320       ?Pop@?$Queue@PAUPacket@VENet@@@DataStructures@@QAEPAUPacket@VENet@@XZ 004fd320 f i PacketizedTCP.obj
 0002:00046410       ?Pop@?$Queue@USystemAddress@VENet@@@DataStructures@@QAE?AUSystemAddress@VENet@@XZ 004fd410 f i PacketizedTCP.obj
 0002:00046610       ?Push@?$Queue@PAUPacket@VENet@@@DataStructures@@QAEXABQAUPacket@VENet@@PBDI@Z 004fd610 f i PacketizedTCP.obj
 0002:00046830       ?Push@?$Queue@USystemAddress@VENet@@@DataStructures@@QAEXABUSystemAddress@VENet@@PBDI@Z 004fd830 f i PacketizedTCP.obj
 0002:00046a70       ?PushNotificationsToQueues@PacketizedTCP@VENet@@IAEXXZ 004fda70 f   PacketizedTCP.obj
 0002:00046fc0       ?Receive@PacketizedTCP@VENet@@QAEPAUPacket@2@XZ 004fdfc0 f   PacketizedTCP.obj
 0002:00047790       ?RemoveAtIndex@?$List@UMapNode@?$Map@USystemAddress@VENet@@PAVByteQueue@DataStructures@@$1??$defaultMapKeyComparison@USystemAddress@VENet@@@4@YAHABU12@0@Z@DataStructures@@@DataStructures@@QAEXI@Z 004fe790 f i PacketizedTCP.obj
 0002:00047890       ?RemoveAtIndex@?$Map@USystemAddress@VENet@@PAVByteQueue@DataStructures@@$1??$defaultMapKeyComparison@USystemAddress@VENet@@@4@YAHABU12@0@Z@DataStructures@@QAEXI@Z 004fe890 f i PacketizedTCP.obj
 0002:000478f0       ?RemoveAtIndex@?$OrderedList@USystemAddress@VENet@@UMapNode@?$Map@USystemAddress@VENet@@PAVByteQueue@DataStructures@@$1??$defaultMapKeyComparison@USystemAddress@VENet@@@4@YAHABU12@0@Z@DataStructures@@$1?NodeComparisonFunc@45@SAHABU12@ABU345@@Z@DataStructures@@QAEXI@Z 004fe8f0 f i PacketizedTCP.obj
 0002:00047950       ?RemoveFromConnectionList@PacketizedTCP@VENet@@IAEXABUSystemAddress@2@@Z 004fe950 f   PacketizedTCP.obj
 0002:00047a40       ?RemoveFromEnd@?$List@PAVPluginInterface2@VENet@@@DataStructures@@QAEXI@Z 004fea40 f i PacketizedTCP.obj
 0002:00047ae0       ?RemoveFromEnd@?$List@UMapNode@?$Map@USystemAddress@VENet@@PAVByteQueue@DataStructures@@$1??$defaultMapKeyComparison@USystemAddress@VENet@@@4@YAHABU12@0@Z@DataStructures@@@DataStructures@@QAEXI@Z 004feae0 f i PacketizedTCP.obj
 0002:00047b80       ?ReturnOutgoingPacket@PacketizedTCP@VENet@@IAEPAUPacket@2@XZ 004feb80 f   PacketizedTCP.obj
 0002:00047cd0       ?SaveLastSearch@?$Map@USystemAddress@VENet@@PAVByteQueue@DataStructures@@$1??$defaultMapKeyComparison@USystemAddress@VENet@@@4@YAHABU12@0@Z@DataStructures@@IBEXABUSystemAddress@VENet@@I@Z 004fecd0 f i PacketizedTCP.obj
 0002:00047d10       ?Send@PacketizedTCP@VENet@@QAEXPBDIABUSystemAddress@2@_N@Z 004fed10 f   PacketizedTCP.obj
 0002:00047e70       ?SendList@PacketizedTCP@VENet@@QAE_NPAPBDPBHHABUSystemAddress@2@_N@Z 004fee70 f   PacketizedTCP.obj
 0002:00048140       ?SetNew@?$Map@USystemAddress@VENet@@PAVByteQueue@DataStructures@@$1??$defaultMapKeyComparison@USystemAddress@VENet@@@4@YAHABU12@0@Z@DataStructures@@QAEXABUSystemAddress@VENet@@ABQAVByteQueue@2@@Z 004ff140 f i PacketizedTCP.obj
 0002:000482b0       ?Size@?$List@PAVPluginInterface2@VENet@@@DataStructures@@QBEIXZ 004ff2b0 f i PacketizedTCP.obj
 0002:000482f0       ?Size@?$List@UMapNode@?$Map@USystemAddress@VENet@@PAVByteQueue@DataStructures@@$1??$defaultMapKeyComparison@USystemAddress@VENet@@@4@YAHABU12@0@Z@DataStructures@@@DataStructures@@QBEIXZ 004ff2f0 f i PacketizedTCP.obj
 0002:00048330       ?Size@?$Map@USystemAddress@VENet@@PAVByteQueue@DataStructures@@$1??$defaultMapKeyComparison@USystemAddress@VENet@@@4@YAHABU12@0@Z@DataStructures@@QBEIXZ 004ff330 f i PacketizedTCP.obj
 0002:00048380       ?Size@?$OrderedList@USystemAddress@VENet@@UMapNode@?$Map@USystemAddress@VENet@@PAVByteQueue@DataStructures@@$1??$defaultMapKeyComparison@USystemAddress@VENet@@@4@YAHABU12@0@Z@DataStructures@@$1?NodeComparisonFunc@45@SAHABU12@ABU345@@Z@DataStructures@@QBEIXZ 004ff380 f i PacketizedTCP.obj
 0002:000483d0       ?Size@?$Queue@PAUPacket@VENet@@@DataStructures@@QBEIXZ 004ff3d0 f i PacketizedTCP.obj
 0002:00048440       ?Start@PacketizedTCP@VENet@@QAE_NGGHG@Z 004ff440 f   PacketizedTCP.obj
 0002:00048540       ?Stop@PacketizedTCP@VENet@@QAEXXZ 004ff540 f   PacketizedTCP.obj
 0002:00048670       ??$OP_DELETE@VPacketLogger@VENet@@@VENet@@YAXPAVPacketLogger@0@PBDI@Z 004ff670 f i PacketLogger.obj
 0002:00048710       ??$OP_NEW@VPacketLogger@VENet@@@VENet@@YAPAVPacketLogger@0@PBDI@Z 004ff710 f i PacketLogger.obj
 0002:00048800       ??0PacketLogger@VENet@@QAE@XZ 004ff800 f   PacketLogger.obj
 0002:000488b0       ??1PacketLogger@VENet@@UAE@XZ 004ff8b0 f   PacketLogger.obj
 0002:00048910       ??Buint24_t@VENet@@QAEIXZ  004ff910 f i PacketLogger.obj
 0002:00048950       ??_EPacketLogger@VENet@@UAEPAXI@Z 004ff950 f i PacketLogger.obj
 0002:00048950       ??_GPacketLogger@VENet@@UAEPAXI@Z 004ff950 f i PacketLogger.obj
 0002:000489c0       ?AddToLog@PacketLogger@VENet@@MAEXPBD@Z 004ff9c0 f   PacketLogger.obj
 0002:00048a30       ?BaseIDTOString@PacketLogger@VENet@@SAPBDE@Z 004ffa30 f   PacketLogger.obj
 0002:000490c0       ?DestroyInstance@PacketLogger@VENet@@SAXPAV12@@Z 005000c0 f   PacketLogger.obj
 0002:00049120       ?FormatLine@PacketLogger@VENet@@UAEXPADPBD1II1I_KABUSystemAddress@2@3IIII@Z 00500120 f   PacketLogger.obj
 0002:00049370       ?FormatLine@PacketLogger@VENet@@UAEXPADPBD1IIEI_KABUSystemAddress@2@3IIII@Z 00500370 f   PacketLogger.obj
 0002:000494f0       ?GetInstance@PacketLogger@VENet@@SAPAV12@XZ 005004f0 f   PacketLogger.obj
 0002:00049550       ?GetLocalTime@PacketLogger@VENet@@IAEXQAD@Z 00500550 f   PacketLogger.obj
 0002:000496c0       ?IDTOString@PacketLogger@VENet@@IAEPBDE@Z 005006c0 f   PacketLogger.obj
 0002:00049750       ?LogHeader@PacketLogger@VENet@@UAEXXZ 00500750 f   PacketLogger.obj
 0002:000497c0       ?OnAck@PacketLogger@VENet@@UAEXIUSystemAddress@2@I@Z 005007c0 f   PacketLogger.obj
 0002:000499e0       ?OnDirectSocketReceive@PacketLogger@VENet@@UAEXPBDIUSystemAddress@2@@Z 005009e0 f   PacketLogger.obj
 0002:00049b90       ?OnDirectSocketSend@PacketLogger@VENet@@UAEXPBDIUSystemAddress@2@@Z 00500b90 f   PacketLogger.obj
 0002:00049d20       ?OnInternalPacket@PacketLogger@VENet@@UAEXPAUInternalPacket@2@IUSystemAddress@2@IH@Z 00500d20 f   PacketLogger.obj
 0002:0004a0a0       ?OnPushBackPacket@PacketLogger@VENet@@UAEXPBDIUSystemAddress@2@@Z 005010a0 f   PacketLogger.obj
 0002:0004a2f0       ?OnReliabilityLayerNotification@PacketLogger@VENet@@UAEXPBDIUSystemAddress@2@_N@Z 005012f0 f   PacketLogger.obj
 0002:0004a4d0       ?SetLogDirectMessages@PacketLogger@VENet@@QAEX_N@Z 005014d0 f   PacketLogger.obj
 0002:0004a520       ?SetPrefix@PacketLogger@VENet@@UAEXPBD@Z 00501520 f   PacketLogger.obj
 0002:0004a5b0       ?SetPrintAcks@PacketLogger@VENet@@UAEX_N@Z 005015b0 f   PacketLogger.obj
 0002:0004a600       ?SetPrintID@PacketLogger@VENet@@UAEX_N@Z 00501600 f   PacketLogger.obj
 0002:0004a650       ?SetSuffix@PacketLogger@VENet@@UAEXPBD@Z 00501650 f   PacketLogger.obj
 0002:0004a6f0       ?UserIDTOString@PacketLogger@VENet@@MAEPBDE@Z 005016f0 f   PacketLogger.obj
 0002:0004a760       ?WriteLog@PacketLogger@VENet@@UAEXPBD@Z 00501760 f   PacketLogger.obj
 0002:0004a7d0       ?WriteMiscellaneous@PacketLogger@VENet@@UAEXPBD0@Z 005017d0 f   PacketLogger.obj
 0002:0004aa40       ??0PacketOutputWindowLogger@VENet@@QAE@XZ 00501a40 f   PacketOutputWindowLogger.obj
 0002:0004aaa0       ??1PacketOutputWindowLogger@VENet@@UAE@XZ 00501aa0 f   PacketOutputWindowLogger.obj
 0002:0004ab00       ??_EPacketOutputWindowLogger@VENet@@UAEPAXI@Z 00501b00 f i PacketOutputWindowLogger.obj
 0002:0004ab00       ??_GPacketOutputWindowLogger@VENet@@UAEPAXI@Z 00501b00 f i PacketOutputWindowLogger.obj
 0002:0004ab70       ?WriteLog@PacketOutputWindowLogger@VENet@@UAEXPBD@Z 00501b70 f   PacketOutputWindowLogger.obj
 0002:0004ac80       ??0PluginInterface2@VENet@@QAE@XZ 00501c80 f   PluginInterface2.obj
 0002:0004ace0       ??1PluginInterface2@VENet@@UAE@XZ 00501ce0 f   PluginInterface2.obj
 0002:0004ad20       ??_GPluginInterface2@VENet@@UAEPAXI@Z 00501d20 f i PluginInterface2.obj
 0002:0004ad20       ??_EPluginInterface2@VENet@@UAEPAXI@Z 00501d20 f i PluginInterface2.obj
 0002:0004ad90       ?AllocatePacketUnified@PluginInterface2@VENet@@IAEPAUPacket@2@I@Z 00501d90 f   PluginInterface2.obj
 0002:0004aee0       ?DeallocPacketUnified@PluginInterface2@VENet@@IAEXPAUPacket@2@@Z 00501ee0 f   PluginInterface2.obj
 0002:0004afe0       ?GetMyGUIDUnified@PluginInterface2@VENet@@QBE?AUVENetGUID@2@XZ 00501fe0 f   PluginInterface2.obj
 0002:0004b0a0       ?PushBackPacketUnified@PluginInterface2@VENet@@IAEXPAUPacket@2@_N@Z 005020a0 f   PluginInterface2.obj
 0002:0004b1b0       ?SendListUnified@PluginInterface2@VENet@@IAE_NPAPBDPBHHW4PacketPriority@@W4PacketReliability@@DUAddressOrGUID@2@_N@Z 005021b0 f   PluginInterface2.obj
 0002:0004b4b0       ?SendUnified@PluginInterface2@VENet@@IAEXPBDHW4PacketPriority@@W4PacketReliability@@DUAddressOrGUID@2@_N@Z 005024b0 f   PluginInterface2.obj
 0002:0004b6a0       ?SendUnified@PluginInterface2@VENet@@IAEXPBVBitStream@2@W4PacketPriority@@W4PacketReliability@@DUAddressOrGUID@2@_N@Z 005026a0 f   PluginInterface2.obj
 0002:0004b8b0       ?SetPacketizedTCP@PluginInterface2@VENet@@QAEXPAVPacketizedTCP@2@@Z 005028b0 f   PluginInterface2.obj
 0002:0004b900       ?SetRakPeerInterface@PluginInterface2@VENet@@QAEXPAVVEPeerInterface@2@@Z 00502900 f   PluginInterface2.obj
 0002:0004b950       ??$OP_DELETE_ARRAY@PAVRackspaceEventCallback@VENet@@@VENet@@YAXPAPAVRackspaceEventCallback@0@PBDI@Z 00502950 f i Rackspace.obj
 0002:0004b9b0       ??$OP_DELETE_ARRAY@URackspaceOperation@Rackspace@VENet@@@VENet@@YAXPAURackspaceOperation@Rackspace@0@PBDI@Z 005029b0 f i Rackspace.obj
 0002:0004ba40       ??$OP_NEW_ARRAY@PAVRackspaceEventCallback@VENet@@@VENet@@YAPAPAVRackspaceEventCallback@0@HPBDI@Z 00502a40 f i Rackspace.obj
 0002:0004bac0       ??$OP_NEW_ARRAY@URackspaceOperation@Rackspace@VENet@@@VENet@@YAPAURackspaceOperation@Rackspace@0@HPBDI@Z 00502ac0 f i Rackspace.obj
 0002:0004bc20       ??0?$List@PAVRackspaceEventCallback@VENet@@@DataStructures@@QAE@XZ 00502c20 f i Rackspace.obj
 0002:0004bc80       ??0?$List@URackspaceOperation@Rackspace@VENet@@@DataStructures@@QAE@XZ 00502c80 f i Rackspace.obj
 0002:0004bce0       ??0Rackspace@VENet@@QAE@XZ 00502ce0 f   Rackspace.obj
 0002:0004be90       ??0RackspaceOperation@Rackspace@VENet@@QAE@ABU012@@Z 00502e90 f i Rackspace.obj
 0002:0004bfe0       ??0RackspaceOperation@Rackspace@VENet@@QAE@XZ 00502fe0 f i Rackspace.obj
 0002:0004c0c0       ??1?$List@PAVRackspaceEventCallback@VENet@@@DataStructures@@QAE@XZ 005030c0 f i Rackspace.obj
 0002:0004c130       ??1?$List@URackspaceOperation@Rackspace@VENet@@@DataStructures@@QAE@XZ 00503130 f i Rackspace.obj
 0002:0004c1a0       ??1Rackspace@VENet@@QAE@XZ 005031a0 f   Rackspace.obj
 0002:0004c340       ??1RackspaceOperation@Rackspace@VENet@@QAE@XZ 00503340 f i Rackspace.obj
 0002:0004c410       ??4RackspaceOperation@Rackspace@VENet@@QAEAAU012@ABU012@@Z 00503410 f i Rackspace.obj
 0002:0004c4f0       ??A?$List@PAVRackspaceEventCallback@VENet@@@DataStructures@@QBEAAPAVRackspaceEventCallback@VENet@@I@Z 005034f0 f i Rackspace.obj
 0002:0004c590       ??A?$List@URackspaceOperation@Rackspace@VENet@@@DataStructures@@QBEAAURackspaceOperation@Rackspace@VENet@@I@Z 00503590 f i Rackspace.obj
 0002:0004c630       ??_ERackspaceOperation@Rackspace@VENet@@QAEPAXI@Z 00503630 f i Rackspace.obj
 0002:0004c6f0       ?AddEventCallback@Rackspace@VENet@@QAEXPAVRackspaceEventCallback@2@@Z 005036f0 f   Rackspace.obj
 0002:0004c780       ?AddOperation@Rackspace@VENet@@QAEXW4RackspaceOperationType@2@VVEString@2@11@Z 00503780 f   Rackspace.obj
 0002:0004c950       ?Authenticate@Rackspace@VENet@@QAE?AUSystemAddress@2@PAVTCPInterface@2@PBD11@Z 00503950 f   Rackspace.obj
 0002:0004cd00       ?Clear@?$List@PAVRackspaceEventCallback@VENet@@@DataStructures@@QAEX_NPBDI@Z 00503d00 f i Rackspace.obj
 0002:0004cdb0       ?ClearEventCallbacks@Rackspace@VENet@@QAEXXZ 00503db0 f   Rackspace.obj
 0002:0004ce20       ?ConfirmResizedServer@Rackspace@VENet@@QAEXVVEString@2@@Z 00503e20 f   Rackspace.obj
 0002:0004cfc0       ?ConnectToServerManagementDomain@Rackspace@VENet@@IAE_NAAURackspaceOperation@12@@Z 00503fc0 f   Rackspace.obj
 0002:0004d100       ?CreateImage@Rackspace@VENet@@QAEXVVEString@2@0@Z 00504100 f   Rackspace.obj
 0002:0004d2c0       ?CreateServer@Rackspace@VENet@@QAEXVVEString@2@00@Z 005042c0 f   Rackspace.obj
 0002:0004d4a0       ?CreateSharedIPGroup@Rackspace@VENet@@QAEXVVEString@2@0@Z 005044a0 f   Rackspace.obj
 0002:0004d6e0       ?DeleteImage@Rackspace@VENet@@QAEXVVEString@2@@Z 005046e0 f   Rackspace.obj
 0002:0004d830       ?DeleteServer@Rackspace@VENet@@QAEXVVEString@2@@Z 00504830 f   Rackspace.obj
 0002:0004d980       ?DeleteServerAddress@Rackspace@VENet@@QAEXVVEString@2@0@Z 00504980 f   Rackspace.obj
 0002:0004daf0       ?DeleteSharedIPGroup@Rackspace@VENet@@QAEXVVEString@2@@Z 00504af0 f   Rackspace.obj
 0002:0004dc40       ?EventTypeToString@Rackspace@VENet@@SAPBDW4RackspaceEventType@2@@Z 00504c40 f   Rackspace.obj
 0002:0004dd80       ?ExecuteOperation@Rackspace@VENet@@IAE_NAAURackspaceOperation@12@@Z 00504d80 f   Rackspace.obj
 0002:0004df80       ?GetFlavorDetails@Rackspace@VENet@@QAEXVVEString@2@@Z 00504f80 f   Rackspace.obj
 0002:0004e0d0       ?GetImageDetails@Rackspace@VENet@@QAEXVVEString@2@@Z 005050d0 f   Rackspace.obj
 0002:0004e220       ?GetIndexOf@?$List@PAVRackspaceEventCallback@VENet@@@DataStructures@@QBEIABQAVRackspaceEventCallback@VENet@@@Z 00505220 f i Rackspace.obj
 0002:0004e2a0       ?GetOperationOfTypeIndex@Rackspace@VENet@@IAEIW4RackspaceOperationType@2@@Z 005052a0 f   Rackspace.obj
 0002:0004e340       ?GetServerDetails@Rackspace@VENet@@QAEXVVEString@2@@Z 00505340 f   Rackspace.obj
 0002:0004e490       ?GetSharedIPGroupDetails@Rackspace@VENet@@QAEXVVEString@2@@Z 00505490 f   Rackspace.obj
 0002:0004e5e0       ?HasOperationOfType@Rackspace@VENet@@IAE_NW4RackspaceOperationType@2@@Z 005055e0 f   Rackspace.obj
 0002:0004e680       ?Insert@?$List@PAVRackspaceEventCallback@VENet@@@DataStructures@@QAEXABQAVRackspaceEventCallback@VENet@@PBDI@Z 00505680 f i Rackspace.obj
 0002:0004e7d0       ?Insert@?$List@URackspaceOperation@Rackspace@VENet@@@DataStructures@@QAEXABURackspaceOperation@Rackspace@VENet@@PBDI@Z 005057d0 f i Rackspace.obj
 0002:0004e920       ?ListFlavors@Rackspace@VENet@@QAEXXZ 00505920 f   Rackspace.obj
 0002:0004ea50       ?ListImages@Rackspace@VENet@@QAEXXZ 00505a50 f   Rackspace.obj
 0002:0004eb80       ?ListServerAddresses@Rackspace@VENet@@QAEXVVEString@2@@Z 00505b80 f   Rackspace.obj
 0002:0004ecd0       ?ListServers@Rackspace@VENet@@QAEXXZ 00505cd0 f   Rackspace.obj
 0002:0004ee00       ?ListServersWithDetails@Rackspace@VENet@@QAEXXZ 00505e00 f   Rackspace.obj
 0002:0004ef30       ?ListSharedIPGroups@Rackspace@VENet@@QAEXXZ 00505f30 f   Rackspace.obj
 0002:0004f060       ?ListSharedIPGroupsWithDetails@Rackspace@VENet@@QAEXXZ 00506060 f   Rackspace.obj
 0002:0004f190       ?OnClosedConnection@Rackspace@VENet@@QAEXUSystemAddress@2@@Z 00506190 f   Rackspace.obj
 0002:000506c0       ?OnReceive@Rackspace@VENet@@QAEXPAUPacket@2@@Z 005076c0 f   Rackspace.obj
 0002:000507b0       ?Push@?$List@PAVRackspaceEventCallback@VENet@@@DataStructures@@QAEXABQAVRackspaceEventCallback@VENet@@PBDI@Z 005077b0 f i Rackspace.obj
 0002:00050810       ?ReadLine@Rackspace@VENet@@IAEXPBD0AAVVEString@2@@Z 00507810 f   Rackspace.obj
 0002:00050970       ?RebootServer@Rackspace@VENet@@QAEXVVEString@2@0@Z 00507970 f   Rackspace.obj
 0002:00050b30       ?RebuildServer@Rackspace@VENet@@QAEXVVEString@2@0@Z 00507b30 f   Rackspace.obj
 0002:00050cf0       ?RemoveAtIndex@?$List@PAVRackspaceEventCallback@VENet@@@DataStructures@@QAEXI@Z 00507cf0 f i Rackspace.obj
 0002:00050de0       ?RemoveAtIndex@?$List@URackspaceOperation@Rackspace@VENet@@@DataStructures@@QAEXI@Z 00507de0 f i Rackspace.obj
 0002:00050ee0       ?RemoveEventCallback@Rackspace@VENet@@QAEXPAVRackspaceEventCallback@2@@Z 00507ee0 f   Rackspace.obj
 0002:00050f50       ?RemoveFromEnd@?$List@PAVRackspaceEventCallback@VENet@@@DataStructures@@QAEXI@Z 00507f50 f i Rackspace.obj
 0002:00050ff0       ?RemoveFromEnd@?$List@URackspaceOperation@Rackspace@VENet@@@DataStructures@@QAEXI@Z 00507ff0 f i Rackspace.obj
 0002:00051090       ?ResizeServer@Rackspace@VENet@@QAEXVVEString@2@0@Z 00508090 f   Rackspace.obj
 0002:00051250       ?RevertResizedServer@Rackspace@VENet@@QAEXVVEString@2@@Z 00508250 f   Rackspace.obj
 0002:000513f0       ?ShareServerAddress@Rackspace@VENet@@QAEXVVEString@2@0@Z 005083f0 f   Rackspace.obj
 0002:00051560       ?Size@?$List@PAVRackspaceEventCallback@VENet@@@DataStructures@@QBEIXZ 00508560 f i Rackspace.obj
 0002:000515a0       ?Size@?$List@URackspaceOperation@Rackspace@VENet@@@DataStructures@@QBEIXZ 005085a0 f i Rackspace.obj
 0002:000515e0       ?UpdateServerNameOrPassword@Rackspace@VENet@@QAEXVVEString@2@00@Z 005085e0 f   Rackspace.obj
 0002:00051900       ?strstr@@YAPADPADPBD@Z     00508900 f i Rackspace.obj
 0002:00051960       ??0VENetRandom@VENet@@QAE@XZ 00508960 f   Rand.obj
 0002:000519b0       ??1VENetRandom@VENet@@QAE@XZ 005089b0 f   Rand.obj
 0002:000519f0       ?FillBufferMT@VENetRandom@VENet@@QAEXPAXI@Z 005089f0 f   Rand.obj
 0002:00051a70       ?FrandomMT@VENetRandom@VENet@@QAEMXZ 00508a70 f   Rand.obj
 0002:00051ae0       ?RandomMT@VENetRandom@VENet@@QAEIXZ 00508ae0 f   Rand.obj
 0002:00051b50       ?ReloadMT@VENetRandom@VENet@@QAEIXZ 00508b50 f   Rand.obj
 0002:00051bc0       ?SeedMT@VENetRandom@VENet@@QAEXI@Z 00508bc0 f   Rand.obj
 0002:00051c60       ?fillBufferMT@@YAXPAXI@Z   00508c60 f   Rand.obj
 0002:00051cd0       ?fillBufferMT@@YAXPAXIPAIAAPAIAAH@Z 00508cd0 f   Rand.obj
 0002:00051de0       ?frandomMT@@YAMPAIAAPAIAAH@Z 00508de0 f   Rand.obj
 0002:00051e90       ?frandomMT@@YAMXZ          00508e90 f   Rand.obj
 0002:00051ef0       ?randomMT@@YAIPAIAAPAIAAH@Z 00508ef0 f   Rand.obj
 0002:00051fd0       ?randomMT@@YAIXZ           00508fd0 f   Rand.obj
 0002:00052030       ?reloadMT@@YAIPAIAAPAIAAH@Z 00509030 f   Rand.obj
 0002:000522f0       ?reloadMT@@YAIXZ           005092f0 f   Rand.obj
 0002:00052350       ?seedMT@@YAXI@Z            00509350 f   Rand.obj
 0002:000523b0       ?seedMT@@YAXIPAIAAPAIAAH@Z 005093b0 f   Rand.obj
 0002:00052460       ??$OP_DELETE@UReadyEventNode@ReadyEvent@VENet@@@VENet@@YAXPAUReadyEventNode@ReadyEvent@0@PBDI@Z 00509460 f i ReadyEvent.obj
 0002:000524f0       ??$OP_DELETE@VReadyEvent@VENet@@@VENet@@YAXPAVReadyEvent@0@PBDI@Z 005094f0 f i ReadyEvent.obj
 0002:00052590       ??$OP_DELETE_ARRAY@PAUReadyEventNode@ReadyEvent@VENet@@@VENet@@YAXPAPAUReadyEventNode@ReadyEvent@0@PBDI@Z 00509590 f i ReadyEvent.obj
 0002:000525f0       ??$OP_DELETE_ARRAY@URemoteSystem@ReadyEvent@VENet@@@VENet@@YAXPAURemoteSystem@ReadyEvent@0@PBDI@Z 005095f0 f i ReadyEvent.obj
 0002:00052650       ??$OP_NEW@UReadyEventNode@ReadyEvent@VENet@@@VENet@@YAPAUReadyEventNode@ReadyEvent@0@PBDI@Z 00509650 f i ReadyEvent.obj
 0002:00052730       ??$OP_NEW@VReadyEvent@VENet@@@VENet@@YAPAVReadyEvent@0@PBDI@Z 00509730 f i ReadyEvent.obj
 0002:00052810       ??$OP_NEW_ARRAY@PAUReadyEventNode@ReadyEvent@VENet@@@VENet@@YAPAPAUReadyEventNode@ReadyEvent@0@HPBDI@Z 00509810 f i ReadyEvent.obj
 0002:00052890       ??$OP_NEW_ARRAY@URemoteSystem@ReadyEvent@VENet@@@VENet@@YAPAURemoteSystem@ReadyEvent@0@HPBDI@Z 00509890 f i ReadyEvent.obj
 0002:000529c0       ??$Read@H@BitStream@VENet@@QAE_NAAH@Z 005099c0 f i ReadyEvent.obj
 0002:00052ad0       ??$Write@H@BitStream@VENet@@QAEXABH@Z 00509ad0 f i ReadyEvent.obj
 0002:00052bc0       ??0?$List@PAUReadyEventNode@ReadyEvent@VENet@@@DataStructures@@QAE@XZ 00509bc0 f i ReadyEvent.obj
 0002:00052c20       ??0?$List@URemoteSystem@ReadyEvent@VENet@@@DataStructures@@QAE@XZ 00509c20 f i ReadyEvent.obj
 0002:00052c80       ??0?$OrderedList@HPAUReadyEventNode@ReadyEvent@VENet@@$1?ReadyEventNodeComp@23@SAHABHABQAU123@@Z@DataStructures@@QAE@XZ 00509c80 f i ReadyEvent.obj
 0002:00052ce0       ??0?$OrderedList@USystemAddress@VENet@@URemoteSystem@ReadyEvent@2@$1?RemoteSystemCompBySystemAddress@42@SAHABU12@ABU342@@Z@DataStructures@@QAE@XZ 00509ce0 f i ReadyEvent.obj
 0002:00052d40       ??0ReadyEvent@VENet@@QAE@XZ 00509d40 f   ReadyEvent.obj
 0002:00052e00       ??0ReadyEventNode@ReadyEvent@VENet@@QAE@XZ 00509e00 f i ReadyEvent.obj
 0002:00052e60       ??0RemoteSystem@ReadyEvent@VENet@@QAE@XZ 00509e60 f i ReadyEvent.obj
 0002:00052ec0       ??1?$List@PAUReadyEventNode@ReadyEvent@VENet@@@DataStructures@@QAE@XZ 00509ec0 f i ReadyEvent.obj
 0002:00052f30       ??1?$List@URemoteSystem@ReadyEvent@VENet@@@DataStructures@@QAE@XZ 00509f30 f i ReadyEvent.obj
 0002:00052fa0       ??1?$OrderedList@HPAUReadyEventNode@ReadyEvent@VENet@@$1?ReadyEventNodeComp@23@SAHABHABQAU123@@Z@DataStructures@@QAE@XZ 00509fa0 f i ReadyEvent.obj
 0002:00053050       ??1?$OrderedList@USystemAddress@VENet@@URemoteSystem@ReadyEvent@2@$1?RemoteSystemCompBySystemAddress@42@SAHABU12@ABU342@@Z@DataStructures@@QAE@XZ 0050a050 f i ReadyEvent.obj
 0002:00053100       ??1ReadyEvent@VENet@@UAE@XZ 0050a100 f   ReadyEvent.obj
 0002:000531c0       ??1ReadyEventNode@ReadyEvent@VENet@@QAE@XZ 0050a1c0 f i ReadyEvent.obj
 0002:00053220       ??4RemoteSystem@ReadyEvent@VENet@@QAEAAU012@ABU012@@Z 0050a220 f i ReadyEvent.obj
 0002:000532a0       ??A?$List@PAUReadyEventNode@ReadyEvent@VENet@@@DataStructures@@QBEAAPAUReadyEventNode@ReadyEvent@VENet@@I@Z 0050a2a0 f i ReadyEvent.obj
 0002:00053340       ??A?$List@URemoteSystem@ReadyEvent@VENet@@@DataStructures@@QBEAAURemoteSystem@ReadyEvent@VENet@@I@Z 0050a340 f i ReadyEvent.obj
 0002:000533e0       ??A?$OrderedList@HPAUReadyEventNode@ReadyEvent@VENet@@$1?ReadyEventNodeComp@23@SAHABHABQAU123@@Z@DataStructures@@QBEAAPAUReadyEventNode@ReadyEvent@VENet@@I@Z 0050a3e0 f i ReadyEvent.obj
 0002:00053440       ??A?$OrderedList@USystemAddress@VENet@@URemoteSystem@ReadyEvent@2@$1?RemoteSystemCompBySystemAddress@42@SAHABU12@ABU342@@Z@DataStructures@@QBEAAURemoteSystem@ReadyEvent@VENet@@I@Z 0050a440 f i ReadyEvent.obj
 0002:000534a0       ??_GReadyEvent@VENet@@UAEPAXI@Z 0050a4a0 f i ReadyEvent.obj
 0002:000534a0       ??_EReadyEvent@VENet@@UAEPAXI@Z 0050a4a0 f i ReadyEvent.obj
 0002:00053510       ??_GReadyEventNode@ReadyEvent@VENet@@QAEPAXI@Z 0050a510 f i ReadyEvent.obj
 0002:00053580       ?AddToWaitList@ReadyEvent@VENet@@QAE_NHUSystemAddress@2@@Z 0050a580 f   ReadyEvent.obj
 0002:00053810       ?AddToWaitListInternal@ReadyEvent@VENet@@IAE_NIUSystemAddress@2@@Z 0050a810 f   ReadyEvent.obj
 0002:000539a0       ?BroadcastReadyUpdate@ReadyEvent@VENet@@IAEXI_N@Z 0050a9a0 f   ReadyEvent.obj
 0002:00053a50       ?Clear@?$List@PAUReadyEventNode@ReadyEvent@VENet@@@DataStructures@@QAEX_NPBDI@Z 0050aa50 f i ReadyEvent.obj
 0002:00053b00       ?Clear@?$List@URemoteSystem@ReadyEvent@VENet@@@DataStructures@@QAEX_NPBDI@Z 0050ab00 f i ReadyEvent.obj
 0002:00053bb0       ?Clear@?$OrderedList@HPAUReadyEventNode@ReadyEvent@VENet@@$1?ReadyEventNodeComp@23@SAHABHABQAU123@@Z@DataStructures@@QAEX_NPBDI@Z 0050abb0 f i ReadyEvent.obj
 0002:00053c20       ?Clear@?$OrderedList@USystemAddress@VENet@@URemoteSystem@ReadyEvent@2@$1?RemoteSystemCompBySystemAddress@42@SAHABU12@ABU342@@Z@DataStructures@@QAEX_NPBDI@Z 0050ac20 f i ReadyEvent.obj
 0002:00053c90       ?Clear@ReadyEvent@VENet@@IAEXXZ 0050ac90 f   ReadyEvent.obj
 0002:00053d60       ?CreateNewEvent@ReadyEvent@VENet@@IAEIH_N@Z 0050ad60 f   ReadyEvent.obj
 0002:00053e60       ?DeleteEvent@ReadyEvent@VENet@@QAE_NH@Z 0050ae60 f   ReadyEvent.obj
 0002:00053f60       ?DestroyInstance@ReadyEvent@VENet@@SAXPAV12@@Z 0050af60 f   ReadyEvent.obj
 0002:00053fc0       ?ForceCompletion@ReadyEvent@VENet@@QAEXH@Z 0050afc0 f   ReadyEvent.obj
 0002:000540e0       ?GetEventAtIndex@ReadyEvent@VENet@@QBEHI@Z 0050b0e0 f   ReadyEvent.obj
 0002:00054140       ?GetEventListSize@ReadyEvent@VENet@@QBEIXZ 0050b140 f   ReadyEvent.obj
 0002:000541a0       ?GetFromWaitListAtIndex@ReadyEvent@VENet@@QBE?AUSystemAddress@2@HI@Z 0050b1a0 f   ReadyEvent.obj
 0002:000542f0       ?GetIndexFromKey@?$OrderedList@HPAUReadyEventNode@ReadyEvent@VENet@@$1?ReadyEventNodeComp@23@SAHABHABQAU123@@Z@DataStructures@@QBEIABHPA_NP6AH0ABQAUReadyEventNode@ReadyEvent@VENet@@@Z@Z 0050b2f0 f i ReadyEvent.obj
 0002:00054430       ?GetIndexFromKey@?$OrderedList@USystemAddress@VENet@@URemoteSystem@ReadyEvent@2@$1?RemoteSystemCompBySystemAddress@42@SAHABU12@ABU342@@Z@DataStructures@@QBEIABUSystemAddress@VENet@@PA_NP6AH0ABURemoteSystem@ReadyEvent@4@@Z@Z 0050b430 f i ReadyEvent.obj
 0002:00054570       ?GetInstance@ReadyEvent@VENet@@SAPAV12@XZ 0050b570 f   ReadyEvent.obj
 0002:000545d0       ?GetReadyStatus@ReadyEvent@VENet@@QAE?AW4ReadyEventSystemStatus@2@HUSystemAddress@2@@Z 0050b5d0 f   ReadyEvent.obj
 0002:00054750       ?GetRemoteWaitListSize@ReadyEvent@VENet@@QBEIH@Z 0050b750 f   ReadyEvent.obj
 0002:00054830       ?HasData@?$OrderedList@HPAUReadyEventNode@ReadyEvent@VENet@@$1?ReadyEventNodeComp@23@SAHABHABQAU123@@Z@DataStructures@@QBE_NABHP6AH0ABQAUReadyEventNode@ReadyEvent@VENet@@@Z@Z 0050b830 f i ReadyEvent.obj
 0002:000548e0       ?HasData@?$OrderedList@USystemAddress@VENet@@URemoteSystem@ReadyEvent@2@$1?RemoteSystemCompBySystemAddress@42@SAHABU12@ABU342@@Z@DataStructures@@QBE_NABUSystemAddress@VENet@@P6AH0ABURemoteSystem@ReadyEvent@4@@Z@Z 0050b8e0 f i ReadyEvent.obj
 0002:00054990       ?HasEvent@ReadyEvent@VENet@@QAE_NH@Z 0050b990 f   ReadyEvent.obj
 0002:000549f0       ?Insert@?$List@PAUReadyEventNode@ReadyEvent@VENet@@@DataStructures@@QAEXABQAUReadyEventNode@ReadyEvent@VENet@@IPBDI@Z 0050b9f0 f i ReadyEvent.obj
 0002:00054bb0       ?Insert@?$List@PAUReadyEventNode@ReadyEvent@VENet@@@DataStructures@@QAEXABQAUReadyEventNode@ReadyEvent@VENet@@PBDI@Z 0050bbb0 f i ReadyEvent.obj
 0002:00054d00       ?Insert@?$List@URemoteSystem@ReadyEvent@VENet@@@DataStructures@@QAEXABURemoteSystem@ReadyEvent@VENet@@IPBDI@Z 0050bd00 f i ReadyEvent.obj
 0002:00054ee0       ?Insert@?$OrderedList@HPAUReadyEventNode@ReadyEvent@VENet@@$1?ReadyEventNodeComp@23@SAHABHABQAU123@@Z@DataStructures@@QAEIABHABQAUReadyEventNode@ReadyEvent@VENet@@_NPBDIP6AH01@Z@Z 0050bee0 f i ReadyEvent.obj
 0002:00055030       ?InsertAtIndex@?$OrderedList@USystemAddress@VENet@@URemoteSystem@ReadyEvent@2@$1?RemoteSystemCompBySystemAddress@42@SAHABU12@ABU342@@Z@DataStructures@@QAEXABURemoteSystem@ReadyEvent@VENet@@IPBDI@Z 0050c030 f i ReadyEvent.obj
 0002:000550a0       ?IsEventCompleted@ReadyEvent@VENet@@QBE_NH@Z 0050c0a0 f   ReadyEvent.obj
 0002:00055170       ?IsEventCompletedByIndex@ReadyEvent@VENet@@IBE_NI@Z 0050c170 f   ReadyEvent.obj
 0002:00055250       ?IsEventCompletionProcessing@ReadyEvent@VENet@@QBE_NH@Z 0050c250 f   ReadyEvent.obj
 0002:000553e0       ?IsEventSet@ReadyEvent@VENet@@QAE_NH@Z 0050c3e0 f   ReadyEvent.obj
 0002:00055500       ?IsInWaitList@ReadyEvent@VENet@@QAE_NHUSystemAddress@2@@Z 0050c500 f   ReadyEvent.obj
 0002:000555f0       ?OnClosedConnection@ReadyEvent@VENet@@MAEXABUSystemAddress@2@UVENetGUID@2@W4PI2_LostConnectionReason@2@@Z 0050c5f0 f   ReadyEvent.obj
 0002:00055670       ?OnRakPeerShutdown@ReadyEvent@VENet@@MAEXXZ 0050c670 f   ReadyEvent.obj
 0002:000556c0       ?OnReadyEventForceAllSet@ReadyEvent@VENet@@IAEXPAUPacket@2@@Z 0050c6c0 f   ReadyEvent.obj
 0002:000558d0       ?OnReadyEventPacketUpdate@ReadyEvent@VENet@@IAEXPAUPacket@2@@Z 0050c8d0 f   ReadyEvent.obj
 0002:00055c30       ?OnReadyEventQuery@ReadyEvent@VENet@@IAEXPAUPacket@2@@Z 0050cc30 f   ReadyEvent.obj
 0002:00055e50       ?OnReceive@ReadyEvent@VENet@@MAE?AW4PluginReceiveResult@2@PAUPacket@2@@Z 0050ce50 f   ReadyEvent.obj
 0002:00055f60       ?PushCompletionPacket@ReadyEvent@VENet@@IAEXI@Z 0050cf60 f   ReadyEvent.obj
 0002:00055fa0       ?ReadyEventNodeComp@ReadyEvent@VENet@@SAHABHABQAUReadyEventNode@12@@Z 0050cfa0 f   ReadyEvent.obj
 0002:00056010       ?RemoteSystemCompBySystemAddress@ReadyEvent@VENet@@SAHABUSystemAddress@2@ABURemoteSystem@12@@Z 0050d010 f   ReadyEvent.obj
 0002:000560a0       ?RemoveAtIndex@?$List@PAUReadyEventNode@ReadyEvent@VENet@@@DataStructures@@QAEXI@Z 0050d0a0 f i ReadyEvent.obj
 0002:00056190       ?RemoveAtIndex@?$List@URemoteSystem@ReadyEvent@VENet@@@DataStructures@@QAEXI@Z 0050d190 f i ReadyEvent.obj
 0002:00056290       ?RemoveAtIndex@?$OrderedList@HPAUReadyEventNode@ReadyEvent@VENet@@$1?ReadyEventNodeComp@23@SAHABHABQAU123@@Z@DataStructures@@QAEXI@Z 0050d290 f i ReadyEvent.obj
 0002:000562f0       ?RemoveAtIndex@?$OrderedList@USystemAddress@VENet@@URemoteSystem@ReadyEvent@2@$1?RemoteSystemCompBySystemAddress@42@SAHABU12@ABU342@@Z@DataStructures@@QAEXI@Z 0050d2f0 f i ReadyEvent.obj
 0002:00056350       ?RemoveFromAllLists@ReadyEvent@VENet@@IAEXUSystemAddress@2@@Z 0050d350 f   ReadyEvent.obj
 0002:000564e0       ?RemoveFromEnd@?$List@PAUReadyEventNode@ReadyEvent@VENet@@@DataStructures@@QAEXI@Z 0050d4e0 f i ReadyEvent.obj
 0002:00056580       ?RemoveFromEnd@?$List@URemoteSystem@ReadyEvent@VENet@@@DataStructures@@QAEXI@Z 0050d580 f i ReadyEvent.obj
 0002:00056620       ?RemoveFromWaitList@ReadyEvent@VENet@@QAE_NHUSystemAddress@2@@Z 0050d620 f   ReadyEvent.obj
 0002:00056830       ?SendReadyStateQuery@ReadyEvent@VENet@@IAEXIUSystemAddress@2@@Z 0050d830 f   ReadyEvent.obj
 0002:00056990       ?SendReadyUpdate@ReadyEvent@VENet@@IAEXII_N@Z 0050d990 f   ReadyEvent.obj
 0002:00056b70       ?SetEvent@ReadyEvent@VENet@@QAE_NH_N@Z 0050db70 f   ReadyEvent.obj
 0002:00056c60       ?SetEventByIndex@ReadyEvent@VENet@@IAE_NH_N@Z 0050dc60 f   ReadyEvent.obj
 0002:00056d80       ?SetSendChannel@ReadyEvent@VENet@@QAEXE@Z 0050dd80 f   ReadyEvent.obj
 0002:00056dd0       ?Size@?$List@PAUReadyEventNode@ReadyEvent@VENet@@@DataStructures@@QBEIXZ 0050ddd0 f i ReadyEvent.obj
 0002:00056e10       ?Size@?$List@URemoteSystem@ReadyEvent@VENet@@@DataStructures@@QBEIXZ 0050de10 f i ReadyEvent.obj
 0002:00056e50       ?Size@?$OrderedList@HPAUReadyEventNode@ReadyEvent@VENet@@$1?ReadyEventNodeComp@23@SAHABHABQAU123@@Z@DataStructures@@QBEIXZ 0050de50 f i ReadyEvent.obj
 0002:00056ea0       ?Size@?$OrderedList@USystemAddress@VENet@@URemoteSystem@ReadyEvent@2@$1?RemoteSystemCompBySystemAddress@42@SAHABU12@ABU342@@Z@DataStructures@@QBEIXZ 0050dea0 f i ReadyEvent.obj
 0002:00056ef0       ?UpdateReadyStatus@ReadyEvent@VENet@@IAEXI@Z 0050def0 f   ReadyEvent.obj
 0002:00057060       ??$OP_DELETE@UDataAndTime@ReliabilityLayer@VENet@@@VENet@@YAXPAUDataAndTime@ReliabilityLayer@0@PBDI@Z 0050e060 f i ReliabilityLayer.obj
 0002:000570c0       ??$OP_DELETE@USplitPacketChannel@VENet@@@VENet@@YAXPAUSplitPacketChannel@0@PBDI@Z 0050e0c0 f i ReliabilityLayer.obj
 0002:00057150       ??$OP_DELETE_ARRAY@PAUDataAndTime@ReliabilityLayer@VENet@@@VENet@@YAXPAPAUDataAndTime@ReliabilityLayer@0@PBDI@Z 0050e150 f i ReliabilityLayer.obj
 0002:000571b0       ??$OP_DELETE_ARRAY@PAUInternalPacket@VENet@@@VENet@@YAXPAPAUInternalPacket@0@PBDI@Z 0050e1b0 f i ReliabilityLayer.obj
 0002:00057210       ??$OP_DELETE_ARRAY@PAUSplitPacketChannel@VENet@@@VENet@@YAXPAPAUSplitPacketChannel@0@PBDI@Z 0050e210 f i ReliabilityLayer.obj
 0002:00057270       ??$OP_DELETE_ARRAY@U?$RangeNode@Uuint24_t@VENet@@@DataStructures@@@VENet@@YAXPAU?$RangeNode@Uuint24_t@VENet@@@DataStructures@@PBDI@Z 0050e270 f i ReliabilityLayer.obj
 0002:00057300       ??$OP_DELETE_ARRAY@UDatagramHistoryNode@ReliabilityLayer@VENet@@@VENet@@YAXPAUDatagramHistoryNode@ReliabilityLayer@0@PBDI@Z 0050e300 f i ReliabilityLayer.obj
 0002:00057360       ??$OP_DELETE_ARRAY@UHeapNode@?$Heap@_KPAUInternalPacket@VENet@@$0A@@DataStructures@@@VENet@@YAXPAUHeapNode@?$Heap@_KPAUInternalPacket@VENet@@$0A@@DataStructures@@PBDI@Z 0050e360 f i ReliabilityLayer.obj
 0002:000573c0       ??$OP_DELETE_ARRAY@UTimeAndValue2@BPSTracker@VENet@@@VENet@@YAXPAUTimeAndValue2@BPSTracker@0@PBDI@Z 0050e3c0 f i ReliabilityLayer.obj
 0002:00057450       ??$OP_DELETE_ARRAY@UUnreliableWithAckReceiptNode@ReliabilityLayer@VENet@@@VENet@@YAXPAUUnreliableWithAckReceiptNode@ReliabilityLayer@0@PBDI@Z 0050e450 f i ReliabilityLayer.obj
 0002:000574b0       ??$OP_DELETE_ARRAY@_N@VENet@@YAXPA_NPBDI@Z 0050e4b0 f i ReliabilityLayer.obj
 0002:00057510       ??$OP_NEW@UDataAndTime@ReliabilityLayer@VENet@@@VENet@@YAPAUDataAndTime@ReliabilityLayer@0@PBDI@Z 0050e510 f i ReliabilityLayer.obj
 0002:00057570       ??$OP_NEW@USplitPacketChannel@VENet@@@VENet@@YAPAUSplitPacketChannel@0@PBDI@Z 0050e570 f i ReliabilityLayer.obj
 0002:00057650       ??$OP_NEW_ARRAY@PAUDataAndTime@ReliabilityLayer@VENet@@@VENet@@YAPAPAUDataAndTime@ReliabilityLayer@0@HPBDI@Z 0050e650 f i ReliabilityLayer.obj
 0002:000576d0       ??$OP_NEW_ARRAY@PAUInternalPacket@VENet@@@VENet@@YAPAPAUInternalPacket@0@HPBDI@Z 0050e6d0 f i ReliabilityLayer.obj
 0002:00057750       ??$OP_NEW_ARRAY@PAUSplitPacketChannel@VENet@@@VENet@@YAPAPAUSplitPacketChannel@0@HPBDI@Z 0050e750 f i ReliabilityLayer.obj
 0002:000577d0       ??$OP_NEW_ARRAY@U?$RangeNode@Uuint24_t@VENet@@@DataStructures@@@VENet@@YAPAU?$RangeNode@Uuint24_t@VENet@@@DataStructures@@HPBDI@Z 0050e7d0 f i ReliabilityLayer.obj
 0002:00057930       ??$OP_NEW_ARRAY@UDatagramHistoryNode@ReliabilityLayer@VENet@@@VENet@@YAPAUDatagramHistoryNode@ReliabilityLayer@0@HPBDI@Z 0050e930 f i ReliabilityLayer.obj
 0002:00057a60       ??$OP_NEW_ARRAY@UHeapNode@?$Heap@_KPAUInternalPacket@VENet@@$0A@@DataStructures@@@VENet@@YAPAUHeapNode@?$Heap@_KPAUInternalPacket@VENet@@$0A@@DataStructures@@HPBDI@Z 0050ea60 f i ReliabilityLayer.obj
 0002:00057b90       ??$OP_NEW_ARRAY@UTimeAndValue2@BPSTracker@VENet@@@VENet@@YAPAUTimeAndValue2@BPSTracker@0@HPBDI@Z 0050eb90 f i ReliabilityLayer.obj
 0002:00057cf0       ??$OP_NEW_ARRAY@UUnreliableWithAckReceiptNode@ReliabilityLayer@VENet@@@VENet@@YAPAUUnreliableWithAckReceiptNode@ReliabilityLayer@0@HPBDI@Z 0050ecf0 f i ReliabilityLayer.obj
 0002:00057e20       ??$OP_NEW_ARRAY@_N@VENet@@YAPA_NHPBDI@Z 0050ee20 f i ReliabilityLayer.obj
 0002:00057e90       ??$RangeNodeComp@Uuint24_t@VENet@@@DataStructures@@YAHABUuint24_t@VENet@@ABU?$RangeNode@Uuint24_t@VENet@@@0@@Z 0050ee90 f i ReliabilityLayer.obj
 0002:00057f10       ??$Read@M@BitStream@VENet@@QAE_NAAM@Z 0050ef10 f i ReliabilityLayer.obj
 0002:00058020       ??$Read@Uuint24_t@VENet@@@BitStream@VENet@@QAE_NAAUuint24_t@1@@Z 0050f020 f i ReliabilityLayer.obj
 0002:000581d0       ??$Write@M@BitStream@VENet@@QAEXABM@Z 0050f1d0 f i ReliabilityLayer.obj
 0002:000582c0       ??$Write@Uuint24_t@VENet@@@BitStream@VENet@@QAEXABUuint24_t@1@@Z 0050f2c0 f i ReliabilityLayer.obj
 0002:00058430       ??0?$Heap@_KPAUInternalPacket@VENet@@$0A@@DataStructures@@QAE@XZ 0050f430 f i ReliabilityLayer.obj
 0002:00058490       ??0?$List@PAUInternalPacket@VENet@@@DataStructures@@QAE@XZ 0050f490 f i ReliabilityLayer.obj
 0002:000584f0       ??0?$List@PAUSplitPacketChannel@VENet@@@DataStructures@@QAE@XZ 0050f4f0 f i ReliabilityLayer.obj
 0002:00058550       ??0?$List@U?$RangeNode@Uuint24_t@VENet@@@DataStructures@@@DataStructures@@QAE@XZ 0050f550 f i ReliabilityLayer.obj
 0002:000585b0       ??0?$List@UHeapNode@?$Heap@_KPAUInternalPacket@VENet@@$0A@@DataStructures@@@DataStructures@@QAE@XZ 0050f5b0 f i ReliabilityLayer.obj
 0002:00058610       ??0?$List@UUnreliableWithAckReceiptNode@ReliabilityLayer@VENet@@@DataStructures@@QAE@XZ 0050f610 f i ReliabilityLayer.obj
 0002:00058670       ??0?$List@_N@DataStructures@@QAE@XZ 0050f670 f i ReliabilityLayer.obj
 0002:000586d0       ??0?$MemoryPool@UInternalPacket@VENet@@@DataStructures@@QAE@XZ 0050f6d0 f i ReliabilityLayer.obj
 0002:00058730       ??0?$MemoryPool@UInternalPacketRefCountedData@VENet@@@DataStructures@@QAE@XZ 0050f730 f i ReliabilityLayer.obj
 0002:00058790       ??0?$MemoryPool@UMessageNumberNode@ReliabilityLayer@VENet@@@DataStructures@@QAE@XZ 0050f790 f i ReliabilityLayer.obj
 0002:000587f0       ??0?$OrderedList@GPAUSplitPacketChannel@VENet@@$1?SplitPacketChannelComp@2@YAHABGABQAU12@@Z@DataStructures@@QAE@XZ 0050f7f0 f i ReliabilityLayer.obj
 0002:00058850       ??0?$OrderedList@Uuint24_t@VENet@@U?$RangeNode@Uuint24_t@VENet@@@DataStructures@@$1??$RangeNodeComp@Uuint24_t@VENet@@@4@YAHABU12@ABU34@@Z@DataStructures@@QAE@XZ 0050f850 f i ReliabilityLayer.obj
 0002:000588b0       ??0?$Queue@PAUDataAndTime@ReliabilityLayer@VENet@@@DataStructures@@QAE@XZ 0050f8b0 f i ReliabilityLayer.obj
 0002:00058920       ??0?$Queue@PAUInternalPacket@VENet@@@DataStructures@@QAE@XZ 0050f920 f i ReliabilityLayer.obj
 0002:00058990       ??0?$Queue@UDatagramHistoryNode@ReliabilityLayer@VENet@@@DataStructures@@QAE@XZ 0050f990 f i ReliabilityLayer.obj
 0002:00058a00       ??0?$Queue@UTimeAndValue2@BPSTracker@VENet@@@DataStructures@@QAE@XZ 0050fa00 f i ReliabilityLayer.obj
 0002:00058a70       ??0?$Queue@_N@DataStructures@@QAE@XZ 0050fa70 f i ReliabilityLayer.obj
 0002:00058ae0       ??0?$RangeList@Uuint24_t@VENet@@@DataStructures@@QAE@XZ 0050fae0 f i ReliabilityLayer.obj
 0002:00058c00       ??0?$RangeNode@Uuint24_t@VENet@@@DataStructures@@QAE@Uuint24_t@VENet@@0@Z 0050fc00 f i ReliabilityLayer.obj
 0002:00058c90       ??0?$RangeNode@Uuint24_t@VENet@@@DataStructures@@QAE@XZ 0050fc90 f i ReliabilityLayer.obj
 0002:00058cf0       ??0BPSTracker@VENet@@QAE@XZ 0050fcf0 f   ReliabilityLayer.obj
 0002:00058db0       ??0DatagramHeaderFormat@@QAE@XZ 0050fdb0 f i ReliabilityLayer.obj
 0002:00058e10       ??0DatagramHistoryNode@ReliabilityLayer@VENet@@QAE@PAUMessageNumberNode@12@_K@Z 0050fe10 f i ReliabilityLayer.obj
 0002:00058e70       ??0DatagramHistoryNode@ReliabilityLayer@VENet@@QAE@XZ 0050fe70 f i ReliabilityLayer.obj
 0002:00058eb0       ??0HeapNode@?$Heap@_KPAUInternalPacket@VENet@@$0A@@DataStructures@@QAE@AB_KABQAUInternalPacket@VENet@@@Z 0050feb0 f i ReliabilityLayer.obj
 0002:00058f10       ??0HeapNode@?$Heap@_KPAUInternalPacket@VENet@@$0A@@DataStructures@@QAE@XZ 0050ff10 f i ReliabilityLayer.obj
 0002:00058f50       ??0InternalPacket@VENet@@QAE@XZ 0050ff50 f i ReliabilityLayer.obj
 0002:00058fb0       ??0InternalPacketFixedSizeTransmissionHeader@VENet@@QAE@XZ 0050ffb0 f i ReliabilityLayer.obj
 0002:00059020       ??0ReliabilityLayer@VENet@@QAE@XZ 00510020 f   ReliabilityLayer.obj
 0002:00059420       ??0SplitPacketChannel@VENet@@QAE@XZ 00510420 f i ReliabilityLayer.obj
 0002:00059480       ??0TimeAndValue2@BPSTracker@VENet@@QAE@XZ 00510480 f   ReliabilityLayer.obj
 0002:000594c0       ??0TimeAndValue2@BPSTracker@VENet@@QAE@_K0@Z 005104c0 f   ReliabilityLayer.obj
 0002:00059520       ??0UnreliableWithAckReceiptNode@ReliabilityLayer@VENet@@QAE@Uuint24_t@2@I_K@Z 00510520 f i ReliabilityLayer.obj
 0002:000595a0       ??0UnreliableWithAckReceiptNode@ReliabilityLayer@VENet@@QAE@XZ 005105a0 f i ReliabilityLayer.obj
 0002:00059600       ??1?$Heap@_KPAUInternalPacket@VENet@@$0A@@DataStructures@@QAE@XZ 00510600 f i ReliabilityLayer.obj
 0002:00059650       ??1?$List@PAUInternalPacket@VENet@@@DataStructures@@QAE@XZ 00510650 f i ReliabilityLayer.obj
 0002:000596c0       ??1?$List@PAUSplitPacketChannel@VENet@@@DataStructures@@QAE@XZ 005106c0 f i ReliabilityLayer.obj
 0002:00059730       ??1?$List@U?$RangeNode@Uuint24_t@VENet@@@DataStructures@@@DataStructures@@QAE@XZ 00510730 f i ReliabilityLayer.obj
 0002:000597a0       ??1?$List@UHeapNode@?$Heap@_KPAUInternalPacket@VENet@@$0A@@DataStructures@@@DataStructures@@QAE@XZ 005107a0 f i ReliabilityLayer.obj
 0002:00059810       ??1?$List@UUnreliableWithAckReceiptNode@ReliabilityLayer@VENet@@@DataStructures@@QAE@XZ 00510810 f i ReliabilityLayer.obj
 0002:00059880       ??1?$List@_N@DataStructures@@QAE@XZ 00510880 f i ReliabilityLayer.obj
 0002:000598f0       ??1?$MemoryPool@UInternalPacket@VENet@@@DataStructures@@QAE@XZ 005108f0 f i ReliabilityLayer.obj
 0002:00059950       ??1?$MemoryPool@UInternalPacketRefCountedData@VENet@@@DataStructures@@QAE@XZ 00510950 f i ReliabilityLayer.obj
 0002:000599b0       ??1?$MemoryPool@UMessageNumberNode@ReliabilityLayer@VENet@@@DataStructures@@QAE@XZ 005109b0 f i ReliabilityLayer.obj
 0002:00059a10       ??1?$OrderedList@GPAUSplitPacketChannel@VENet@@$1?SplitPacketChannelComp@2@YAHABGABQAU12@@Z@DataStructures@@QAE@XZ 00510a10 f i ReliabilityLayer.obj
 0002:00059ac0       ??1?$OrderedList@Uuint24_t@VENet@@U?$RangeNode@Uuint24_t@VENet@@@DataStructures@@$1??$RangeNodeComp@Uuint24_t@VENet@@@4@YAHABU12@ABU34@@Z@DataStructures@@QAE@XZ 00510ac0 f i ReliabilityLayer.obj
 0002:00059b70       ??1?$Queue@PAUDataAndTime@ReliabilityLayer@VENet@@@DataStructures@@QAE@XZ 00510b70 f i ReliabilityLayer.obj
 0002:00059be0       ??1?$Queue@PAUInternalPacket@VENet@@@DataStructures@@QAE@XZ 00510be0 f i ReliabilityLayer.obj
 0002:00059c50       ??1?$Queue@UDatagramHistoryNode@ReliabilityLayer@VENet@@@DataStructures@@QAE@XZ 00510c50 f i ReliabilityLayer.obj
 0002:00059cc0       ??1?$Queue@UTimeAndValue2@BPSTracker@VENet@@@DataStructures@@QAE@XZ 00510cc0 f i ReliabilityLayer.obj
 0002:00059d30       ??1?$Queue@_N@DataStructures@@QAE@XZ 00510d30 f i ReliabilityLayer.obj
 0002:00059da0       ??1?$RangeList@Uuint24_t@VENet@@@DataStructures@@QAE@XZ 00510da0 f i ReliabilityLayer.obj
 0002:00059e40       ??1?$RangeNode@Uuint24_t@VENet@@@DataStructures@@QAE@XZ 00510e40 f i ReliabilityLayer.obj
 0002:00059e80       ??1BPSTracker@VENet@@QAE@XZ 00510e80 f   ReliabilityLayer.obj
 0002:00059ee0       ??1ReliabilityLayer@VENet@@QAE@XZ 00510ee0 f   ReliabilityLayer.obj
 0002:0005a150       ??1SplitPacketChannel@VENet@@QAE@XZ 00511150 f i ReliabilityLayer.obj
 0002:0005a1b0       ??1TimeAndValue2@BPSTracker@VENet@@QAE@XZ 005111b0 f   ReliabilityLayer.obj
 0002:0005a1f0       ??4?$RangeNode@Uuint24_t@VENet@@@DataStructures@@QAEAAU01@ABU01@@Z 005111f0 f i ReliabilityLayer.obj
 0002:0005a260       ??4InternalPacket@VENet@@QAEAAU01@ABU01@@Z 00511260 f i ReliabilityLayer.obj
 0002:0005a410       ??4InternalPacketFixedSizeTransmissionHeader@VENet@@QAEAAU01@ABU01@@Z 00511410 f i ReliabilityLayer.obj
 0002:0005a500       ??4UnreliableWithAckReceiptNode@ReliabilityLayer@VENet@@QAEAAU012@ABU012@@Z 00511500 f i ReliabilityLayer.obj
 0002:0005a580       ??A?$Heap@_KPAUInternalPacket@VENet@@$0A@@DataStructures@@QBEAAPAUInternalPacket@VENet@@I@Z 00511580 f i ReliabilityLayer.obj
 0002:0005a5e0       ??A?$List@PAUInternalPacket@VENet@@@DataStructures@@QBEAAPAUInternalPacket@VENet@@I@Z 005115e0 f i ReliabilityLayer.obj
 0002:0005a680       ??A?$List@PAUSplitPacketChannel@VENet@@@DataStructures@@QBEAAPAUSplitPacketChannel@VENet@@I@Z 00511680 f i ReliabilityLayer.obj
 0002:0005a720       ??A?$List@U?$RangeNode@Uuint24_t@VENet@@@DataStructures@@@DataStructures@@QBEAAU?$RangeNode@Uuint24_t@VENet@@@1@I@Z 00511720 f i ReliabilityLayer.obj
 0002:0005a7c0       ??A?$List@UHeapNode@?$Heap@_KPAUInternalPacket@VENet@@$0A@@DataStructures@@@DataStructures@@QBEAAUHeapNode@?$Heap@_KPAUInternalPacket@VENet@@$0A@@1@I@Z 005117c0 f i ReliabilityLayer.obj
 0002:0005a860       ??A?$List@UUnreliableWithAckReceiptNode@ReliabilityLayer@VENet@@@DataStructures@@QBEAAUUnreliableWithAckReceiptNode@ReliabilityLayer@VENet@@I@Z 00511860 f i ReliabilityLayer.obj
 0002:0005a900       ??A?$List@_N@DataStructures@@QBEAA_NI@Z 00511900 f i ReliabilityLayer.obj
 0002:0005a9a0       ??A?$OrderedList@GPAUSplitPacketChannel@VENet@@$1?SplitPacketChannelComp@2@YAHABGABQAU12@@Z@DataStructures@@QBEAAPAUSplitPacketChannel@VENet@@I@Z 005119a0 f i ReliabilityLayer.obj
 0002:0005aa00       ??A?$OrderedList@Uuint24_t@VENet@@U?$RangeNode@Uuint24_t@VENet@@@DataStructures@@$1??$RangeNodeComp@Uuint24_t@VENet@@@4@YAHABU12@ABU34@@Z@DataStructures@@QBEAAU?$RangeNode@Uuint24_t@VENet@@@1@I@Z 00511a00 f i ReliabilityLayer.obj
 0002:0005aa60       ??A?$Queue@PAUDataAndTime@ReliabilityLayer@VENet@@@DataStructures@@QBEAAPAUDataAndTime@ReliabilityLayer@VENet@@I@Z 00511a60 f i ReliabilityLayer.obj
 0002:0005ab30       ??A?$Queue@UDatagramHistoryNode@ReliabilityLayer@VENet@@@DataStructures@@QBEAAUDatagramHistoryNode@ReliabilityLayer@VENet@@I@Z 00511b30 f i ReliabilityLayer.obj
 0002:0005ac00       ??A?$Queue@_N@DataStructures@@QBEAA_NI@Z 00511c00 f i ReliabilityLayer.obj
 0002:0005acd0       ??Euint24_t@VENet@@QAE?AU01@XZ 00511cd0 f i ReliabilityLayer.obj
 0002:0005ad50       ??Fuint24_t@VENet@@QAE?AU01@H@Z 00511d50 f i ReliabilityLayer.obj
 0002:0005ae20       ??Guint24_t@VENet@@QBE?BU01@ABI@Z 00511e20 f i ReliabilityLayer.obj
 0002:0005aea0       ??Huint24_t@VENet@@QBE?BU01@ABI@Z 00511ea0 f i ReliabilityLayer.obj
 0002:0005af20       ??Iuint24_t@VENet@@QAE?AU01@ABI@Z 00511f20 f i ReliabilityLayer.obj
 0002:0005afa0       ??_E?$RangeNode@Uuint24_t@VENet@@@DataStructures@@QAEPAXI@Z 00511fa0 f i ReliabilityLayer.obj
 0002:0005b060       ??_ETimeAndValue2@BPSTracker@VENet@@QAEPAXI@Z 00512060 f i ReliabilityLayer.obj
 0002:0005b120       ??_GSplitPacketChannel@VENet@@QAEPAXI@Z 00512120 f i ReliabilityLayer.obj
 0002:0005b190       ?AckTimeout@ReliabilityLayer@VENet@@QAE_N_K@Z 00512190 f   ReliabilityLayer.obj
 0002:0005b2a0       ?AddFirstToDatagramHistory@ReliabilityLayer@VENet@@AAEPAUMessageNumberNode@12@Uuint24_t@2@0_K@Z 005122a0 f   ReliabilityLayer.obj
 0002:0005b3d0       ?AddFirstToDatagramHistory@ReliabilityLayer@VENet@@AAEXUuint24_t@2@_K@Z 005123d0 f   ReliabilityLayer.obj
 0002:0005b4c0       ?AddSubsequentToDatagramHistory@ReliabilityLayer@VENet@@AAEPAUMessageNumberNode@12@PAU312@Uuint24_t@2@@Z 005124c0 f   ReliabilityLayer.obj
 0002:0005b560       ?AddToListTail@ReliabilityLayer@VENet@@AAEXPAUInternalPacket@2@_N@Z 00512560 f   ReliabilityLayer.obj
 0002:0005b660       ?AddToUnreliableLinkedList@ReliabilityLayer@VENet@@AAEXPAUInternalPacket@2@@Z 00512660 f   ReliabilityLayer.obj
 0002:0005b740       ?AllocInternalPacketData@ReliabilityLayer@VENet@@AAEXPAUInternalPacket@2@I_NPBDI@Z 00512740 f   ReliabilityLayer.obj
 0002:0005b800       ?AllocInternalPacketData@ReliabilityLayer@VENet@@AAEXPAUInternalPacket@2@PAE@Z 00512800 f   ReliabilityLayer.obj
 0002:0005b850       ?AllocInternalPacketData@ReliabilityLayer@VENet@@AAEXPAUInternalPacket@2@PAPAUInternalPacketRefCountedData@2@PAE2@Z 00512850 f   ReliabilityLayer.obj
 0002:0005b930       ?Allocate@?$MemoryPool@UInternalPacket@VENet@@@DataStructures@@QAEPAUInternalPacket@VENet@@PBDI@Z 00512930 f i ReliabilityLayer.obj
 0002:0005bc50       ?Allocate@?$MemoryPool@UInternalPacketRefCountedData@VENet@@@DataStructures@@QAEPAUInternalPacketRefCountedData@VENet@@PBDI@Z 00512c50 f i ReliabilityLayer.obj
 0002:0005bf70       ?Allocate@?$MemoryPool@UMessageNumberNode@ReliabilityLayer@VENet@@@DataStructures@@QAEPAUMessageNumberNode@ReliabilityLayer@VENet@@PBDI@Z 00512f70 f i ReliabilityLayer.obj
 0002:0005c290       ?AllocateFromInternalPacketPool@ReliabilityLayer@VENet@@AAEPAUInternalPacket@2@XZ 00513290 f   ReliabilityLayer.obj
 0002:0005c390       ?AllocationSize@?$Queue@_N@DataStructures@@QBEIXZ 00513390 f i ReliabilityLayer.obj
 0002:0005c3d0       ?ApplyNetworkSimulator@ReliabilityLayer@VENet@@QAEXNII@Z 005133d0 f   ReliabilityLayer.obj
 0002:0005c440       ?AreAcksWaiting@ReliabilityLayer@VENet@@QAE_NXZ 00513440 f   ReliabilityLayer.obj
 0002:0005c4c0       ?BlocksPerPage@?$MemoryPool@UInternalPacket@VENet@@@DataStructures@@IBEHXZ 005134c0 f i ReliabilityLayer.obj
 0002:0005c510       ?BlocksPerPage@?$MemoryPool@UInternalPacketRefCountedData@VENet@@@DataStructures@@IBEHXZ 00513510 f i ReliabilityLayer.obj
 0002:0005c560       ?BlocksPerPage@?$MemoryPool@UMessageNumberNode@ReliabilityLayer@VENet@@@DataStructures@@IBEHXZ 00513560 f i ReliabilityLayer.obj
 0002:0005c5b0       ?BuildPacketFromSplitPacketList@ReliabilityLayer@VENet@@AAEPAUInternalPacket@2@G_KIAAUSystemAddress@2@PAVVENetRandom@2@GIAAVBitStream@2@@Z 005135b0 f   ReliabilityLayer.obj
 0002:0005c720       ?BuildPacketFromSplitPacketList@ReliabilityLayer@VENet@@AAEPAUInternalPacket@2@PAUSplitPacketChannel@2@_K@Z 00513720 f   ReliabilityLayer.obj
 0002:0005c990       ?Ceil@@YANN@Z              00513990 f   ReliabilityLayer.obj
 0002:0005ca10       ?CheckSHA1@ReliabilityLayer@VENet@@AAE_NQADQAEI@Z 00513a10 f   ReliabilityLayer.obj
 0002:0005cb10       ?Clear@?$Heap@_KPAUInternalPacket@VENet@@$0A@@DataStructures@@QAEX_NPBDI@Z 00513b10 f i ReliabilityLayer.obj
 0002:0005cb80       ?Clear@?$List@I@DataStructures@@QAEX_NPBDI@Z 00513b80 f i ReliabilityLayer.obj
 0002:0005cc30       ?Clear@?$List@PAUInternalPacket@VENet@@@DataStructures@@QAEX_NPBDI@Z 00513c30 f i ReliabilityLayer.obj
 0002:0005cce0       ?Clear@?$List@PAUSplitPacketChannel@VENet@@@DataStructures@@QAEX_NPBDI@Z 00513ce0 f i ReliabilityLayer.obj
 0002:0005cd90       ?Clear@?$List@U?$RangeNode@Uuint24_t@VENet@@@DataStructures@@@DataStructures@@QAEX_NPBDI@Z 00513d90 f i ReliabilityLayer.obj
 0002:0005ce40       ?Clear@?$List@UHeapNode@?$Heap@_KPAUInternalPacket@VENet@@$0A@@DataStructures@@@DataStructures@@QAEX_NPBDI@Z 00513e40 f i ReliabilityLayer.obj
 0002:0005cef0       ?Clear@?$List@UUnreliableWithAckReceiptNode@ReliabilityLayer@VENet@@@DataStructures@@QAEX_NPBDI@Z 00513ef0 f i ReliabilityLayer.obj
 0002:0005cfa0       ?Clear@?$List@_N@DataStructures@@QAEX_NPBDI@Z 00513fa0 f i ReliabilityLayer.obj
 0002:0005d050       ?Clear@?$MemoryPool@UInternalPacket@VENet@@@DataStructures@@QAEXPBDI@Z 00514050 f i ReliabilityLayer.obj
 0002:0005d290       ?Clear@?$MemoryPool@UInternalPacketRefCountedData@VENet@@@DataStructures@@QAEXPBDI@Z 00514290 f i ReliabilityLayer.obj
 0002:0005d4d0       ?Clear@?$MemoryPool@UMessageNumberNode@ReliabilityLayer@VENet@@@DataStructures@@QAEXPBDI@Z 005144d0 f i ReliabilityLayer.obj
 0002:0005d710       ?Clear@?$OrderedList@GPAUSplitPacketChannel@VENet@@$1?SplitPacketChannelComp@2@YAHABGABQAU12@@Z@DataStructures@@QAEX_NPBDI@Z 00514710 f i ReliabilityLayer.obj
 0002:0005d780       ?Clear@?$OrderedList@Uuint24_t@VENet@@U?$RangeNode@Uuint24_t@VENet@@@DataStructures@@$1??$RangeNodeComp@Uuint24_t@VENet@@@4@YAHABU12@ABU34@@Z@DataStructures@@QAEX_NPBDI@Z 00514780 f i ReliabilityLayer.obj
 0002:0005d7f0       ?Clear@?$Queue@PAUDataAndTime@ReliabilityLayer@VENet@@@DataStructures@@QAEXPBDI@Z 005147f0 f i ReliabilityLayer.obj
 0002:0005d8a0       ?Clear@?$Queue@UTimeAndValue2@BPSTracker@VENet@@@DataStructures@@QAEXPBDI@Z 005148a0 f i ReliabilityLayer.obj
 0002:0005d950       ?Clear@?$RangeList@Uuint24_t@VENet@@@DataStructures@@QAEXXZ 00514950 f i ReliabilityLayer.obj
 0002:0005d9b0       ?ClearAndForceAllocation@?$Queue@PAUInternalPacket@VENet@@@DataStructures@@QAEXHPBDI@Z 005149b0 f i ReliabilityLayer.obj
 0002:0005da70       ?ClearAndForceAllocation@?$Queue@_N@DataStructures@@QAEXHPBDI@Z 00514a70 f i ReliabilityLayer.obj
 0002:0005db30       ?ClearExpired1@BPSTracker@VENet@@QAEX_K@Z 00514b30 f   ReliabilityLayer.obj
 0002:0005dcf0       ?ClearPacketsAndDatagrams@ReliabilityLayer@VENet@@AAEXXZ 00514cf0 f   ReliabilityLayer.obj
 0002:0005de40       ?Compress@?$Queue@_N@DataStructures@@QAEXPBDI@Z 00514e40 f i ReliabilityLayer.obj
 0002:0005df80       ?CreateInternalPacketCopy@ReliabilityLayer@VENet@@AAEPAUInternalPacket@2@PAU32@HH_K@Z 00514f80 f   ReliabilityLayer.obj
 0002:0005e100       ?CreateInternalPacketFromBitStream@ReliabilityLayer@VENet@@AAEPAUInternalPacket@2@PAVBitStream@2@_K@Z 00515100 f   ReliabilityLayer.obj
 0002:0005e690       ?Deserialize@?$RangeList@Uuint24_t@VENet@@@DataStructures@@QAE_NPAVBitStream@VENet@@@Z 00515690 f i ReliabilityLayer.obj
 0002:0005e930       ?Deserialize@DatagramHeaderFormat@@QAEXPAVBitStream@VENet@@@Z 00515930 f i ReliabilityLayer.obj
 0002:0005ea80       ?FreeInternalPacketData@ReliabilityLayer@VENet@@AAEXPAUInternalPacket@2@PBDI@Z 00515a80 f   ReliabilityLayer.obj
 0002:0005ebf0       ?FreeMemory@ReliabilityLayer@VENet@@AAEX_N@Z 00515bf0 f   ReliabilityLayer.obj
 0002:0005ec50       ?FreeThreadSafeMemory@ReliabilityLayer@VENet@@AAEXXZ 00515c50 f   ReliabilityLayer.obj
 0002:0005f440       ?GetBPS1@BPSTracker@VENet@@QAE_K_K@Z 00516440 f i ReliabilityLayer.obj
 0002:0005f490       ?GetBPS1Threadsafe@BPSTracker@VENet@@QAE_K_K@Z 00516490 f i ReliabilityLayer.obj
 0002:0005f4e0       ?GetDataHeaderByteLength@DatagramHeaderFormat@@SAIXZ 005164e0 f i ReliabilityLayer.obj
 0002:0005f520       ?GetIndexFromKey@?$OrderedList@GPAUSplitPacketChannel@VENet@@$1?SplitPacketChannelComp@2@YAHABGABQAU12@@Z@DataStructures@@QBEIABGPA_NP6AH0ABQAUSplitPacketChannel@VENet@@@Z@Z 00516520 f i ReliabilityLayer.obj
 0002:0005f660       ?GetIndexFromKey@?$OrderedList@Uuint24_t@VENet@@U?$RangeNode@Uuint24_t@VENet@@@DataStructures@@$1??$RangeNodeComp@Uuint24_t@VENet@@@4@YAHABU12@ABU34@@Z@DataStructures@@QBEIABUuint24_t@VENet@@PA_NP6AH0ABU?$RangeNode@Uuint24_t@VENet@@@2@@Z@Z 00516660 f i ReliabilityLayer.obj
 0002:0005f7a0       ?GetIsInSlowStart@CCVENetSlidingWindow@VENet@@QBE_NXZ 005167a0 f i ReliabilityLayer.obj
 0002:0005f7f0       ?GetMaxDatagramSizeExcludingMessageHeaderBits@ReliabilityLayer@VENet@@AAEIXZ 005167f0 f   ReliabilityLayer.obj
 0002:0005f850       ?GetMaxDatagramSizeExcludingMessageHeaderBytes@ReliabilityLayer@VENet@@AAEIXZ 00516850 f   ReliabilityLayer.obj
 0002:0005f8c0       ?GetMaxMessageHeaderLengthBits@ReliabilityLayer@VENet@@AAEIXZ 005168c0 f   ReliabilityLayer.obj
 0002:0005f990       ?GetMessageHeaderLengthBits@ReliabilityLayer@VENet@@AAEIQBUInternalPacket@2@@Z 00516990 f   ReliabilityLayer.obj
 0002:0005fac0       ?GetMessageNumberNodeByDatagramIndex@ReliabilityLayer@VENet@@AAEPAUMessageNumberNode@12@Uuint24_t@2@PA_K@Z 00516ac0 f   ReliabilityLayer.obj
 0002:0005fc30       ?GetNextSendTime@ReliabilityLayer@VENet@@QBE_KXZ 00516c30 f   ReliabilityLayer.obj
 0002:0005fc80       ?GetNextWeight@ReliabilityLayer@VENet@@AAE_KH@Z 00516c80 f   ReliabilityLayer.obj
 0002:0005fe10       ?GetResendListDataSize@ReliabilityLayer@VENet@@ABEIXZ 00516e10 f   ReliabilityLayer.obj
 0002:0005fe50       ?GetSHA1@ReliabilityLayer@VENet@@AAEXQAEIQAD@Z 00516e50 f   ReliabilityLayer.obj
 0002:0005ffa0       ?GetStatistics@ReliabilityLayer@VENet@@QAEPAUVENetStatistics@2@PAU32@@Z 00516fa0 f   ReliabilityLayer.obj
 0002:000605f0       ?GetTimeBetweenPackets@ReliabilityLayer@VENet@@QBE_KXZ 005175f0 f   ReliabilityLayer.obj
 0002:00060640       ?GetTimeoutTime@ReliabilityLayer@VENet@@QAEIXZ 00517640 f   ReliabilityLayer.obj
 0002:00060680       ?GetTotal1@BPSTracker@VENet@@QBE_KXZ 00517680 f   ReliabilityLayer.obj
 0002:000606c0       ?HandleSocketReceiveFromConnectedPlayer@ReliabilityLayer@VENet@@QAE_NPBDIAAUSystemAddress@2@AAV?$List@PAVPluginInterface2@VENet@@@DataStructures@@HIPAVVENetRandom@2@GI_KAAVBitStream@2@@Z 005176c0 f   ReliabilityLayer.obj
 0002:00062d40       ?InitHeapWeights@ReliabilityLayer@VENet@@AAEXXZ 00519d40 f   ReliabilityLayer.obj
 0002:00062dd0       ?InitPage@?$MemoryPool@UInternalPacket@VENet@@@DataStructures@@IAE_NPAUPage@12@0PBDI@Z 00519dd0 f i ReliabilityLayer.obj
 0002:00062f60       ?InitPage@?$MemoryPool@UInternalPacketRefCountedData@VENet@@@DataStructures@@IAE_NPAUPage@12@0PBDI@Z 00519f60 f i ReliabilityLayer.obj
 0002:000630f0       ?InitPage@?$MemoryPool@UMessageNumberNode@ReliabilityLayer@VENet@@@DataStructures@@IAE_NPAUPage@12@0PBDI@Z 0051a0f0 f i ReliabilityLayer.obj
 0002:00063280       ?InitializeVariables@ReliabilityLayer@VENet@@AAEXXZ 0051a280 f   ReliabilityLayer.obj
 0002:00063720       ?Insert@?$List@PAUInternalPacket@VENet@@@DataStructures@@QAEXABQAUInternalPacket@VENet@@PBDI@Z 0051a720 f i ReliabilityLayer.obj
 0002:00063870       ?Insert@?$List@PAUSplitPacketChannel@VENet@@@DataStructures@@QAEXABQAUSplitPacketChannel@VENet@@IPBDI@Z 0051a870 f i ReliabilityLayer.obj
 0002:00063a30       ?Insert@?$List@PAUSplitPacketChannel@VENet@@@DataStructures@@QAEXABQAUSplitPacketChannel@VENet@@PBDI@Z 0051aa30 f i ReliabilityLayer.obj
 0002:00063b80       ?Insert@?$List@U?$RangeNode@Uuint24_t@VENet@@@DataStructures@@@DataStructures@@QAEXABU?$RangeNode@Uuint24_t@VENet@@@2@IPBDI@Z 0051ab80 f i ReliabilityLayer.obj
 0002:00063d60       ?Insert@?$List@U?$RangeNode@Uuint24_t@VENet@@@DataStructures@@@DataStructures@@QAEXABU?$RangeNode@Uuint24_t@VENet@@@2@PBDI@Z 0051ad60 f i ReliabilityLayer.obj
 0002:00063eb0       ?Insert@?$List@UHeapNode@?$Heap@_KPAUInternalPacket@VENet@@$0A@@DataStructures@@@DataStructures@@QAEXABUHeapNode@?$Heap@_KPAUInternalPacket@VENet@@$0A@@2@PBDI@Z 0051aeb0 f i ReliabilityLayer.obj
 0002:00064030       ?Insert@?$List@UUnreliableWithAckReceiptNode@ReliabilityLayer@VENet@@@DataStructures@@QAEXABUUnreliableWithAckReceiptNode@ReliabilityLayer@VENet@@PBDI@Z 0051b030 f i ReliabilityLayer.obj
 0002:00064180       ?Insert@?$List@_N@DataStructures@@QAEXAB_NPBDI@Z 0051b180 f i ReliabilityLayer.obj
 0002:000642d0       ?Insert@?$OrderedList@GPAUSplitPacketChannel@VENet@@$1?SplitPacketChannelComp@2@YAHABGABQAU12@@Z@DataStructures@@QAEIABGABQAUSplitPacketChannel@VENet@@_NPBDIP6AH01@Z@Z 0051b2d0 f i ReliabilityLayer.obj
 0002:00064420       ?Insert@?$OrderedList@Uuint24_t@VENet@@U?$RangeNode@Uuint24_t@VENet@@@DataStructures@@$1??$RangeNodeComp@Uuint24_t@VENet@@@4@YAHABU12@ABU34@@Z@DataStructures@@QAEIABUuint24_t@VENet@@ABU?$RangeNode@Uuint24_t@VENet@@@2@_NPBDIP6AH01@Z@Z 0051b420 f i ReliabilityLayer.obj
 0002:00064570       ?Insert@?$RangeList@Uuint24_t@VENet@@@DataStructures@@QAEXUuint24_t@VENet@@@Z 0051b570 f i ReliabilityLayer.obj
 0002:00064cd0       ?InsertAtEnd@?$OrderedList@Uuint24_t@VENet@@U?$RangeNode@Uuint24_t@VENet@@@DataStructures@@$1??$RangeNodeComp@Uuint24_t@VENet@@@4@YAHABU12@ABU34@@Z@DataStructures@@QAEXABU?$RangeNode@Uuint24_t@VENet@@@2@PBDI@Z 0051bcd0 f i ReliabilityLayer.obj
 0002:00064d30       ?InsertAtIndex@?$OrderedList@Uuint24_t@VENet@@U?$RangeNode@Uuint24_t@VENet@@@DataStructures@@$1??$RangeNodeComp@Uuint24_t@VENet@@@4@YAHABU12@ABU34@@Z@DataStructures@@QAEXABU?$RangeNode@Uuint24_t@VENet@@@2@IPBDI@Z 0051bd30 f i ReliabilityLayer.obj
 0002:00064da0       ?InsertIntoSplitPacketList@ReliabilityLayer@VENet@@AAEXPAUInternalPacket@2@_K@Z 0051bda0 f   ReliabilityLayer.obj
 0002:00065250       ?InsertPacketIntoResendList@ReliabilityLayer@VENet@@AAEXPAUInternalPacket@2@_K_N2@Z 0051c250 f   ReliabilityLayer.obj
 0002:00065300       ?IsBigEndian@BitStream@VENet@@SA_NXZ 0051c300 f i ReliabilityLayer.obj
 0002:00065350       ?IsDeadConnection@ReliabilityLayer@VENet@@QBE_NXZ 0051c350 f   ReliabilityLayer.obj
 0002:00065390       ?IsEmpty@?$Queue@UDatagramHistoryNode@ReliabilityLayer@VENet@@@DataStructures@@QBE_NXZ 0051c390 f i ReliabilityLayer.obj
 0002:00065400       ?IsEmpty@?$Queue@UTimeAndValue2@BPSTracker@VENet@@@DataStructures@@QBE_NXZ 0051c400 f i ReliabilityLayer.obj
 0002:00065470       ?IsOlderOrderedPacket@ReliabilityLayer@VENet@@AAE_NUuint24_t@2@0@Z 0051c470 f   ReliabilityLayer.obj
 0002:00065700       ?IsOutgoingDataWaiting@ReliabilityLayer@VENet@@QAE_NXZ 0051c700 f   ReliabilityLayer.obj
 0002:000657a0       ?IsResendQueueEmpty@ReliabilityLayer@VENet@@ABE_NXZ 0051c7a0 f   ReliabilityLayer.obj
 0002:00065810       ?IsSendThrottled@ReliabilityLayer@VENet@@AAE_NH@Z 0051c810 f   ReliabilityLayer.obj
 0002:00065850       ?KillConnection@ReliabilityLayer@VENet@@QAEXXZ 0051c850 f   ReliabilityLayer.obj
 0002:000658a0       ?LeftChild@?$Heap@_KPAUInternalPacket@VENet@@$0A@@DataStructures@@IBEII@Z 0051c8a0 f i ReliabilityLayer.obj
 0002:000658e0       ?MoveToListHead@ReliabilityLayer@VENet@@AAEXPAUInternalPacket@2@@Z 0051c8e0 f   ReliabilityLayer.obj
 0002:00065a40       ?Parent@?$Heap@_KPAUInternalPacket@VENet@@$0A@@DataStructures@@IBEII@Z 0051ca40 f i ReliabilityLayer.obj
 0002:00065ad0       ?Peek@?$Heap@_KPAUInternalPacket@VENet@@$0A@@DataStructures@@QBEPAUInternalPacket@VENet@@I@Z 0051cad0 f i ReliabilityLayer.obj
 0002:00065b30       ?Peek@?$Queue@PAUDataAndTime@ReliabilityLayer@VENet@@@DataStructures@@QBEPAUDataAndTime@ReliabilityLayer@VENet@@XZ 0051cb30 f i ReliabilityLayer.obj
 0002:00065bd0       ?Peek@?$Queue@UTimeAndValue2@BPSTracker@VENet@@@DataStructures@@QBE?AUTimeAndValue2@BPSTracker@VENet@@XZ 0051cbd0 f i ReliabilityLayer.obj
 0002:00065d40       ?Peek@?$Queue@_N@DataStructures@@QBE_NXZ 0051cd40 f i ReliabilityLayer.obj
 0002:00065de0       ?PeekWeight@?$Heap@_KPAUInternalPacket@VENet@@$0A@@DataStructures@@QBE_KI@Z 0051cde0 f i ReliabilityLayer.obj
 0002:00065e40       ?Pop@?$Heap@_KPAUInternalPacket@VENet@@$0A@@DataStructures@@QAEPAUInternalPacket@VENet@@I@Z 0051ce40 f i ReliabilityLayer.obj
 0002:00066230       ?Pop@?$Queue@PAUDataAndTime@ReliabilityLayer@VENet@@@DataStructures@@QAEPAUDataAndTime@ReliabilityLayer@VENet@@XZ 0051d230 f i ReliabilityLayer.obj
 0002:00066320       ?Pop@?$Queue@PAUInternalPacket@VENet@@@DataStructures@@QAEPAUInternalPacket@VENet@@XZ 0051d320 f i ReliabilityLayer.obj
 0002:00066410       ?Pop@?$Queue@UDatagramHistoryNode@ReliabilityLayer@VENet@@@DataStructures@@QAE?AUDatagramHistoryNode@ReliabilityLayer@VENet@@XZ 0051d410 f i ReliabilityLayer.obj
 0002:000665d0       ?Pop@?$Queue@UTimeAndValue2@BPSTracker@VENet@@@DataStructures@@QAE?AUTimeAndValue2@BPSTracker@VENet@@XZ 0051d5d0 f i ReliabilityLayer.obj
 0002:00066840       ?Pop@?$Queue@_N@DataStructures@@QAE_NXZ 0051d840 f i ReliabilityLayer.obj
 0002:00066930       ?PopListHead@ReliabilityLayer@VENet@@AAEX_N@Z 0051d930 f   ReliabilityLayer.obj
 0002:000669e0       ?Preallocate@?$List@I@DataStructures@@QAEXIPBDI@Z 0051d9e0 f i ReliabilityLayer.obj
 0002:00066b10       ?Preallocate@?$List@PAUInternalPacket@VENet@@@DataStructures@@QAEXIPBDI@Z 0051db10 f i ReliabilityLayer.obj
 0002:00066c40       ?Preallocate@?$List@_N@DataStructures@@QAEXIPBDI@Z 0051dc40 f i ReliabilityLayer.obj
 0002:00066d70       ?Push1@BPSTracker@VENet@@QAEX_K0@Z 0051dd70 f i ReliabilityLayer.obj
 0002:00066ea0       ?Push@?$Heap@_KPAUInternalPacket@VENet@@$0A@@DataStructures@@QAEXAB_KABQAUInternalPacket@VENet@@PBDI@Z 0051dea0 f i ReliabilityLayer.obj
 0002:00067040       ?Push@?$List@I@DataStructures@@QAEXABIPBDI@Z 0051e040 f i ReliabilityLayer.obj
 0002:000670a0       ?Push@?$List@PAUInternalPacket@VENet@@@DataStructures@@QAEXABQAUInternalPacket@VENet@@PBDI@Z 0051e0a0 f i ReliabilityLayer.obj
 0002:00067100       ?Push@?$List@UUnreliableWithAckReceiptNode@ReliabilityLayer@VENet@@@DataStructures@@QAEXABUUnreliableWithAckReceiptNode@ReliabilityLayer@VENet@@PBDI@Z 0051e100 f i ReliabilityLayer.obj
 0002:00067160       ?Push@?$List@_N@DataStructures@@QAEXAB_NPBDI@Z 0051e160 f i ReliabilityLayer.obj
 0002:000671c0       ?Push@?$Queue@PAUDataAndTime@ReliabilityLayer@VENet@@@DataStructures@@QAEXABQAUDataAndTime@ReliabilityLayer@VENet@@PBDI@Z 0051e1c0 f i ReliabilityLayer.obj
 0002:000673e0       ?Push@?$Queue@PAUInternalPacket@VENet@@@DataStructures@@QAEXABQAUInternalPacket@VENet@@PBDI@Z 0051e3e0 f i ReliabilityLayer.obj
 0002:00067600       ?Push@?$Queue@UDatagramHistoryNode@ReliabilityLayer@VENet@@@DataStructures@@QAEXABUDatagramHistoryNode@ReliabilityLayer@VENet@@PBDI@Z 0051e600 f i ReliabilityLayer.obj
 0002:00067870       ?Push@?$Queue@UTimeAndValue2@BPSTracker@VENet@@@DataStructures@@QAEXABUTimeAndValue2@BPSTracker@VENet@@PBDI@Z 0051e870 f i ReliabilityLayer.obj
 0002:00067ae0       ?Push@?$Queue@_N@DataStructures@@QAEXAB_NPBDI@Z 0051eae0 f i ReliabilityLayer.obj
 0002:00067d00       ?PushAtHead@?$Queue@PAUDataAndTime@ReliabilityLayer@VENet@@@DataStructures@@QAEXABQAUDataAndTime@ReliabilityLayer@VENet@@IPBDI@Z 0051ed00 f i ReliabilityLayer.obj
 0002:00067ef0       ?PushDatagram@ReliabilityLayer@VENet@@AAEXXZ 0051eef0 f   ReliabilityLayer.obj
 0002:00068070       ?PushPacket@ReliabilityLayer@VENet@@AAEX_KPAUInternalPacket@2@_N@Z 0051f070 f   ReliabilityLayer.obj
 0002:00068270       ?PushSeries@?$Heap@_KPAUInternalPacket@VENet@@$0A@@DataStructures@@QAEXAB_KABQAUInternalPacket@VENet@@PBDI@Z 0051f270 f i ReliabilityLayer.obj
 0002:00068480       ?Receive@ReliabilityLayer@VENet@@QAEIPAPAE@Z 0051f480 f   ReliabilityLayer.obj
 0002:00068520       ?Release@?$MemoryPool@UInternalPacket@VENet@@@DataStructures@@QAEXPAUInternalPacket@VENet@@PBDI@Z 0051f520 f i ReliabilityLayer.obj
 0002:00068830       ?Release@?$MemoryPool@UInternalPacketRefCountedData@VENet@@@DataStructures@@QAEXPAUInternalPacketRefCountedData@VENet@@PBDI@Z 0051f830 f i ReliabilityLayer.obj
 0002:00068b40       ?Release@?$MemoryPool@UMessageNumberNode@ReliabilityLayer@VENet@@@DataStructures@@QAEXPAUMessageNumberNode@ReliabilityLayer@VENet@@PBDI@Z 0051fb40 f i ReliabilityLayer.obj
 0002:00068e50       ?ReleaseToInternalPacketPool@ReliabilityLayer@VENet@@AAEXPAUInternalPacket@2@@Z 0051fe50 f   ReliabilityLayer.obj
 0002:00068ec0       ?RemoveAtIndex@?$List@PAUSplitPacketChannel@VENet@@@DataStructures@@QAEXI@Z 0051fec0 f i ReliabilityLayer.obj
 0002:00068fb0       ?RemoveAtIndex@?$List@U?$RangeNode@Uuint24_t@VENet@@@DataStructures@@@DataStructures@@QAEXI@Z 0051ffb0 f i ReliabilityLayer.obj
 0002:000690b0       ?RemoveAtIndex@?$List@UUnreliableWithAckReceiptNode@ReliabilityLayer@VENet@@@DataStructures@@QAEXI@Z 005200b0 f i ReliabilityLayer.obj
 0002:000691b0       ?RemoveAtIndex@?$OrderedList@GPAUSplitPacketChannel@VENet@@$1?SplitPacketChannelComp@2@YAHABGABQAU12@@Z@DataStructures@@QAEXI@Z 005201b0 f i ReliabilityLayer.obj
 0002:00069210       ?RemoveAtIndex@?$OrderedList@Uuint24_t@VENet@@U?$RangeNode@Uuint24_t@VENet@@@DataStructures@@$1??$RangeNodeComp@Uuint24_t@VENet@@@4@YAHABU12@ABU34@@Z@DataStructures@@QAEXI@Z 00520210 f i ReliabilityLayer.obj
 0002:00069270       ?RemoveFromDatagramHistory@ReliabilityLayer@VENet@@AAEXUuint24_t@2@@Z 00520270 f   ReliabilityLayer.obj
 0002:00069390       ?RemoveFromEnd@?$List@PAUSplitPacketChannel@VENet@@@DataStructures@@QAEXI@Z 00520390 f i ReliabilityLayer.obj
 0002:00069430       ?RemoveFromEnd@?$List@U?$RangeNode@Uuint24_t@VENet@@@DataStructures@@@DataStructures@@QAEXI@Z 00520430 f i ReliabilityLayer.obj
 0002:000694d0       ?RemoveFromEnd@?$List@UHeapNode@?$Heap@_KPAUInternalPacket@VENet@@$0A@@DataStructures@@@DataStructures@@QAEXI@Z 005204d0 f i ReliabilityLayer.obj
 0002:00069570       ?RemoveFromEnd@?$List@UUnreliableWithAckReceiptNode@ReliabilityLayer@VENet@@@DataStructures@@QAEXI@Z 00520570 f i ReliabilityLayer.obj
 0002:00069610       ?RemoveFromEnd@?$OrderedList@Uuint24_t@VENet@@U?$RangeNode@Uuint24_t@VENet@@@DataStructures@@$1??$RangeNodeComp@Uuint24_t@VENet@@@4@YAHABU12@ABU34@@Z@DataStructures@@QAEXI@Z 00520610 f i ReliabilityLayer.obj
 0002:00069670       ?RemoveFromList@ReliabilityLayer@VENet@@AAEXPAUInternalPacket@2@_N@Z 00520670 f   ReliabilityLayer.obj
 0002:000697c0       ?RemoveFromUnreliableLinkedList@ReliabilityLayer@VENet@@AAEXPAUInternalPacket@2@@Z 005207c0 f   ReliabilityLayer.obj
 0002:00069890       ?RemovePacketFromResendListAndDeleteOlderReliableSequenced@ReliabilityLayer@VENet@@AAEIUuint24_t@2@_KAAV?$List@PAVPluginInterface2@VENet@@@DataStructures@@ABUSystemAddress@2@@Z 00520890 f   ReliabilityLayer.obj
 0002:00069c40       ?ResendBufferOverflow@ReliabilityLayer@VENet@@ABE_NXZ 00520c40 f   ReliabilityLayer.obj
 0002:00069d10       ?Reset@BPSTracker@VENet@@QAEXPBDI@Z 00520d10 f   ReliabilityLayer.obj
 0002:00069da0       ?Reset@ReliabilityLayer@VENet@@QAEX_NH0@Z 00520da0 f   ReliabilityLayer.obj
 0002:00069e30       ?ResetPacketsAndDatagrams@ReliabilityLayer@VENet@@AAEXXZ 00520e30 f   ReliabilityLayer.obj
 0002:00069f40       ?RightChild@?$Heap@_KPAUInternalPacket@VENet@@$0A@@DataStructures@@IBEII@Z 00520f40 f i ReliabilityLayer.obj
 0002:00069f80       ?Send@ReliabilityLayer@VENet@@QAE_NPADIW4PacketPriority@@W4PacketReliability@@E_NH_KI@Z 00520f80 f   ReliabilityLayer.obj
 0002:0006a680       ?SendACKs@ReliabilityLayer@VENet@@AAEXIAAUSystemAddress@2@_KPAVVENetRandom@2@GIAAVBitStream@2@@Z 00521680 f   ReliabilityLayer.obj
 0002:0006a880       ?SendAcknowledgementPacket@ReliabilityLayer@VENet@@AAEXUuint24_t@2@_K@Z 00521880 f   ReliabilityLayer.obj
 0002:0006a910       ?SendBitStream@ReliabilityLayer@VENet@@AAEXIAAUSystemAddress@2@PAVBitStream@2@PAVVENetRandom@2@GI_K@Z 00521910 f   ReliabilityLayer.obj
 0002:0006ac70       ?Serialize@?$RangeList@Uuint24_t@VENet@@@DataStructures@@QAEIPAVBitStream@VENet@@I_N@Z 00521c70 f i ReliabilityLayer.obj
 0002:0006b0c0       ?Serialize@DatagramHeaderFormat@@QAEXPAVBitStream@VENet@@@Z 005220c0 f i ReliabilityLayer.obj
 0002:0006b260       ?SetPageSize@?$MemoryPool@UInternalPacket@VENet@@@DataStructures@@QAEXH@Z 00522260 f i ReliabilityLayer.obj
 0002:0006b2b0       ?SetPageSize@?$MemoryPool@UInternalPacketRefCountedData@VENet@@@DataStructures@@QAEXH@Z 005222b0 f i ReliabilityLayer.obj
 0002:0006b300       ?SetPageSize@?$MemoryPool@UMessageNumberNode@ReliabilityLayer@VENet@@@DataStructures@@QAEXH@Z 00522300 f i ReliabilityLayer.obj
 0002:0006b350       ?SetSplitMessageProgressInterval@ReliabilityLayer@VENet@@QAEXH@Z 00522350 f   ReliabilityLayer.obj
 0002:0006b3a0       ?SetTimeoutTime@ReliabilityLayer@VENet@@QAEXI@Z 005223a0 f   ReliabilityLayer.obj
 0002:0006b3f0       ?SetUnreliableTimeout@ReliabilityLayer@VENet@@QAEXI@Z 005223f0 f   ReliabilityLayer.obj
 0002:0006b440       ?Size@?$Heap@_KPAUInternalPacket@VENet@@$0A@@DataStructures@@QBEIXZ 00522440 f i ReliabilityLayer.obj
 0002:0006b490       ?Size@?$List@PAUInternalPacket@VENet@@@DataStructures@@QBEIXZ 00522490 f i ReliabilityLayer.obj
 0002:0006b4d0       ?Size@?$List@PAUSplitPacketChannel@VENet@@@DataStructures@@QBEIXZ 005224d0 f i ReliabilityLayer.obj
 0002:0006b510       ?Size@?$List@U?$RangeNode@Uuint24_t@VENet@@@DataStructures@@@DataStructures@@QBEIXZ 00522510 f i ReliabilityLayer.obj
 0002:0006b550       ?Size@?$List@UHeapNode@?$Heap@_KPAUInternalPacket@VENet@@$0A@@DataStructures@@@DataStructures@@QBEIXZ 00522550 f i ReliabilityLayer.obj
 0002:0006b590       ?Size@?$List@UUnreliableWithAckReceiptNode@ReliabilityLayer@VENet@@@DataStructures@@QBEIXZ 00522590 f i ReliabilityLayer.obj
 0002:0006b5d0       ?Size@?$List@_N@DataStructures@@QBEIXZ 005225d0 f i ReliabilityLayer.obj
 0002:0006b610       ?Size@?$OrderedList@GPAUSplitPacketChannel@VENet@@$1?SplitPacketChannelComp@2@YAHABGABQAU12@@Z@DataStructures@@QBEIXZ 00522610 f i ReliabilityLayer.obj
 0002:0006b660       ?Size@?$OrderedList@Uuint24_t@VENet@@U?$RangeNode@Uuint24_t@VENet@@@DataStructures@@$1??$RangeNodeComp@Uuint24_t@VENet@@@4@YAHABU12@ABU34@@Z@DataStructures@@QBEIXZ 00522660 f i ReliabilityLayer.obj
 0002:0006b6b0       ?Size@?$Queue@PAUDataAndTime@ReliabilityLayer@VENet@@@DataStructures@@QBEIXZ 005226b0 f i ReliabilityLayer.obj
 0002:0006b720       ?Size@?$Queue@PAUInternalPacket@VENet@@@DataStructures@@QBEIXZ 00522720 f i ReliabilityLayer.obj
 0002:0006b790       ?Size@?$Queue@UDatagramHistoryNode@ReliabilityLayer@VENet@@@DataStructures@@QBEIXZ 00522790 f i ReliabilityLayer.obj
 0002:0006b800       ?Size@?$Queue@_N@DataStructures@@QBEIXZ 00522800 f i ReliabilityLayer.obj
 0002:0006b870       ?Size@?$RangeList@Uuint24_t@VENet@@@DataStructures@@QBEIXZ 00522870 f i ReliabilityLayer.obj
 0002:0006b8c0       ?SplitPacket@ReliabilityLayer@VENet@@AAEXPAUInternalPacket@2@@Z 005228c0 f   ReliabilityLayer.obj
 0002:0006c030       ?SplitPacketChannelComp@VENet@@YAHABGABQAUSplitPacketChannel@1@@Z 00523030 f   ReliabilityLayer.obj
 0002:0006c0d0       ?SplitPacketIndexComp@@YAHABIABQAUInternalPacket@VENet@@@Z 005230d0 f   ReliabilityLayer.obj
 0002:0006c140       ?StartSeries@?$Heap@_KPAUInternalPacket@VENet@@$0A@@DataStructures@@QAEXXZ 00523140 f i ReliabilityLayer.obj
 0002:0006c180       ?Swap@?$Heap@_KPAUInternalPacket@VENet@@$0A@@DataStructures@@IAEXII@Z 00523180 f i ReliabilityLayer.obj
 0002:0006c2a0       ?TagMostRecentPushAsSecondOfPacketPair@ReliabilityLayer@VENet@@AAE_NXZ 005232a0 f   ReliabilityLayer.obj
 0002:0006c360       ?Update@ReliabilityLayer@VENet@@QAEXIAAUSystemAddress@2@H_KIAAV?$List@PAVPluginInterface2@VENet@@@DataStructures@@PAVVENetRandom@2@GIAAVBitStream@2@@Z 00523360 f   ReliabilityLayer.obj
 0002:0006e1c0       ?UpdateWindowFromAck@ReliabilityLayer@VENet@@AAEX_K@Z 005251c0 f   ReliabilityLayer.obj
 0002:0006e200       ?UpdateWindowFromPacketloss@ReliabilityLayer@VENet@@AAEX_K@Z 00525200 f   ReliabilityLayer.obj
 0002:0006e240       ?ValidateResendList@ReliabilityLayer@VENet@@ABEXXZ 00525240 f   ReliabilityLayer.obj
 0002:0006e280       ?WriteToBitStreamFromInternalPacket@ReliabilityLayer@VENet@@AAEIPAVBitStream@2@QBUInternalPacket@2@_K@Z 00525280 f   ReliabilityLayer.obj
 0002:0006e5a0       ??$GET_OBJECT_FROM_ID@PAVReplica3@VENet@@@NetworkIDManager@VENet@@QAEPAVReplica3@1@_K@Z 005255a0 f i ReplicaManager3.obj
 0002:0006e650       ??$OP_DELETE@ULastSerializationResult@VENet@@@VENet@@YAXPAULastSerializationResult@0@PBDI@Z 00525650 f i ReplicaManager3.obj
 0002:0006e6e0       ??$OP_DELETE@ULastSerializationResultBS@VENet@@@VENet@@YAXPAULastSerializationResultBS@0@PBDI@Z 005256e0 f i ReplicaManager3.obj
 0002:0006e770       ??$OP_DELETE@URM3World@ReplicaManager3@VENet@@@VENet@@YAXPAURM3World@ReplicaManager3@0@PBDI@Z 00525770 f i ReplicaManager3.obj
 0002:0006e800       ??$OP_DELETE_ARRAY@PAULastSerializationResult@VENet@@@VENet@@YAXPAPAULastSerializationResult@0@PBDI@Z 00525800 f i ReplicaManager3.obj
 0002:0006e860       ??$OP_DELETE_ARRAY@PAURM3World@ReplicaManager3@VENet@@@VENet@@YAXPAPAURM3World@ReplicaManager3@0@PBDI@Z 00525860 f i ReplicaManager3.obj
 0002:0006e8c0       ??$OP_DELETE_ARRAY@PAVConnection_RM3@VENet@@@VENet@@YAXPAPAVConnection_RM3@0@PBDI@Z 005258c0 f i ReplicaManager3.obj
 0002:0006e920       ??$OP_DELETE_ARRAY@PAVReplica3@VENet@@@VENet@@YAXPAPAVReplica3@0@PBDI@Z 00525920 f i ReplicaManager3.obj
 0002:0006e980       ??$OP_DELETE_ARRAY@_K@VENet@@YAXPA_KPBDI@Z 00525980 f i ReplicaManager3.obj
 0002:0006e9e0       ??$OP_NEW@ULastSerializationResult@VENet@@@VENet@@YAPAULastSerializationResult@0@PBDI@Z 005259e0 f i ReplicaManager3.obj
 0002:0006eac0       ??$OP_NEW@ULastSerializationResultBS@VENet@@@VENet@@YAPAULastSerializationResultBS@0@PBDI@Z 00525ac0 f i ReplicaManager3.obj
 0002:0006ebb0       ??$OP_NEW@URM3World@ReplicaManager3@VENet@@@VENet@@YAPAURM3World@ReplicaManager3@0@PBDI@Z 00525bb0 f i ReplicaManager3.obj
 0002:0006ec90       ??$OP_NEW_ARRAY@PAULastSerializationResult@VENet@@@VENet@@YAPAPAULastSerializationResult@0@HPBDI@Z 00525c90 f i ReplicaManager3.obj
 0002:0006ed10       ??$OP_NEW_ARRAY@PAURM3World@ReplicaManager3@VENet@@@VENet@@YAPAPAURM3World@ReplicaManager3@0@HPBDI@Z 00525d10 f i ReplicaManager3.obj
 0002:0006ed90       ??$OP_NEW_ARRAY@PAVConnection_RM3@VENet@@@VENet@@YAPAPAVConnection_RM3@0@HPBDI@Z 00525d90 f i ReplicaManager3.obj
 0002:0006ee10       ??$OP_NEW_ARRAY@PAVReplica3@VENet@@@VENet@@YAPAPAVReplica3@0@HPBDI@Z 00525e10 f i ReplicaManager3.obj
 0002:0006ee90       ??$OP_NEW_ARRAY@_K@VENet@@YAPA_KHPBDI@Z 00525e90 f i ReplicaManager3.obj
 0002:0006ef10       ??0?$List@PAULastSerializationResult@VENet@@@DataStructures@@QAE@XZ 00525f10 f i ReplicaManager3.obj
 0002:0006ef70       ??0?$List@PAURM3World@ReplicaManager3@VENet@@@DataStructures@@QAE@XZ 00525f70 f i ReplicaManager3.obj
 0002:0006efd0       ??0?$List@PAVConnection_RM3@VENet@@@DataStructures@@QAE@XZ 00525fd0 f i ReplicaManager3.obj
 0002:0006f030       ??0?$List@PAVReplica3@VENet@@@DataStructures@@QAE@XZ 00526030 f i ReplicaManager3.obj
 0002:0006f090       ??0?$List@_K@DataStructures@@QAE@XZ 00526090 f i ReplicaManager3.obj
 0002:0006f0f0       ??0?$OrderedList@PAVReplica3@VENet@@PAULastSerializationResult@2@$1?Replica3LSRComp@Connection_RM3@2@SAHABQAV12@ABQAU32@@Z@DataStructures@@QAE@XZ 005260f0 f i ReplicaManager3.obj
 0002:0006f150       ??0Connection_RM3@VENet@@QAE@ABUSystemAddress@1@UVENetGUID@1@@Z 00526150 f   ReplicaManager3.obj
 0002:0006f2e0       ??0DeserializeParameters@VENet@@QAE@XZ 005262e0 f i ReplicaManager3.obj
 0002:0006f350       ??0LastSerializationResult@VENet@@QAE@XZ 00526350 f   ReplicaManager3.obj
 0002:0006f3d0       ??0LastSerializationResultBS@VENet@@QAE@XZ 005263d0 f i ReplicaManager3.obj
 0002:0006f440       ??0RM3World@ReplicaManager3@VENet@@QAE@XZ 00526440 f   ReplicaManager3.obj
 0002:0006f500       ??0Replica3@VENet@@QAE@XZ  00526500 f   ReplicaManager3.obj
 0002:0006f630       ??0ReplicaManager3@VENet@@QAE@XZ 00526630 f   ReplicaManager3.obj
 0002:0006f7b0       ??0SerializeParameters@VENet@@QAE@XZ 005267b0 f i ReplicaManager3.obj
 0002:0006f820       ??1?$List@PAULastSerializationResult@VENet@@@DataStructures@@QAE@XZ 00526820 f i ReplicaManager3.obj
 0002:0006f890       ??1?$List@PAURM3World@ReplicaManager3@VENet@@@DataStructures@@QAE@XZ 00526890 f i ReplicaManager3.obj
 0002:0006f900       ??1?$List@PAVConnection_RM3@VENet@@@DataStructures@@QAE@XZ 00526900 f i ReplicaManager3.obj
 0002:0006f970       ??1?$List@PAVReplica3@VENet@@@DataStructures@@QAE@XZ 00526970 f i ReplicaManager3.obj
 0002:0006f9e0       ??1?$List@_K@DataStructures@@QAE@XZ 005269e0 f i ReplicaManager3.obj
 0002:0006fa50       ??1?$OrderedList@PAVReplica3@VENet@@PAULastSerializationResult@2@$1?Replica3LSRComp@Connection_RM3@2@SAHABQAV12@ABQAU32@@Z@DataStructures@@QAE@XZ 00526a50 f i ReplicaManager3.obj
 0002:0006fb00       ??1Connection_RM3@VENet@@UAE@XZ 00526b00 f   ReplicaManager3.obj
 0002:0006fce0       ??1DeserializeParameters@VENet@@QAE@XZ 00526ce0 f i ReplicaManager3.obj
 0002:0006fd40       ??1LastSerializationResult@VENet@@QAE@XZ 00526d40 f   ReplicaManager3.obj
 0002:0006fdc0       ??1LastSerializationResultBS@VENet@@QAE@XZ 00526dc0 f i ReplicaManager3.obj
 0002:0006fe20       ??1RM3World@ReplicaManager3@VENet@@QAE@XZ 00526e20 f i ReplicaManager3.obj
 0002:0006fed0       ??1Replica3@VENet@@UAE@XZ  00526ed0 f   ReplicaManager3.obj
 0002:0006ffb0       ??1ReplicaManager3@VENet@@UAE@XZ 00526fb0 f   ReplicaManager3.obj
 0002:00070110       ??1SerializeParameters@VENet@@QAE@XZ 00527110 f i ReplicaManager3.obj
 0002:00070170       ??4?$List@PAVReplica3@VENet@@@DataStructures@@QAEAAV01@ABV01@@Z 00527170 f i ReplicaManager3.obj
 0002:00070290       ??8PRO@VENet@@QBE_NABU01@@Z 00527290 f   ReplicaManager3.obj
 0002:00070340       ??9PRO@VENet@@QBE_NABU01@@Z 00527340 f   ReplicaManager3.obj
 0002:000703f0       ??A?$List@PAULastSerializationResult@VENet@@@DataStructures@@QBEAAPAULastSerializationResult@VENet@@I@Z 005273f0 f i ReplicaManager3.obj
 0002:00070490       ??A?$List@PAURM3World@ReplicaManager3@VENet@@@DataStructures@@QBEAAPAURM3World@ReplicaManager3@VENet@@I@Z 00527490 f i ReplicaManager3.obj
 0002:00070530       ??A?$List@PAVConnection_RM3@VENet@@@DataStructures@@QBEAAPAVConnection_RM3@VENet@@I@Z 00527530 f i ReplicaManager3.obj
 0002:000705d0       ??A?$List@PAVReplica3@VENet@@@DataStructures@@QBEAAPAVReplica3@VENet@@I@Z 005275d0 f i ReplicaManager3.obj
 0002:00070670       ??A?$List@_K@DataStructures@@QBEAA_KI@Z 00527670 f i ReplicaManager3.obj
 0002:00070710       ??A?$OrderedList@PAVReplica3@VENet@@PAULastSerializationResult@2@$1?Replica3LSRComp@Connection_RM3@2@SAHABQAV12@ABQAU32@@Z@DataStructures@@QBEAAPAULastSerializationResult@VENet@@I@Z 00527710 f i ReplicaManager3.obj
 0002:00070770       ??_EConnection_RM3@VENet@@UAEPAXI@Z 00527770 f i ReplicaManager3.obj
 0002:00070770       ??_GConnection_RM3@VENet@@UAEPAXI@Z 00527770 f i ReplicaManager3.obj
 0002:000707e0       ??_GLastSerializationResult@VENet@@QAEPAXI@Z 005277e0 f i ReplicaManager3.obj
 0002:00070850       ??_GLastSerializationResultBS@VENet@@QAEPAXI@Z 00527850 f i ReplicaManager3.obj
 0002:000708c0       ??_GRM3World@ReplicaManager3@VENet@@QAEPAXI@Z 005278c0 f i ReplicaManager3.obj
 0002:00070930       ??_EReplica3@VENet@@UAEPAXI@Z 00527930 f i ReplicaManager3.obj
 0002:00070930       ??_GReplica3@VENet@@UAEPAXI@Z 00527930 f i ReplicaManager3.obj
 0002:000709a0       ??_GReplicaManager3@VENet@@UAEPAXI@Z 005279a0 f i ReplicaManager3.obj
 0002:000709a0       ??_EReplicaManager3@VENet@@UAEPAXI@Z 005279a0 f i ReplicaManager3.obj
 0002:00070a10       ?AddWorld@ReplicaManager3@VENet@@QAEXE@Z 00527a10 f   ReplicaManager3.obj
 0002:00070b50       ?AllocBS@LastSerializationResult@VENet@@QAEXXZ 00527b50 f   ReplicaManager3.obj
 0002:00070bd0       ?AutoConstructByQuery@Connection_RM3@VENet@@QAEXPAVReplicaManager3@2@E@Z 00527bd0 f   ReplicaManager3.obj
 0002:000711d0       ?BroadcastDestruction@Replica3@VENet@@UAEXXZ 005281d0 f   ReplicaManager3.obj
 0002:00071230       ?BroadcastDestruction@ReplicaManager3@VENet@@QAEXPAVReplica3@2@ABUSystemAddress@2@@Z 00528230 f   ReplicaManager3.obj
 0002:00071350       ?BroadcastDestructionList@ReplicaManager3@VENet@@QAEXAAV?$List@PAVReplica3@VENet@@@DataStructures@@ABUSystemAddress@2@E@Z 00528350 f   ReplicaManager3.obj
 0002:00071b90       ?Clear@?$List@PAULastSerializationResult@VENet@@@DataStructures@@QAEX_NPBDI@Z 00528b90 f i ReplicaManager3.obj
 0002:00071c40       ?Clear@?$List@PAURM3World@ReplicaManager3@VENet@@@DataStructures@@QAEX_NPBDI@Z 00528c40 f i ReplicaManager3.obj
 0002:00071cf0       ?Clear@?$List@PAVConnection_RM3@VENet@@@DataStructures@@QAEX_NPBDI@Z 00528cf0 f i ReplicaManager3.obj
 0002:00071da0       ?Clear@?$List@PAVReplica3@VENet@@@DataStructures@@QAEX_NPBDI@Z 00528da0 f i ReplicaManager3.obj
 0002:00071e50       ?Clear@?$OrderedList@PAVReplica3@VENet@@PAULastSerializationResult@2@$1?Replica3LSRComp@Connection_RM3@2@SAHABQAV12@ABQAU32@@Z@DataStructures@@QAEX_NPBDI@Z 00528e50 f i ReplicaManager3.obj
 0002:00071ec0       ?Clear@?$Queue@PAUPacket@VENet@@@DataStructures@@QAEXPBDI@Z 00528ec0 f i ReplicaManager3.obj
 0002:00071f70       ?Clear@RM3World@ReplicaManager3@VENet@@QAEXPAV23@@Z 00528f70 f   ReplicaManager3.obj
 0002:00072140       ?Clear@ReplicaManager3@VENet@@QAEX_N@Z 00529140 f   ReplicaManager3.obj
 0002:000722b0       ?ClearDownloadGroup@Connection_RM3@VENet@@QAEXPAVVEPeerInterface@2@@Z 005292b0 f   ReplicaManager3.obj
 0002:00072380       ?DeallocReplicaNoBroadcastDestruction@ReplicaManager3@VENet@@IAEXPAVConnection_RM3@2@PAVReplica3@2@@Z 00529380 f   ReplicaManager3.obj
 0002:00072400       ?Dereference@ReplicaManager3@VENet@@QAEXPAVReplica3@2@E@Z 00529400 f   ReplicaManager3.obj
 0002:00072550       ?DereferenceList@ReplicaManager3@VENet@@QAEXAAV?$List@PAVReplica3@VENet@@@DataStructures@@E@Z 00529550 f   ReplicaManager3.obj
 0002:000725f0       ?DeserializeConstructionExisting@Replica3@VENet@@UAEXPAVBitStream@2@PAVConnection_RM3@2@@Z 005295f0 f i ReplicaManager3.obj
 0002:00072630       ?DeserializeOnDownloadComplete@Connection_RM3@VENet@@UAEXPAVBitStream@2@@Z 00529630 f i ReplicaManager3.obj
 0002:00072670       ?DeserializeOnDownloadStarted@Connection_RM3@VENet@@UAEXPAVBitStream@2@@Z 00529670 f i ReplicaManager3.obj
 0002:000726b0       ?GetAllConnectionDownloadsCompleted@ReplicaManager3@VENet@@QBE_NE@Z 005296b0 f   ReplicaManager3.obj
 0002:000727b0       ?GetAutoCreateConnections@ReplicaManager3@VENet@@QBE_NXZ 005297b0 f   ReplicaManager3.obj
 0002:000727f0       ?GetAutoDestroyConnections@ReplicaManager3@VENet@@QBE_NXZ 005297f0 f   ReplicaManager3.obj
 0002:00072830       ?GetConnectionAtIndex@ReplicaManager3@VENet@@QBEPAVConnection_RM3@2@IE@Z 00529830 f   ReplicaManager3.obj
 0002:000728f0       ?GetConnectionByGUID@ReplicaManager3@VENet@@QBEPAVConnection_RM3@2@UVENetGUID@2@E@Z 005298f0 f   ReplicaManager3.obj
 0002:00072a10       ?GetConnectionBySystemAddress@ReplicaManager3@VENet@@QBEPAVConnection_RM3@2@ABUSystemAddress@2@E@Z 00529a10 f   ReplicaManager3.obj
 0002:00072b50       ?GetConnectionCount@ReplicaManager3@VENet@@QBEIE@Z 00529b50 f   ReplicaManager3.obj
 0002:00072c00       ?GetConnectionsThatHaveReplicaConstructed@ReplicaManager3@VENet@@QAEXPAVReplica3@2@AAV?$List@PAVConnection_RM3@VENet@@@DataStructures@@E@Z 00529c00 f   ReplicaManager3.obj
 0002:00072d40       ?GetConstructedReplicas@Connection_RM3@VENet@@UAEXAAV?$List@PAVReplica3@VENet@@@DataStructures@@@Z 00529d40 f   ReplicaManager3.obj
 0002:00072e10       ?GetCreatingSystemGUID@Replica3@VENet@@QBE?AUVENetGUID@2@XZ 00529e10 f   ReplicaManager3.obj
 0002:00072e80       ?GetDefaultSendParameters@ReplicaManager3@VENet@@QBE?AUPRO@2@XZ 00529e80 f   ReplicaManager3.obj
 0002:00072ef0       ?GetDownloadWasCompleted@Connection_RM3@VENet@@QBE_NXZ 00529ef0 f i ReplicaManager3.obj
 0002:00072f30       ?GetIndexFromKey@?$OrderedList@PAVReplica3@VENet@@PAULastSerializationResult@2@$1?Replica3LSRComp@Connection_RM3@2@SAHABQAV12@ABQAU32@@Z@DataStructures@@QBEIABQAVReplica3@VENet@@PA_NP6AH0ABQAULastSerializationResult@4@@Z@Z 00529f30 f i ReplicaManager3.obj
 0002:00073070       ?GetIndexOf@?$List@PAVConnection_RM3@VENet@@@DataStructures@@QBEIABQAVConnection_RM3@VENet@@@Z 0052a070 f i ReplicaManager3.obj
 0002:000730f0       ?GetIndexOf@?$List@PAVReplica3@VENet@@@DataStructures@@QBEIABQAVReplica3@VENet@@@Z 0052a0f0 f i ReplicaManager3.obj
 0002:00073170       ?GetNetworkIDManager@ReplicaManager3@VENet@@QBEPAVNetworkIDManager@2@E@Z 0052a170 f   ReplicaManager3.obj
 0002:00073220       ?GetRakPeerInterface@PluginInterface2@VENet@@QBEPAVVEPeerInterface@2@XZ 0052a220 f i ReplicaManager3.obj
 0002:00073260       ?GetReferencedReplicaList@ReplicaManager3@VENet@@QAEXAAV?$List@PAVReplica3@VENet@@@DataStructures@@E@Z 0052a260 f   ReplicaManager3.obj
 0002:00073320       ?GetReplicaAtIndex@ReplicaManager3@VENet@@QAEPAVReplica3@2@IE@Z 0052a320 f   ReplicaManager3.obj
 0002:000733e0       ?GetReplicaByNetworkID@ReplicaManager3@VENet@@IAEPAVReplica3@2@_KE@Z 0052a3e0 f   ReplicaManager3.obj
 0002:000734f0       ?GetReplicaCount@ReplicaManager3@VENet@@QBEIE@Z 0052a4f0 f   ReplicaManager3.obj
 0002:000735b0       ?GetReplicasCreatedByGuid@ReplicaManager3@VENet@@QAEXUVENetGUID@2@AAV?$List@PAVReplica3@VENet@@@DataStructures@@E@Z 0052a5b0 f   ReplicaManager3.obj
 0002:00073700       ?GetReplicasCreatedByMe@ReplicaManager3@VENet@@QAEXAAV?$List@PAVReplica3@VENet@@@DataStructures@@E@Z 0052a700 f   ReplicaManager3.obj
 0002:000738a0       ?GetSystemAddress@Connection_RM3@VENet@@QBE?AUSystemAddress@2@XZ 0052a8a0 f i ReplicaManager3.obj
 0002:00073910       ?GetVENetGuid@Connection_RM3@VENet@@QBE?AUVENetGUID@2@XZ 0052a910 f i ReplicaManager3.obj
 0002:00073980       ?HasData@?$OrderedList@PAVReplica3@VENet@@PAULastSerializationResult@2@$1?Replica3LSRComp@Connection_RM3@2@SAHABQAV12@ABQAU32@@Z@DataStructures@@QBE_NABQAVReplica3@VENet@@P6AH0ABQAULastSerializationResult@4@@Z@Z 0052a980 f i ReplicaManager3.obj
 0002:00073a30       ?HasReplicaConstructed@Connection_RM3@VENet@@QAE_NPAVReplica3@2@@Z 0052aa30 f   ReplicaManager3.obj
 0002:00073ae0       ?Insert@?$List@PAULastSerializationResult@VENet@@@DataStructures@@QAEXABQAULastSerializationResult@VENet@@IPBDI@Z 0052aae0 f i ReplicaManager3.obj
 0002:00073ca0       ?Insert@?$List@PAULastSerializationResult@VENet@@@DataStructures@@QAEXABQAULastSerializationResult@VENet@@PBDI@Z 0052aca0 f i ReplicaManager3.obj
 0002:00073df0       ?Insert@?$List@PAURM3World@ReplicaManager3@VENet@@@DataStructures@@QAEXABQAURM3World@ReplicaManager3@VENet@@PBDI@Z 0052adf0 f i ReplicaManager3.obj
 0002:00073f40       ?Insert@?$List@PAVConnection_RM3@VENet@@@DataStructures@@QAEXABQAVConnection_RM3@VENet@@PBDI@Z 0052af40 f i ReplicaManager3.obj
 0002:00074090       ?Insert@?$List@PAVReplica3@VENet@@@DataStructures@@QAEXABQAVReplica3@VENet@@PBDI@Z 0052b090 f i ReplicaManager3.obj
 0002:000741e0       ?Insert@?$List@_K@DataStructures@@QAEXAB_KPBDI@Z 0052b1e0 f i ReplicaManager3.obj
 0002:00074340       ?Insert@?$OrderedList@PAVReplica3@VENet@@PAULastSerializationResult@2@$1?Replica3LSRComp@Connection_RM3@2@SAHABQAV12@ABQAU32@@Z@DataStructures@@QAEIABQAVReplica3@VENet@@ABQAULastSerializationResult@4@_NPBDIP6AH01@Z@Z 0052b340 f i ReplicaManager3.obj
 0002:00074490       ?OnClosedConnection@ReplicaManager3@VENet@@MAEXABUSystemAddress@2@UVENetGUID@2@W4PI2_LostConnectionReason@2@@Z 0052b490 f   ReplicaManager3.obj
 0002:00074540       ?OnConstructToThisConnection@Connection_RM3@VENet@@IAEXIPAVReplicaManager3@2@@Z 0052b540 f   ReplicaManager3.obj
 0002:000746e0       ?OnConstructToThisConnection@Connection_RM3@VENet@@IAEXPAVReplica3@2@PAVReplicaManager3@2@@Z 0052b6e0 f   ReplicaManager3.obj
 0002:00074870       ?OnConstruction@ReplicaManager3@VENet@@IAE?AW4PluginReceiveResult@2@PAUPacket@2@PAEHUVENetGUID@2@EE@Z 0052b870 f   ReplicaManager3.obj
 0002:00075920       ?OnDereference@Connection_RM3@VENet@@IAEXPAVReplica3@2@PAVReplicaManager3@2@@Z 0052c920 f   ReplicaManager3.obj
 0002:00075bd0       ?OnDetach@ReplicaManager3@VENet@@MAEXXZ 0052cbd0 f   ReplicaManager3.obj
 0002:00075c30       ?OnDoNotQueryDestruction@Connection_RM3@VENet@@IAEXIPAVReplicaManager3@2@@Z 0052cc30 f   ReplicaManager3.obj
 0002:00075cb0       ?OnDownloadComplete@ReplicaManager3@VENet@@IAE?AW4PluginReceiveResult@2@PAUPacket@2@PAEHUVENetGUID@2@EE@Z 0052ccb0 f   ReplicaManager3.obj
 0002:00075f40       ?OnDownloadExisting@Connection_RM3@VENet@@IAEXPAVReplica3@2@PAVReplicaManager3@2@@Z 0052cf40 f   ReplicaManager3.obj
 0002:00076040       ?OnDownloadFromOtherSystem@Connection_RM3@VENet@@IAEXPAVReplica3@2@PAVReplicaManager3@2@@Z 0052d040 f   ReplicaManager3.obj
 0002:000761b0       ?OnDownloadFromThisSystem@Connection_RM3@VENet@@IAEXPAVReplica3@2@PAVReplicaManager3@2@@Z 0052d1b0 f   ReplicaManager3.obj
 0002:00076450       ?OnDownloadStarted@ReplicaManager3@VENet@@IAE?AW4PluginReceiveResult@2@PAUPacket@2@PAEHUVENetGUID@2@EE@Z 0052d450 f   ReplicaManager3.obj
 0002:000766a0       ?OnLocalReference@Connection_RM3@VENet@@IAEXPAVReplica3@2@PAVReplicaManager3@2@@Z 0052d6a0 f   ReplicaManager3.obj
 0002:000768f0       ?OnNeverConstruct@Connection_RM3@VENet@@IAEXIPAVReplicaManager3@2@@Z 0052d8f0 f   ReplicaManager3.obj
 0002:00076a00       ?OnNeverSerialize@Connection_RM3@VENet@@IAEXPAULastSerializationResult@2@PAVReplicaManager3@2@@Z 0052da00 f   ReplicaManager3.obj
 0002:00076ad0       ?OnNewConnection@ReplicaManager3@VENet@@MAEXABUSystemAddress@2@UVENetGUID@2@_N@Z 0052dad0 f   ReplicaManager3.obj
 0002:00076b90       ?OnPoppedConnection@Replica3@VENet@@UAEXPAVConnection_RM3@2@@Z 0052db90 f i ReplicaManager3.obj
 0002:00076bd0       ?OnReceive@ReplicaManager3@VENet@@MAE?AW4PluginReceiveResult@2@PAUPacket@2@@Z 0052dbd0 f   ReplicaManager3.obj
 0002:00077080       ?OnReplicaAlreadyExists@Connection_RM3@VENet@@IAEXIPAVReplicaManager3@2@@Z 0052e080 f   ReplicaManager3.obj
 0002:00077220       ?OnSendDestructionFromQuery@Connection_RM3@VENet@@IAEXIPAVReplicaManager3@2@@Z 0052e220 f   ReplicaManager3.obj
 0002:00077550       ?OnSerialize@ReplicaManager3@VENet@@IAE?AW4PluginReceiveResult@2@PAUPacket@2@PAEHUVENetGUID@2@_KEE@Z 0052e550 f   ReplicaManager3.obj
 0002:00077920       ?OnSerializeTransmission@Replica3@VENet@@UAEXPAVBitStream@2@PAVConnection_RM3@2@QAI_K@Z 0052e920 f i ReplicaManager3.obj
 0002:00077960       ?OnUserReplicaPreSerializeTick@Replica3@VENet@@UAEXXZ 0052e960 f i ReplicaManager3.obj
 0002:000779a0       ?OnVEPeerShutdown@ReplicaManager3@VENet@@MAEXXZ 0052e9a0 f   ReplicaManager3.obj
 0002:00077ac0       ?PopConnection@ReplicaManager3@VENet@@IAEPAVConnection_RM3@2@IE@Z 0052eac0 f   ReplicaManager3.obj
 0002:00078010       ?PopConnection@ReplicaManager3@VENet@@QAEPAVConnection_RM3@2@UVENetGUID@2@E@Z 0052f010 f   ReplicaManager3.obj
 0002:00078130       ?PostDeserializeConstruction@Replica3@VENet@@UAEXPAVBitStream@2@PAVConnection_RM3@2@@Z 0052f130 f i ReplicaManager3.obj
 0002:00078170       ?PostDeserializeConstructionExisting@Replica3@VENet@@UAEXPAVBitStream@2@PAVConnection_RM3@2@@Z 0052f170 f i ReplicaManager3.obj
 0002:000781b0       ?PostSerializeConstruction@Replica3@VENet@@UAEXPAVBitStream@2@PAVConnection_RM3@2@@Z 0052f1b0 f i ReplicaManager3.obj
 0002:000781f0       ?PostSerializeConstructionExisting@Replica3@VENet@@UAEXPAVBitStream@2@PAVConnection_RM3@2@@Z 0052f1f0 f i ReplicaManager3.obj
 0002:00078230       ?PreDestruction@Replica3@VENet@@UAEXPAVConnection_RM3@2@@Z 0052f230 f i ReplicaManager3.obj
 0002:00078270       ?Push@?$List@PAULastSerializationResult@VENet@@@DataStructures@@QAEXABQAULastSerializationResult@VENet@@PBDI@Z 0052f270 f i ReplicaManager3.obj
 0002:000782d0       ?Push@?$List@PAURM3World@ReplicaManager3@VENet@@@DataStructures@@QAEXABQAURM3World@ReplicaManager3@VENet@@PBDI@Z 0052f2d0 f i ReplicaManager3.obj
 0002:00078330       ?Push@?$List@PAVConnection_RM3@VENet@@@DataStructures@@QAEXABQAVConnection_RM3@VENet@@PBDI@Z 0052f330 f i ReplicaManager3.obj
 0002:00078390       ?Push@?$List@PAVReplica3@VENet@@@DataStructures@@QAEXABQAVReplica3@VENet@@PBDI@Z 0052f390 f i ReplicaManager3.obj
 0002:000783f0       ?Push@?$List@_K@DataStructures@@QAEXAB_KPBDI@Z 0052f3f0 f i ReplicaManager3.obj
 0002:00078450       ?PushConnection@ReplicaManager3@VENet@@QAE_NPAVConnection_RM3@2@E@Z 0052f450 f   ReplicaManager3.obj
 0002:000786c0       ?QueryActionOnPopConnection_Client@Replica3@VENet@@UBE?AW4RM3ActionOnPopConnection@2@PAVConnection_RM3@2@@Z 0052f6c0 f   ReplicaManager3.obj
 0002:00078700       ?QueryActionOnPopConnection_PeerToPeer@Replica3@VENet@@UBE?AW4RM3ActionOnPopConnection@2@PAVConnection_RM3@2@@Z 0052f700 f   ReplicaManager3.obj
 0002:00078740       ?QueryActionOnPopConnection_Server@Replica3@VENet@@UBE?AW4RM3ActionOnPopConnection@2@PAVConnection_RM3@2@@Z 0052f740 f   ReplicaManager3.obj
 0002:00078780       ?QueryConstructionMode@Connection_RM3@VENet@@UBE?AW4ConstructionMode@12@XZ 0052f780 f i ReplicaManager3.obj
 0002:000787c0       ?QueryConstruction_ClientConstruction@Replica3@VENet@@UAE?AW4RM3ConstructionState@2@PAVConnection_RM3@2@_N@Z 0052f7c0 f   ReplicaManager3.obj
 0002:000788b0       ?QueryConstruction_PeerToPeer@Replica3@VENet@@UAE?AW4RM3ConstructionState@2@PAVConnection_RM3@2@W4Replica3P2PMode@2@@Z 0052f8b0 f   ReplicaManager3.obj
 0002:00078a10       ?QueryConstruction_ServerConstruction@Replica3@VENet@@UAE?AW4RM3ConstructionState@2@PAVConnection_RM3@2@_N@Z 0052fa10 f   ReplicaManager3.obj
 0002:00078a60       ?QueryDestruction@Replica3@VENet@@UAE?AW4RM3DestructionState@2@PAVConnection_RM3@2@PAVReplicaManager3@2@@Z 0052fa60 f i ReplicaManager3.obj
 0002:00078aa0       ?QueryGroupDownloadMessages@Connection_RM3@VENet@@UBE_NXZ 0052faa0 f i ReplicaManager3.obj
 0002:00078ae0       ?QueryRelayDestruction@Replica3@VENet@@UBE_NPAVConnection_RM3@2@@Z 0052fae0 f i ReplicaManager3.obj
 0002:00078b20       ?QueryRemoteConstruction_ClientConstruction@Replica3@VENet@@UAE_NPAVConnection_RM3@2@_N@Z 0052fb20 f   ReplicaManager3.obj
 0002:00078b60       ?QueryRemoteConstruction_PeerToPeer@Replica3@VENet@@UAE_NPAVConnection_RM3@2@@Z 0052fb60 f   ReplicaManager3.obj
 0002:00078ba0       ?QueryRemoteConstruction_ServerConstruction@Replica3@VENet@@UAE_NPAVConnection_RM3@2@_N@Z 0052fba0 f   ReplicaManager3.obj
 0002:00078bf0       ?QueryReplicaList@Connection_RM3@VENet@@UAEXAAV?$List@PAVReplica3@VENet@@@DataStructures@@0@Z 0052fbf0 f i ReplicaManager3.obj
 0002:00078c30       ?QuerySerializationList@Connection_RM3@VENet@@UAE_NAAV?$List@PAVReplica3@VENet@@@DataStructures@@@Z 0052fc30 f i ReplicaManager3.obj
 0002:00078c70       ?QuerySerialization_ClientSerializable@Replica3@VENet@@UAE?AW4RM3QuerySerializationResult@2@PAVConnection_RM3@2@_N@Z 0052fc70 f   ReplicaManager3.obj
 0002:00078d90       ?QuerySerialization_PeerToPeer@Replica3@VENet@@UAE?AW4RM3QuerySerializationResult@2@PAVConnection_RM3@2@W4Replica3P2PMode@2@@Z 0052fd90 f   ReplicaManager3.obj
 0002:00078ef0       ?QuerySerialization_ServerSerializable@Replica3@VENet@@UAE?AW4RM3QuerySerializationResult@2@PAVConnection_RM3@2@_N@Z 0052fef0 f   ReplicaManager3.obj
 0002:00078f40       ?Reference@ReplicaManager3@VENet@@QAEXPAVReplica3@2@E@Z 0052ff40 f   ReplicaManager3.obj
 0002:000790a0       ?ReferenceInternal@ReplicaManager3@VENet@@IAEIPAVReplica3@2@E@Z 005300a0 f   ReplicaManager3.obj
 0002:000792a0       ?RemoveAtIndex@?$List@PAULastSerializationResult@VENet@@@DataStructures@@QAEXI@Z 005302a0 f i ReplicaManager3.obj
 0002:00079390       ?RemoveAtIndex@?$List@PAVConnection_RM3@VENet@@@DataStructures@@QAEXI@Z 00530390 f i ReplicaManager3.obj
 0002:00079480       ?RemoveAtIndex@?$List@PAVReplica3@VENet@@@DataStructures@@QAEXI@Z 00530480 f i ReplicaManager3.obj
 0002:00079570       ?RemoveAtIndex@?$OrderedList@PAVReplica3@VENet@@PAULastSerializationResult@2@$1?Replica3LSRComp@Connection_RM3@2@SAHABQAV12@ABQAU32@@Z@DataStructures@@QAEXI@Z 00530570 f i ReplicaManager3.obj
 0002:000795d0       ?RemoveAtIndexFast@?$List@PAURM3World@ReplicaManager3@VENet@@@DataStructures@@QAEXI@Z 005305d0 f i ReplicaManager3.obj
 0002:00079690       ?RemoveFromEnd@?$List@PAULastSerializationResult@VENet@@@DataStructures@@QAEXI@Z 00530690 f i ReplicaManager3.obj
 0002:00079730       ?RemoveFromEnd@?$List@PAVConnection_RM3@VENet@@@DataStructures@@QAEXI@Z 00530730 f i ReplicaManager3.obj
 0002:000797d0       ?RemoveFromEnd@?$List@PAVReplica3@VENet@@@DataStructures@@QAEXI@Z 005307d0 f i ReplicaManager3.obj
 0002:00079870       ?RemoveWorld@ReplicaManager3@VENet@@QAEXE@Z 00530870 f   ReplicaManager3.obj
 0002:000799c0       ?Replica3LSRComp@Connection_RM3@VENet@@SAHABQAVReplica3@2@ABQAULastSerializationResult@2@@Z 005309c0 f   ReplicaManager3.obj
 0002:00079b30       ?SendConstruction@Connection_RM3@VENet@@UAEXAAV?$List@PAVReplica3@VENet@@@DataStructures@@0UPRO@2@PAVVEPeerInterface@2@EPAVReplicaManager3@2@@Z 00530b30 f   ReplicaManager3.obj
 0002:0007ab00       ?SendSerialize@Connection_RM3@VENet@@UAE?AW4SendSerializeIfChangedResult@2@PAVReplica3@2@QA_NQAVBitStream@2@_KQAUPRO@2@PAVVEPeerInterface@2@E3@Z 00531b00 f   ReplicaManager3.obj
 0002:0007b2c0       ?SendSerializeHeader@Connection_RM3@VENet@@IAEXPAVReplica3@2@_KPAVBitStream@2@E@Z 005322c0 f   ReplicaManager3.obj
 0002:0007b3b0       ?SendSerializeIfChanged@Connection_RM3@VENet@@UAE?AW4SendSerializeIfChangedResult@2@PAULastSerializationResult@2@PAUSerializeParameters@2@PAVVEPeerInterface@2@EPAVReplicaManager3@2@_K@Z 005323b0 f   ReplicaManager3.obj
 0002:0007bf30       ?SendValidation@Connection_RM3@VENet@@QAEXPAVVEPeerInterface@2@E@Z 00532f30 f   ReplicaManager3.obj
 0002:0007c0a0       ?SerializeConstructionExisting@Replica3@VENet@@UAEXPAVBitStream@2@PAVConnection_RM3@2@@Z 005330a0 f i ReplicaManager3.obj
 0002:0007c0e0       ?SerializeOnDownloadComplete@Connection_RM3@VENet@@UAEXPAVBitStream@2@@Z 005330e0 f i ReplicaManager3.obj
 0002:0007c120       ?SerializeOnDownloadStarted@Connection_RM3@VENet@@UAEXPAVBitStream@2@@Z 00533120 f i ReplicaManager3.obj
 0002:0007c160       ?SetAutoManageConnections@ReplicaManager3@VENet@@QAEX_N0@Z 00533160 f   ReplicaManager3.obj
 0002:0007c1b0       ?SetAutoSerializeInterval@ReplicaManager3@VENet@@QAEX_K@Z 005331b0 f   ReplicaManager3.obj
 0002:0007c200       ?SetDefaultOrderingChannel@ReplicaManager3@VENet@@QAEXD@Z 00533200 f   ReplicaManager3.obj
 0002:0007c250       ?SetDefaultPacketPriority@ReplicaManager3@VENet@@QAEXW4PacketPriority@@@Z 00533250 f   ReplicaManager3.obj
 0002:0007c2a0       ?SetDefaultPacketReliability@ReplicaManager3@VENet@@QAEXW4PacketReliability@@@Z 005332a0 f   ReplicaManager3.obj
 0002:0007c2f0       ?SetNetworkIDManager@ReplicaManager3@VENet@@QAEXPAVNetworkIDManager@2@E@Z 005332f0 f   ReplicaManager3.obj
 0002:0007c3a0       ?Size@?$List@PAULastSerializationResult@VENet@@@DataStructures@@QBEIXZ 005333a0 f i ReplicaManager3.obj
 0002:0007c3e0       ?Size@?$List@PAURM3World@ReplicaManager3@VENet@@@DataStructures@@QBEIXZ 005333e0 f i ReplicaManager3.obj
 0002:0007c420       ?Size@?$List@PAVConnection_RM3@VENet@@@DataStructures@@QBEIXZ 00533420 f i ReplicaManager3.obj
 0002:0007c460       ?Size@?$List@PAVReplica3@VENet@@@DataStructures@@QBEIXZ 00533460 f i ReplicaManager3.obj
 0002:0007c4a0       ?Size@?$List@_K@DataStructures@@QBEIXZ 005334a0 f i ReplicaManager3.obj
 0002:0007c4e0       ?Size@?$OrderedList@PAVReplica3@VENet@@PAULastSerializationResult@2@$1?Replica3LSRComp@Connection_RM3@2@SAHABQAV12@ABQAU32@@Z@DataStructures@@QBEIXZ 005334e0 f i ReplicaManager3.obj
 0002:0007c530       ?Update@ReplicaManager3@VENet@@UAEXXZ 00533530 f   ReplicaManager3.obj
 0002:0007ccc0       ?ValidateLists@Connection_RM3@VENet@@IBEXPAVReplicaManager3@2@@Z 00533cc0 f   ReplicaManager3.obj
 0002:0007cd00       ??$OP_DELETE@ULocalCallback@RPC4@VENet@@@VENet@@YAXPAULocalCallback@RPC4@0@PBDI@Z 00533d00 f i RPC4Plugin.obj
 0002:0007cd90       ??$OP_DELETE@ULocalSlot@RPC4@VENet@@@VENet@@YAXPAULocalSlot@RPC4@0@PBDI@Z 00533d90 f i RPC4Plugin.obj
 0002:0007ce20       ??$OP_DELETE@UNode@?$Hash@VVEString@VENet@@P6AXPAVBitStream@2@0PAUPacket@2@@Z$0EA@$1?ToInteger@12@SAKABV12@@Z@DataStructures@@@VENet@@YAXPAUNode@?$Hash@VVEString@VENet@@P6AXPAVBitStream@2@0PAUPacket@2@@Z$0EA@$1?ToInteger@12@SAKABV12@@Z@DataStructures@@PBDI@Z 00533e20 f i RPC4Plugin.obj
 0002:0007ceb0       ??$OP_DELETE@UNode@?$Hash@VVEString@VENet@@P6AXPAVBitStream@2@PAUPacket@2@@Z$0EA@$1?ToInteger@12@SAKABV12@@Z@DataStructures@@@VENet@@YAXPAUNode@?$Hash@VVEString@VENet@@P6AXPAVBitStream@2@PAUPacket@2@@Z$0EA@$1?ToInteger@12@SAKABV12@@Z@DataStructures@@PBDI@Z 00533eb0 f i RPC4Plugin.obj
 0002:0007cf40       ??$OP_DELETE@UNode@?$Hash@VVEString@VENet@@PAULocalSlot@RPC4@2@$0BAA@$1?ToInteger@12@SAKABV12@@Z@DataStructures@@@VENet@@YAXPAUNode@?$Hash@VVEString@VENet@@PAULocalSlot@RPC4@2@$0BAA@$1?ToInteger@12@SAKABV12@@Z@DataStructures@@PBDI@Z 00533f40 f i RPC4Plugin.obj
 0002:0007cfd0       ??$OP_DELETE@VRPC4@VENet@@@VENet@@YAXPAVRPC4@0@PBDI@Z 00533fd0 f i RPC4Plugin.obj
 0002:0007d070       ??$OP_DELETE_ARRAY@PAULocalCallback@RPC4@VENet@@@VENet@@YAXPAPAULocalCallback@RPC4@0@PBDI@Z 00534070 f i RPC4Plugin.obj
 0002:0007d0d0       ??$OP_DELETE_ARRAY@PAULocalSlot@RPC4@VENet@@@VENet@@YAXPAPAULocalSlot@RPC4@0@PBDI@Z 005340d0 f i RPC4Plugin.obj
 0002:0007d130       ??$OP_DELETE_ARRAY@PAUNode@?$Hash@VVEString@VENet@@P6AXPAVBitStream@2@0PAUPacket@2@@Z$0EA@$1?ToInteger@12@SAKABV12@@Z@DataStructures@@@VENet@@YAXPAPAUNode@?$Hash@VVEString@VENet@@P6AXPAVBitStream@2@0PAUPacket@2@@Z$0EA@$1?ToInteger@12@SAKABV12@@Z@DataStructures@@PBDI@Z 00534130 f i RPC4Plugin.obj
 0002:0007d190       ??$OP_DELETE_ARRAY@PAUNode@?$Hash@VVEString@VENet@@P6AXPAVBitStream@2@PAUPacket@2@@Z$0EA@$1?ToInteger@12@SAKABV12@@Z@DataStructures@@@VENet@@YAXPAPAUNode@?$Hash@VVEString@VENet@@P6AXPAVBitStream@2@PAUPacket@2@@Z$0EA@$1?ToInteger@12@SAKABV12@@Z@DataStructures@@PBDI@Z 00534190 f i RPC4Plugin.obj
 0002:0007d1f0       ??$OP_DELETE_ARRAY@PAUNode@?$Hash@VVEString@VENet@@PAULocalSlot@RPC4@2@$0BAA@$1?ToInteger@12@SAKABV12@@Z@DataStructures@@@VENet@@YAXPAPAUNode@?$Hash@VVEString@VENet@@PAULocalSlot@RPC4@2@$0BAA@$1?ToInteger@12@SAKABV12@@Z@DataStructures@@PBDI@Z 005341f0 f i RPC4Plugin.obj
 0002:0007d250       ??$OP_DELETE_ARRAY@ULocalSlotObject@RPC4@VENet@@@VENet@@YAXPAULocalSlotObject@RPC4@0@PBDI@Z 00534250 f i RPC4Plugin.obj
 0002:0007d2e0       ??$OP_NEW@ULocalCallback@RPC4@VENet@@@VENet@@YAPAULocalCallback@RPC4@0@PBDI@Z 005342e0 f i RPC4Plugin.obj
 0002:0007d3c0       ??$OP_NEW@ULocalSlot@RPC4@VENet@@@VENet@@YAPAULocalSlot@RPC4@0@PBDI@Z 005343c0 f i RPC4Plugin.obj
 0002:0007d4a0       ??$OP_NEW@VRPC4@VENet@@@VENet@@YAPAVRPC4@0@PBDI@Z 005344a0 f i RPC4Plugin.obj
 0002:0007d590       ??$OP_NEW_2@UNode@?$Hash@VVEString@VENet@@P6AXPAVBitStream@2@0PAUPacket@2@@Z$0EA@$1?ToInteger@12@SAKABV12@@Z@DataStructures@@VVEString@VENet@@P6AXPAVBitStream@5@0PAUPacket@5@@Z@VENet@@YAPAUNode@?$Hash@VVEString@VENet@@P6AXPAVBitStream@2@0PAUPacket@2@@Z$0EA@$1?ToInteger@12@SAKABV12@@Z@DataStructures@@PBDIABVVEString@0@ABQ6AXPAVBitStream@0@2PAUPacket@0@@Z@Z 00534590 f i RPC4Plugin.obj
 0002:0007d6a0       ??$OP_NEW_2@UNode@?$Hash@VVEString@VENet@@P6AXPAVBitStream@2@PAUPacket@2@@Z$0EA@$1?ToInteger@12@SAKABV12@@Z@DataStructures@@VVEString@VENet@@P6AXPAVBitStream@5@PAUPacket@5@@Z@VENet@@YAPAUNode@?$Hash@VVEString@VENet@@P6AXPAVBitStream@2@PAUPacket@2@@Z$0EA@$1?ToInteger@12@SAKABV12@@Z@DataStructures@@PBDIABVVEString@0@ABQ6AXPAVBitStream@0@PAUPacket@0@@Z@Z 005346a0 f i RPC4Plugin.obj
 0002:0007d7b0       ??$OP_NEW_2@UNode@?$Hash@VVEString@VENet@@PAULocalSlot@RPC4@2@$0BAA@$1?ToInteger@12@SAKABV12@@Z@DataStructures@@VVEString@VENet@@PAULocalSlot@RPC4@5@@VENet@@YAPAUNode@?$Hash@VVEString@VENet@@PAULocalSlot@RPC4@2@$0BAA@$1?ToInteger@12@SAKABV12@@Z@DataStructures@@PBDIABVVEString@0@ABQAULocalSlot@RPC4@0@@Z 005347b0 f i RPC4Plugin.obj
 0002:0007d8c0       ??$OP_NEW_ARRAY@PAULocalCallback@RPC4@VENet@@@VENet@@YAPAPAULocalCallback@RPC4@0@HPBDI@Z 005348c0 f i RPC4Plugin.obj
 0002:0007d940       ??$OP_NEW_ARRAY@PAULocalSlot@RPC4@VENet@@@VENet@@YAPAPAULocalSlot@RPC4@0@HPBDI@Z 00534940 f i RPC4Plugin.obj
 0002:0007d9c0       ??$OP_NEW_ARRAY@PAUNode@?$Hash@VVEString@VENet@@P6AXPAVBitStream@2@0PAUPacket@2@@Z$0EA@$1?ToInteger@12@SAKABV12@@Z@DataStructures@@@VENet@@YAPAPAUNode@?$Hash@VVEString@VENet@@P6AXPAVBitStream@2@0PAUPacket@2@@Z$0EA@$1?ToInteger@12@SAKABV12@@Z@DataStructures@@HPBDI@Z 005349c0 f i RPC4Plugin.obj
 0002:0007da40       ??$OP_NEW_ARRAY@PAUNode@?$Hash@VVEString@VENet@@P6AXPAVBitStream@2@PAUPacket@2@@Z$0EA@$1?ToInteger@12@SAKABV12@@Z@DataStructures@@@VENet@@YAPAPAUNode@?$Hash@VVEString@VENet@@P6AXPAVBitStream@2@PAUPacket@2@@Z$0EA@$1?ToInteger@12@SAKABV12@@Z@DataStructures@@HPBDI@Z 00534a40 f i RPC4Plugin.obj
 0002:0007dac0       ??$OP_NEW_ARRAY@PAUNode@?$Hash@VVEString@VENet@@PAULocalSlot@RPC4@2@$0BAA@$1?ToInteger@12@SAKABV12@@Z@DataStructures@@@VENet@@YAPAPAUNode@?$Hash@VVEString@VENet@@PAULocalSlot@RPC4@2@$0BAA@$1?ToInteger@12@SAKABV12@@Z@DataStructures@@HPBDI@Z 00534ac0 f i RPC4Plugin.obj
 0002:0007db40       ??$OP_NEW_ARRAY@ULocalSlotObject@RPC4@VENet@@@VENet@@YAPAULocalSlotObject@RPC4@0@HPBDI@Z 00534b40 f i RPC4Plugin.obj
 0002:0007dca0       ??0?$Hash@VVEString@VENet@@P6AXPAVBitStream@2@0PAUPacket@2@@Z$0EA@$1?ToInteger@12@SAKABV12@@Z@DataStructures@@QAE@XZ 00534ca0 f i RPC4Plugin.obj
 0002:0007dcf0       ??0?$Hash@VVEString@VENet@@P6AXPAVBitStream@2@PAUPacket@2@@Z$0EA@$1?ToInteger@12@SAKABV12@@Z@DataStructures@@QAE@XZ 00534cf0 f i RPC4Plugin.obj
 0002:0007dd40       ??0?$Hash@VVEString@VENet@@PAULocalSlot@RPC4@2@$0BAA@$1?ToInteger@12@SAKABV12@@Z@DataStructures@@QAE@XZ 00534d40 f i RPC4Plugin.obj
 0002:0007dd90       ??0?$List@PAULocalCallback@RPC4@VENet@@@DataStructures@@QAE@XZ 00534d90 f i RPC4Plugin.obj
 0002:0007ddf0       ??0?$List@PAULocalSlot@RPC4@VENet@@@DataStructures@@QAE@XZ 00534df0 f i RPC4Plugin.obj
 0002:0007de50       ??0?$List@ULocalSlotObject@RPC4@VENet@@@DataStructures@@QAE@XZ 00534e50 f i RPC4Plugin.obj
 0002:0007deb0       ??0?$OrderedList@EPAULocalCallback@RPC4@VENet@@$1?LocalCallbackComp@23@SAHABEABQAU123@@Z@DataStructures@@QAE@XZ 00534eb0 f i RPC4Plugin.obj
 0002:0007df10       ??0?$OrderedList@ULocalSlotObject@RPC4@VENet@@U123@$1?LocalSlotObjectComp@23@SAHABU123@0@Z@DataStructures@@QAE@XZ 00534f10 f i RPC4Plugin.obj
 0002:0007df70       ??0LocalCallback@RPC4@VENet@@QAE@XZ 00534f70 f i RPC4Plugin.obj
 0002:0007dfd0       ??0LocalSlot@RPC4@VENet@@QAE@XZ 00534fd0 f i RPC4Plugin.obj
 0002:0007e030       ??0LocalSlotObject@RPC4@VENet@@QAE@IHP6AXPAVBitStream@2@PAUPacket@2@@Z@Z 00535030 f i RPC4Plugin.obj
 0002:0007e090       ??0LocalSlotObject@RPC4@VENet@@QAE@XZ 00535090 f i RPC4Plugin.obj
 0002:0007e0d0       ??0Node@?$Hash@VVEString@VENet@@P6AXPAVBitStream@2@0PAUPacket@2@@Z$0EA@$1?ToInteger@12@SAKABV12@@Z@DataStructures@@QAE@VVEString@VENet@@ABQ6AXPAVBitStream@4@1PAUPacket@4@@Z@Z 005350d0 f i RPC4Plugin.obj
 0002:0007e1a0       ??0Node@?$Hash@VVEString@VENet@@P6AXPAVBitStream@2@PAUPacket@2@@Z$0EA@$1?ToInteger@12@SAKABV12@@Z@DataStructures@@QAE@VVEString@VENet@@ABQ6AXPAVBitStream@4@PAUPacket@4@@Z@Z 005351a0 f i RPC4Plugin.obj
 0002:0007e270       ??0Node@?$Hash@VVEString@VENet@@PAULocalSlot@RPC4@2@$0BAA@$1?ToInteger@12@SAKABV12@@Z@DataStructures@@QAE@VVEString@VENet@@ABQAULocalSlot@RPC4@4@@Z 00535270 f i RPC4Plugin.obj
 0002:0007e340       ??0RPC4@VENet@@QAE@XZ      00535340 f   RPC4Plugin.obj
 0002:0007e470       ??0RPC4GlobalRegistration@VENet@@QAE@PBDE@Z 00535470 f   RPC4Plugin.obj
 0002:0007e5d0       ??0RPC4GlobalRegistration@VENet@@QAE@PBDP6AXPAVBitStream@1@1PAUPacket@1@@Z@Z 005355d0 f   RPC4Plugin.obj
 0002:0007e710       ??0RPC4GlobalRegistration@VENet@@QAE@PBDP6AXPAVBitStream@1@PAUPacket@1@@Z@Z 00535710 f   RPC4Plugin.obj
 0002:0007e870       ??0RPC4GlobalRegistration@VENet@@QAE@PBDP6AXPAVBitStream@1@PAUPacket@1@@ZH@Z 00535870 f   RPC4Plugin.obj
 0002:0007ea00       ??1?$Hash@VVEString@VENet@@P6AXPAVBitStream@2@0PAUPacket@2@@Z$0EA@$1?ToInteger@12@SAKABV12@@Z@DataStructures@@QAE@XZ 00535a00 f i RPC4Plugin.obj
 0002:0007ea60       ??1?$Hash@VVEString@VENet@@P6AXPAVBitStream@2@PAUPacket@2@@Z$0EA@$1?ToInteger@12@SAKABV12@@Z@DataStructures@@QAE@XZ 00535a60 f i RPC4Plugin.obj
 0002:0007eac0       ??1?$Hash@VVEString@VENet@@PAULocalSlot@RPC4@2@$0BAA@$1?ToInteger@12@SAKABV12@@Z@DataStructures@@QAE@XZ 00535ac0 f i RPC4Plugin.obj
 0002:0007eb20       ??1?$List@PAULocalCallback@RPC4@VENet@@@DataStructures@@QAE@XZ 00535b20 f i RPC4Plugin.obj
 0002:0007eb90       ??1?$List@PAULocalSlot@RPC4@VENet@@@DataStructures@@QAE@XZ 00535b90 f i RPC4Plugin.obj
 0002:0007ec00       ??1?$List@ULocalSlotObject@RPC4@VENet@@@DataStructures@@QAE@XZ 00535c00 f i RPC4Plugin.obj
 0002:0007ec70       ??1?$OrderedList@EPAULocalCallback@RPC4@VENet@@$1?LocalCallbackComp@23@SAHABEABQAU123@@Z@DataStructures@@QAE@XZ 00535c70 f i RPC4Plugin.obj
 0002:0007ed20       ??1?$OrderedList@ULocalSlotObject@RPC4@VENet@@U123@$1?LocalSlotObjectComp@23@SAHABU123@0@Z@DataStructures@@QAE@XZ 00535d20 f i RPC4Plugin.obj
 0002:0007edd0       ??1LocalCallback@RPC4@VENet@@QAE@XZ 00535dd0 f i RPC4Plugin.obj
 0002:0007ee30       ??1LocalSlot@RPC4@VENet@@QAE@XZ 00535e30 f i RPC4Plugin.obj
 0002:0007ee80       ??1LocalSlotObject@RPC4@VENet@@QAE@XZ 00535e80 f i RPC4Plugin.obj
 0002:0007eec0       ??1Node@?$Hash@VVEString@VENet@@P6AXPAVBitStream@2@0PAUPacket@2@@Z$0EA@$1?ToInteger@12@SAKABV12@@Z@DataStructures@@QAE@XZ 00535ec0 f i RPC4Plugin.obj
 0002:0007ef10       ??1Node@?$Hash@VVEString@VENet@@P6AXPAVBitStream@2@PAUPacket@2@@Z$0EA@$1?ToInteger@12@SAKABV12@@Z@DataStructures@@QAE@XZ 00535f10 f i RPC4Plugin.obj
 0002:0007ef60       ??1Node@?$Hash@VVEString@VENet@@PAULocalSlot@RPC4@2@$0BAA@$1?ToInteger@12@SAKABV12@@Z@DataStructures@@QAE@XZ 00535f60 f i RPC4Plugin.obj
 0002:0007efb0       ??1RPC4@VENet@@UAE@XZ      00535fb0 f   RPC4Plugin.obj
 0002:0007f240       ??A?$List@PAULocalCallback@RPC4@VENet@@@DataStructures@@QBEAAPAULocalCallback@RPC4@VENet@@I@Z 00536240 f i RPC4Plugin.obj
 0002:0007f2e0       ??A?$List@PAULocalSlot@RPC4@VENet@@@DataStructures@@QBEAAPAULocalSlot@RPC4@VENet@@I@Z 005362e0 f i RPC4Plugin.obj
 0002:0007f380       ??A?$List@ULocalSlotObject@RPC4@VENet@@@DataStructures@@QBEAAULocalSlotObject@RPC4@VENet@@I@Z 00536380 f i RPC4Plugin.obj
 0002:0007f420       ??A?$OrderedList@EPAULocalCallback@RPC4@VENet@@$1?LocalCallbackComp@23@SAHABEABQAU123@@Z@DataStructures@@QBEAAPAULocalCallback@RPC4@VENet@@I@Z 00536420 f i RPC4Plugin.obj
 0002:0007f480       ??A?$OrderedList@ULocalSlotObject@RPC4@VENet@@U123@$1?LocalSlotObjectComp@23@SAHABU123@0@Z@DataStructures@@QBEAAULocalSlotObject@RPC4@VENet@@I@Z 00536480 f i RPC4Plugin.obj
 0002:0007f4e0       ??A?$OrderedList@VVEString@VENet@@V12@$1??$defaultOrderedListComparison@VVEString@VENet@@V12@@DataStructures@@YAHABV12@0@Z@DataStructures@@QBEAAVVEString@VENet@@I@Z 005364e0 f i RPC4Plugin.obj
 0002:0007f540       ??_ELocalSlotObject@RPC4@VENet@@QAEPAXI@Z 00536540 f i RPC4Plugin.obj
 0002:0007f600       ??_GLocalCallback@RPC4@VENet@@QAEPAXI@Z 00536600 f i RPC4Plugin.obj
 0002:0007f670       ??_GLocalSlot@RPC4@VENet@@QAEPAXI@Z 00536670 f i RPC4Plugin.obj
 0002:0007f6e0       ??_GNode@?$Hash@VVEString@VENet@@P6AXPAVBitStream@2@0PAUPacket@2@@Z$0EA@$1?ToInteger@12@SAKABV12@@Z@DataStructures@@QAEPAXI@Z 005366e0 f i RPC4Plugin.obj
 0002:0007f750       ??_GNode@?$Hash@VVEString@VENet@@P6AXPAVBitStream@2@PAUPacket@2@@Z$0EA@$1?ToInteger@12@SAKABV12@@Z@DataStructures@@QAEPAXI@Z 00536750 f i RPC4Plugin.obj
 0002:0007f7c0       ??_GNode@?$Hash@VVEString@VENet@@PAULocalSlot@RPC4@2@$0BAA@$1?ToInteger@12@SAKABV12@@Z@DataStructures@@QAEPAXI@Z 005367c0 f i RPC4Plugin.obj
 0002:0007f830       ??_ERPC4@VENet@@UAEPAXI@Z  00536830 f i RPC4Plugin.obj
 0002:0007f830       ??_GRPC4@VENet@@UAEPAXI@Z  00536830 f i RPC4Plugin.obj
 0002:0007f8a0       ?Call@RPC4@VENet@@QAEXPBDPAVBitStream@2@W4PacketPriority@@W4PacketReliability@@DUAddressOrGUID@2@_N@Z 005368a0 f   RPC4Plugin.obj
 0002:0007fa80       ?CallBlocking@RPC4@VENet@@QAE_NPBDPAVBitStream@2@W4PacketPriority@@W4PacketReliability@@DUAddressOrGUID@2@1@Z 00536a80 f   RPC4Plugin.obj
 0002:00080230       ?CallLoopback@RPC4@VENet@@QAEXPBDPAVBitStream@2@@Z 00537230 f   RPC4Plugin.obj
 0002:000806e0       ?Clear@?$Hash@VVEString@VENet@@P6AXPAVBitStream@2@0PAUPacket@2@@Z$0EA@$1?ToInteger@12@SAKABV12@@Z@DataStructures@@QAEXPBDI@Z 005376e0 f i RPC4Plugin.obj
 0002:000807a0       ?Clear@?$Hash@VVEString@VENet@@P6AXPAVBitStream@2@PAUPacket@2@@Z$0EA@$1?ToInteger@12@SAKABV12@@Z@DataStructures@@QAEXPBDI@Z 005377a0 f i RPC4Plugin.obj
 0002:00080860       ?Clear@?$Hash@VVEString@VENet@@PAULocalSlot@RPC4@2@$0BAA@$1?ToInteger@12@SAKABV12@@Z@DataStructures@@QAEXPBDI@Z 00537860 f i RPC4Plugin.obj
 0002:00080930       ?Clear@?$List@PAULocalCallback@RPC4@VENet@@@DataStructures@@QAEX_NPBDI@Z 00537930 f i RPC4Plugin.obj
 0002:000809e0       ?Clear@?$List@PAULocalSlot@RPC4@VENet@@@DataStructures@@QAEX_NPBDI@Z 005379e0 f i RPC4Plugin.obj
 0002:00080a90       ?Clear@?$List@ULocalSlotObject@RPC4@VENet@@@DataStructures@@QAEX_NPBDI@Z 00537a90 f i RPC4Plugin.obj
 0002:00080b40       ?Clear@?$OrderedList@EPAULocalCallback@RPC4@VENet@@$1?LocalCallbackComp@23@SAHABEABQAU123@@Z@DataStructures@@QAEX_NPBDI@Z 00537b40 f i RPC4Plugin.obj
 0002:00080bb0       ?Clear@?$OrderedList@ULocalSlotObject@RPC4@VENet@@U123@$1?LocalSlotObjectComp@23@SAHABU123@0@Z@DataStructures@@QAEX_NPBDI@Z 00537bb0 f i RPC4Plugin.obj
 0002:00080c20       ?ClearIndex@?$Hash@VVEString@VENet@@P6AXPAVBitStream@2@0PAUPacket@2@@Z$0EA@$1?ToInteger@12@SAKABV12@@Z@DataStructures@@IAEXIPBDI@Z 00537c20 f i RPC4Plugin.obj
 0002:00080ce0       ?ClearIndex@?$Hash@VVEString@VENet@@P6AXPAVBitStream@2@PAUPacket@2@@Z$0EA@$1?ToInteger@12@SAKABV12@@Z@DataStructures@@IAEXIPBDI@Z 00537ce0 f i RPC4Plugin.obj
 0002:00080da0       ?ClearIndex@?$Hash@VVEString@VENet@@PAULocalSlot@RPC4@2@$0BAA@$1?ToInteger@12@SAKABV12@@Z@DataStructures@@IAEXIPBDI@Z 00537da0 f i RPC4Plugin.obj
 0002:00080e60       ?DestroyInstance@RPC4@VENet@@SAXPAV12@@Z 00537e60 f   RPC4Plugin.obj
 0002:00080ec0       ?GetAsList@?$Hash@VVEString@VENet@@PAULocalSlot@RPC4@2@$0BAA@$1?ToInteger@12@SAKABV12@@Z@DataStructures@@QBEXAAV?$List@PAULocalSlot@RPC4@VENet@@@2@AAV?$List@VVEString@VENet@@@2@PBDI@Z 00537ec0 f i RPC4Plugin.obj
 0002:00080fe0       ?GetIndexFromKey@?$OrderedList@EPAULocalCallback@RPC4@VENet@@$1?LocalCallbackComp@23@SAHABEABQAU123@@Z@DataStructures@@QBEIABEPA_NP6AH0ABQAULocalCallback@RPC4@VENet@@@Z@Z 00537fe0 f i RPC4Plugin.obj
 0002:00081120       ?GetIndexFromKey@?$OrderedList@ULocalSlotObject@RPC4@VENet@@U123@$1?LocalSlotObjectComp@23@SAHABU123@0@Z@DataStructures@@QBEIABULocalSlotObject@RPC4@VENet@@PA_NP6AH00@Z@Z 00538120 f i RPC4Plugin.obj
 0002:00081260       ?GetIndexOf@?$Hash@VVEString@VENet@@P6AXPAVBitStream@2@0PAUPacket@2@@Z$0EA@$1?ToInteger@12@SAKABV12@@Z@DataStructures@@QAE?AUHashIndex@2@VVEString@VENet@@@Z 00538260 f i RPC4Plugin.obj
 0002:00081480       ?GetIndexOf@?$Hash@VVEString@VENet@@P6AXPAVBitStream@2@PAUPacket@2@@Z$0EA@$1?ToInteger@12@SAKABV12@@Z@DataStructures@@QAE?AUHashIndex@2@VVEString@VENet@@@Z 00538480 f i RPC4Plugin.obj
 0002:000816a0       ?GetIndexOf@?$Hash@VVEString@VENet@@PAULocalSlot@RPC4@2@$0BAA@$1?ToInteger@12@SAKABV12@@Z@DataStructures@@QAE?AUHashIndex@2@VVEString@VENet@@@Z 005386a0 f i RPC4Plugin.obj
 0002:000818c0       ?GetInstance@RPC4@VENet@@SAPAV12@XZ 005388c0 f   RPC4Plugin.obj
 0002:00081920       ?GetLocalSlotIndex@RPC4@VENet@@IAE?AUHashIndex@DataStructures@@PBD@Z 00538920 f   RPC4Plugin.obj
 0002:000819a0       ?Insert@?$List@PAULocalCallback@RPC4@VENet@@@DataStructures@@QAEXABQAULocalCallback@RPC4@VENet@@IPBDI@Z 005389a0 f i RPC4Plugin.obj
 0002:00081b60       ?Insert@?$List@PAULocalSlot@RPC4@VENet@@@DataStructures@@QAEXABQAULocalSlot@RPC4@VENet@@PBDI@Z 00538b60 f i RPC4Plugin.obj
 0002:00081cb0       ?Insert@?$List@ULocalSlotObject@RPC4@VENet@@@DataStructures@@QAEXABULocalSlotObject@RPC4@VENet@@IPBDI@Z 00538cb0 f i RPC4Plugin.obj
 0002:00081ec0       ?Insert@?$List@ULocalSlotObject@RPC4@VENet@@@DataStructures@@QAEXABULocalSlotObject@RPC4@VENet@@PBDI@Z 00538ec0 f i RPC4Plugin.obj
 0002:00082030       ?Insert@?$List@VVEString@VENet@@@DataStructures@@QAEXABVVEString@VENet@@PBDI@Z 00539030 f i RPC4Plugin.obj
 0002:00082180       ?Insert@?$OrderedList@ULocalSlotObject@RPC4@VENet@@U123@$1?LocalSlotObjectComp@23@SAHABU123@0@Z@DataStructures@@QAEIABULocalSlotObject@RPC4@VENet@@0_NPBDIP6AH00@Z@Z 00539180 f i RPC4Plugin.obj
 0002:000822d0       ?Insert@?$OrderedList@VVEString@VENet@@V12@$1??$defaultOrderedListComparison@VVEString@VENet@@V12@@DataStructures@@YAHABV12@0@Z@DataStructures@@QAEIABVVEString@VENet@@0_NPBDIP6AH00@Z@Z 005392d0 f i RPC4Plugin.obj
 0002:00082420       ?InsertAtIndex@?$OrderedList@EPAULocalCallback@RPC4@VENet@@$1?LocalCallbackComp@23@SAHABEABQAU123@@Z@DataStructures@@QAEXABQAULocalCallback@RPC4@VENet@@IPBDI@Z 00539420 f i RPC4Plugin.obj
 0002:00082490       ?InterruptSignal@RPC4@VENet@@QAEXXZ 00539490 f   RPC4Plugin.obj
 0002:000824e0       ?InvokeSignal@RPC4@VENet@@IAEXUHashIndex@DataStructures@@PAVBitStream@2@PAUPacket@2@@Z 005394e0 f   RPC4Plugin.obj
 0002:000825e0       ?ItemAtIndex@?$Hash@VVEString@VENet@@P6AXPAVBitStream@2@0PAUPacket@2@@Z$0EA@$1?ToInteger@12@SAKABV12@@Z@DataStructures@@QAEAAP6AXPAVBitStream@VENet@@0PAUPacket@4@@ZABUHashIndex@2@@Z 005395e0 f i RPC4Plugin.obj
 0002:000826e0       ?ItemAtIndex@?$Hash@VVEString@VENet@@P6AXPAVBitStream@2@PAUPacket@2@@Z$0EA@$1?ToInteger@12@SAKABV12@@Z@DataStructures@@QAEAAP6AXPAVBitStream@VENet@@PAUPacket@4@@ZABUHashIndex@2@@Z 005396e0 f i RPC4Plugin.obj
 0002:000827e0       ?ItemAtIndex@?$Hash@VVEString@VENet@@PAULocalSlot@RPC4@2@$0BAA@$1?ToInteger@12@SAKABV12@@Z@DataStructures@@QAEAAPAULocalSlot@RPC4@VENet@@ABUHashIndex@2@@Z 005397e0 f i RPC4Plugin.obj
 0002:000828e0       ?LocalCallbackComp@RPC4@VENet@@SAHABEABQAULocalCallback@12@@Z 005398e0 f   RPC4Plugin.obj
 0002:00082950       ?LocalSlotObjectComp@RPC4@VENet@@SAHABULocalSlotObject@12@0@Z 00539950 f   RPC4Plugin.obj
 0002:000829e0       ?OnAttach@RPC4@VENet@@MAEXXZ 005399e0 f   RPC4Plugin.obj
 0002:00082b50       ?OnReceive@RPC4@VENet@@MAE?AW4PluginReceiveResult@2@PAUPacket@2@@Z 00539b50 f   RPC4Plugin.obj
 0002:000836a0       ?Pop@?$Hash@VVEString@VENet@@P6AXPAVBitStream@2@0PAUPacket@2@@Z$0EA@$1?ToInteger@12@SAKABV12@@Z@DataStructures@@QAE_NAAP6AXPAVBitStream@VENet@@0PAUPacket@4@@ZVVEString@4@PBDI@Z 0053a6a0 f i RPC4Plugin.obj
 0002:000839a0       ?Pop@?$Hash@VVEString@VENet@@P6AXPAVBitStream@2@PAUPacket@2@@Z$0EA@$1?ToInteger@12@SAKABV12@@Z@DataStructures@@QAE_NAAP6AXPAVBitStream@VENet@@PAUPacket@4@@ZVVEString@4@PBDI@Z 0053a9a0 f i RPC4Plugin.obj
 0002:00083ca0       ?Push@?$Hash@VVEString@VENet@@P6AXPAVBitStream@2@0PAUPacket@2@@Z$0EA@$1?ToInteger@12@SAKABV12@@Z@DataStructures@@QAEXVVEString@VENet@@ABQ6AXPAVBitStream@4@1PAUPacket@4@@ZPBDI@Z 0053aca0 f i RPC4Plugin.obj
 0002:00083e00       ?Push@?$Hash@VVEString@VENet@@P6AXPAVBitStream@2@PAUPacket@2@@Z$0EA@$1?ToInteger@12@SAKABV12@@Z@DataStructures@@QAEXVVEString@VENet@@ABQ6AXPAVBitStream@4@PAUPacket@4@@ZPBDI@Z 0053ae00 f i RPC4Plugin.obj
 0002:00083f60       ?Push@?$Hash@VVEString@VENet@@PAULocalSlot@RPC4@2@$0BAA@$1?ToInteger@12@SAKABV12@@Z@DataStructures@@QAEXVVEString@VENet@@ABQAULocalSlot@RPC4@4@PBDI@Z 0053af60 f i RPC4Plugin.obj
 0002:000840c0       ?Push@?$List@PAULocalSlot@RPC4@VENet@@@DataStructures@@QAEXABQAULocalSlot@RPC4@VENet@@PBDI@Z 0053b0c0 f i RPC4Plugin.obj
 0002:00084120       ?Push@?$List@VVEString@VENet@@@DataStructures@@QAEXABVVEString@VENet@@PBDI@Z 0053b120 f i RPC4Plugin.obj
 0002:00084180       ?PushAtHead@?$Queue@PAUPacket@VENet@@@DataStructures@@QAEXABQAUPacket@VENet@@IPBDI@Z 0053b180 f i RPC4Plugin.obj
 0002:00084370       ?RegisterBlockingFunction@RPC4@VENet@@QAE_NPBDP6AXPAVBitStream@2@1PAUPacket@2@@Z@Z 0053b370 f   RPC4Plugin.obj
 0002:00084490       ?RegisterFunction@RPC4@VENet@@QAE_NPBDP6AXPAVBitStream@2@PAUPacket@2@@Z@Z 0053b490 f   RPC4Plugin.obj
 0002:000845b0       ?RegisterLocalCallback@RPC4@VENet@@QAEXPBDE@Z 0053b5b0 f   RPC4Plugin.obj
 0002:000847f0       ?RegisterSlot@RPC4@VENet@@QAEXPBDP6AXPAVBitStream@2@PAUPacket@2@@ZH@Z 0053b7f0 f   RPC4Plugin.obj
 0002:00084a10       ?RemoveAtIndex@?$Hash@VVEString@VENet@@PAULocalSlot@RPC4@2@$0BAA@$1?ToInteger@12@SAKABV12@@Z@DataStructures@@QAE_NUHashIndex@2@PBDI@Z 0053ba10 f i RPC4Plugin.obj
 0002:00084ba0       ?RemoveAtIndex@?$List@PAULocalCallback@RPC4@VENet@@@DataStructures@@QAEXI@Z 0053bba0 f i RPC4Plugin.obj
 0002:00084c90       ?RemoveAtIndex@?$OrderedList@EPAULocalCallback@RPC4@VENet@@$1?LocalCallbackComp@23@SAHABEABQAU123@@Z@DataStructures@@QAEXI@Z 0053bc90 f i RPC4Plugin.obj
 0002:00084cf0       ?RemoveFromEnd@?$List@PAULocalCallback@RPC4@VENet@@@DataStructures@@QAEXI@Z 0053bcf0 f i RPC4Plugin.obj
 0002:00084d90       ?Signal@RPC4@VENet@@QAEXPBDPAVBitStream@2@W4PacketPriority@@W4PacketReliability@@DUAddressOrGUID@2@_N5@Z 0053bd90 f   RPC4Plugin.obj
 0002:00085180       ?Size@?$List@PAULocalCallback@RPC4@VENet@@@DataStructures@@QBEIXZ 0053c180 f i RPC4Plugin.obj
 0002:000851c0       ?Size@?$List@PAULocalSlot@RPC4@VENet@@@DataStructures@@QBEIXZ 0053c1c0 f i RPC4Plugin.obj
 0002:00085200       ?Size@?$List@ULocalSlotObject@RPC4@VENet@@@DataStructures@@QBEIXZ 0053c200 f i RPC4Plugin.obj
 0002:00085240       ?Size@?$OrderedList@EPAULocalCallback@RPC4@VENet@@$1?LocalCallbackComp@23@SAHABEABQAU123@@Z@DataStructures@@QBEIXZ 0053c240 f i RPC4Plugin.obj
 0002:00085290       ?Size@?$OrderedList@ULocalSlotObject@RPC4@VENet@@U123@$1?LocalSlotObjectComp@23@SAHABU123@0@Z@DataStructures@@QBEIXZ 0053c290 f i RPC4Plugin.obj
 0002:000852e0       ?UnregisterBlockingFunction@RPC4@VENet@@QAE_NPBD@Z 0053c2e0 f   RPC4Plugin.obj
 0002:000853b0       ?UnregisterFunction@RPC4@VENet@@QAE_NPBD@Z 0053c3b0 f   RPC4Plugin.obj
 0002:00085480       ?UnregisterLocalCallback@RPC4@VENet@@QAE_NPBDE@Z 0053c480 f   RPC4Plugin.obj
 0002:00085690       ?UnregisterSlot@RPC4@VENet@@QAE_NPBD@Z 0053c690 f   RPC4Plugin.obj
 0002:000857c0       ?WriteCompressed@BitStream@VENet@@QAEXQBD@Z 0053c7c0 f i RPC4Plugin.obj
 0002:00085820       ??0CSHA1@@QAE@XZ           0053c820 f   SHA1.obj
 0002:00085880       ??1CSHA1@@UAE@XZ           0053c880 f   SHA1.obj
 0002:000858e0       ??_GCSHA1@@UAEPAXI@Z       0053c8e0 f i SHA1.obj
 0002:000858e0       ??_ECSHA1@@UAEPAXI@Z       0053c8e0 f i SHA1.obj
 0002:00085950       ?Final@CSHA1@@QAEXXZ       0053c950 f   SHA1.obj
 0002:00085bd0       ?GetHash@CSHA1@@QAEXPAE@Z  0053cbd0 f   SHA1.obj
 0002:00085c40       ?GetHash@CSHA1@@QBEPAEXZ   0053cc40 f   SHA1.obj
 0002:00085c80       ?HashFile@CSHA1@@QAE_NPAD@Z 0053cc80 f   SHA1.obj
 0002:00085f60       ?ReportHash@CSHA1@@QAEXPADE@Z 0053cf60 f   SHA1.obj
 0002:00086190       ?Reset@CSHA1@@QAEXXZ       0053d190 f   SHA1.obj
 0002:00086270       ?Transform@CSHA1@@AAEXQAIQAE@Z 0053d270 f   SHA1.obj
 0002:0008aa40       ?Update@CSHA1@@QAEXPAEI@Z  00541a40 f   SHA1.obj
 0002:0008ac30       ??0SignaledEvent@VENet@@QAE@XZ 00541c30 f   SignaledEvent.obj
 0002:0008ac80       ??1SignaledEvent@VENet@@QAE@XZ 00541c80 f   SignaledEvent.obj
 0002:0008acc0       ?CloseEvent@SignaledEvent@VENet@@QAEXXZ 00541cc0 f   SignaledEvent.obj
 0002:0008ad40       ?InitEvent@SignaledEvent@VENet@@QAEXXZ 00541d40 f   SignaledEvent.obj
 0002:0008adb0       ?SetEvent@SignaledEvent@VENet@@QAEXXZ 00541db0 f   SignaledEvent.obj
 0002:0008ae10       ?WaitOnEvent@SignaledEvent@VENet@@QAEXH@Z 00541e10 f   SignaledEvent.obj
 0002:0008ae80       ??0SimpleMutex@VENet@@QAE@XZ 00541e80 f   SimpleMutex.obj
 0002:0008aee0       ??1SimpleMutex@VENet@@QAE@XZ 00541ee0 f   SimpleMutex.obj
 0002:0008af40       ?Init@SimpleMutex@VENet@@AAEXXZ 00541f40 f   SimpleMutex.obj
 0002:0008afa0       ?Lock@SimpleMutex@VENet@@QAEXXZ 00541fa0 f   SimpleMutex.obj
 0002:0008b000       ?Unlock@SimpleMutex@VENet@@QAEXXZ 00542000 f   SimpleMutex.obj
 0002:0008b060       ?CreateBoundSocket@SocketLayer@VENet@@SAIPAVVEPeer@2@G_NPBDIIGH@Z 00542060 f   SocketLayer.obj
 0002:0008b0e0       ?CreateBoundSocket_Old@SocketLayer@VENet@@SAIPAVVEPeer@2@G_NPBDIIH@Z 005420e0 f   SocketLayer.obj
 0002:0008b570       ?CreateBoundSocket_PS3Lobby@SocketLayer@VENet@@SAIG_NPBDG@Z 00542570 f   SocketLayer.obj
 0002:0008b5b0       ?CreateBoundSocket_PSP2@SocketLayer@VENet@@SAIG_NPBDG@Z 005425b0 f   SocketLayer.obj
 0002:0008b5e0       ?DomainNameToIP@SocketLayer@VENet@@SAPBDPBD@Z 005425e0 f   SocketLayer.obj
 0002:0008b630       ?DomainNameToIP_Old@SocketLayer@VENet@@SAPBDPBD@Z 00542630 f   SocketLayer.obj
 0002:0008b730       ?GetFirstBindableIP@SocketLayer@VENet@@SA_NQADH@Z 00542730 f   SocketLayer.obj
 0002:0008b940       ?GetLocalPort@SocketLayer@VENet@@SAGI@Z 00542940 f   SocketLayer.obj
 0002:0008ba00       ?GetMyIP@SocketLayer@VENet@@SAXQAUSystemAddress@2@@Z 00542a00 f   SocketLayer.obj
 0002:0008ba50       ?GetMyIP_Win32@@YAXQAUSystemAddress@VENet@@@Z 00542a50 f   SocketLayer.obj
 0002:0008bd40       ?GetSubNetForSocketAndIp@SocketLayer@VENet@@SA?AVVEString@2@IV32@@Z 00542d40 f   SocketLayer.obj
 0002:0008c0f0       ?GetSystemAddress@SocketLayer@VENet@@SAXIPAUSystemAddress@2@@Z 005430f0 f   SocketLayer.obj
 0002:0008c150       ?GetSystemAddress_Old@SocketLayer@VENet@@SAXIPAUSystemAddress@2@@Z 00543150 f   SocketLayer.obj
 0002:0008c310       ?IsPortInUse@SocketLayer@VENet@@SA_NGPBDG@Z 00543310 f   SocketLayer.obj
 0002:0008c370       ?IsPortInUse_Old@SocketLayer@VENet@@SA_NGPBD@Z 00543370 f   SocketLayer.obj
 0002:0008c530       ?IsSocketFamilySupported@SocketLayer@VENet@@SA_NPBDG@Z 00543530 f   SocketLayer.obj
 0002:0008c590       ?RecvFromBlocking@SocketLayer@VENet@@SAXIPAVVEPeer@2@GIPADPAHPAUSystemAddress@2@PA_K@Z 00543590 f   SocketLayer.obj
 0002:0008c610       ?RecvFromBlocking_Old@SocketLayer@VENet@@SAXIPAVVEPeer@2@GIPADPAHPAUSystemAddress@2@PA_K@Z 00543610 f   SocketLayer.obj
 0002:0008c780       ?SendTo@SocketLayer@VENet@@SAHIPBDHAAUSystemAddress@2@GI0J@Z 00543780 f   SocketLayer.obj
 0002:0008ca20       ?SendToTTL@SocketLayer@VENet@@SAHIPBDHAAUSystemAddress@2@H@Z 00543a20 f   SocketLayer.obj
 0002:0008cd40       ?SendTo_360@SocketLayer@VENet@@SAHIPBDH0HABUSystemAddress@2@I@Z 00543d40 f   SocketLayer.obj
 0002:0008cd80       ?SendTo_PC@SocketLayer@VENet@@SAHIPBDHABUSystemAddress@2@0J@Z 00543d80 f   SocketLayer.obj
 0002:0008ce60       ?SendTo_PS3Lobby@SocketLayer@VENet@@SAHIPBDHABUSystemAddress@2@G@Z 00543e60 f   SocketLayer.obj
 0002:0008cea0       ?SendTo_PSP2@SocketLayer@VENet@@SAHIPBDHABUSystemAddress@2@G@Z 00543ea0 f   SocketLayer.obj
 0002:0008cee0       ?SetDoNotFragment@SocketLayer@VENet@@SAXIHH@Z 00543ee0 f   SocketLayer.obj
 0002:0008d020       ?SetNonBlocking@SocketLayer@VENet@@SAXI@Z 00544020 f   SocketLayer.obj
 0002:0008d0d0       ?SetSocketLayerOverride@SocketLayer@VENet@@SAXPAVSocketLayerOverride@2@@Z 005440d0 f   SocketLayer.obj
 0002:0008d110       ?SetSocketOptions@SocketLayer@VENet@@CAXI_N@Z 00544110 f   SocketLayer.obj
 0002:0008d370       ?Write@SocketLayer@VENet@@SAXIPBDH@Z 00544370 f   SocketLayer.obj
 0002:0008d410       ??$OP_DELETE@UNode@?$Hash@VVEString@VENet@@PAUTimeAndValueQueue@StatisticsHistory@2@$0CA@$1?ToInteger@12@SAKABV12@@Z@DataStructures@@@VENet@@YAXPAUNode@?$Hash@VVEString@VENet@@PAUTimeAndValueQueue@StatisticsHistory@2@$0CA@$1?ToInteger@12@SAKABV12@@Z@DataStructures@@PBDI@Z 00544410 f i StatisticsHistory.obj
 0002:0008d4a0       ??$OP_DELETE@UTimeAndValueQueue@StatisticsHistory@VENet@@@VENet@@YAXPAUTimeAndValueQueue@StatisticsHistory@0@PBDI@Z 005444a0 f i StatisticsHistory.obj
 0002:0008d530       ??$OP_DELETE@UTrackedObject@StatisticsHistory@VENet@@@VENet@@YAXPAUTrackedObject@StatisticsHistory@0@PBDI@Z 00544530 f i StatisticsHistory.obj
 0002:0008d5c0       ??$OP_DELETE@VStatisticsHistory@VENet@@@VENet@@YAXPAVStatisticsHistory@0@PBDI@Z 005445c0 f i StatisticsHistory.obj
 0002:0008d660       ??$OP_DELETE@VStatisticsHistoryPlugin@VENet@@@VENet@@YAXPAVStatisticsHistoryPlugin@0@PBDI@Z 00544660 f i StatisticsHistory.obj
 0002:0008d700       ??$OP_DELETE_ARRAY@PAUNode@?$Hash@VVEString@VENet@@PAUTimeAndValueQueue@StatisticsHistory@2@$0CA@$1?ToInteger@12@SAKABV12@@Z@DataStructures@@@VENet@@YAXPAPAUNode@?$Hash@VVEString@VENet@@PAUTimeAndValueQueue@StatisticsHistory@2@$0CA@$1?ToInteger@12@SAKABV12@@Z@DataStructures@@PBDI@Z 00544700 f i StatisticsHistory.obj
 0002:0008d760       ??$OP_DELETE_ARRAY@PAUTimeAndValueQueue@StatisticsHistory@VENet@@@VENet@@YAXPAPAUTimeAndValueQueue@StatisticsHistory@0@PBDI@Z 00544760 f i StatisticsHistory.obj
 0002:0008d7c0       ??$OP_DELETE_ARRAY@PAUTrackedObject@StatisticsHistory@VENet@@@VENet@@YAXPAPAUTrackedObject@StatisticsHistory@0@PBDI@Z 005447c0 f i StatisticsHistory.obj
 0002:0008d820       ??$OP_DELETE_ARRAY@UTimeAndValue@StatisticsHistory@VENet@@@VENet@@YAXPAUTimeAndValue@StatisticsHistory@0@PBDI@Z 00544820 f i StatisticsHistory.obj
 0002:0008d880       ??$OP_DELETE_ARRAY@UVENetStatistics@VENet@@@VENet@@YAXPAUVENetStatistics@0@PBDI@Z 00544880 f i StatisticsHistory.obj
 0002:0008d8e0       ??$OP_NEW@UTimeAndValueQueue@StatisticsHistory@VENet@@@VENet@@YAPAUTimeAndValueQueue@StatisticsHistory@0@PBDI@Z 005448e0 f i StatisticsHistory.obj
 0002:0008d9c0       ??$OP_NEW@UTrackedObject@StatisticsHistory@VENet@@@VENet@@YAPAUTrackedObject@StatisticsHistory@0@PBDI@Z 005449c0 f i StatisticsHistory.obj
 0002:0008daa0       ??$OP_NEW@VStatisticsHistory@VENet@@@VENet@@YAPAVStatisticsHistory@0@PBDI@Z 00544aa0 f i StatisticsHistory.obj
 0002:0008db80       ??$OP_NEW@VStatisticsHistoryPlugin@VENet@@@VENet@@YAPAVStatisticsHistoryPlugin@0@PBDI@Z 00544b80 f i StatisticsHistory.obj
 0002:0008dc60       ??$OP_NEW_2@UNode@?$Hash@VVEString@VENet@@PAUTimeAndValueQueue@StatisticsHistory@2@$0CA@$1?ToInteger@12@SAKABV12@@Z@DataStructures@@VVEString@VENet@@PAUTimeAndValueQueue@StatisticsHistory@5@@VENet@@YAPAUNode@?$Hash@VVEString@VENet@@PAUTimeAndValueQueue@StatisticsHistory@2@$0CA@$1?ToInteger@12@SAKABV12@@Z@DataStructures@@PBDIABVVEString@0@ABQAUTimeAndValueQueue@StatisticsHistory@0@@Z 00544c60 f i StatisticsHistory.obj
 0002:0008dd70       ??$OP_NEW_ARRAY@PAUNode@?$Hash@VVEString@VENet@@PAUTimeAndValueQueue@StatisticsHistory@2@$0CA@$1?ToInteger@12@SAKABV12@@Z@DataStructures@@@VENet@@YAPAPAUNode@?$Hash@VVEString@VENet@@PAUTimeAndValueQueue@StatisticsHistory@2@$0CA@$1?ToInteger@12@SAKABV12@@Z@DataStructures@@HPBDI@Z 00544d70 f i StatisticsHistory.obj
 0002:0008ddf0       ??$OP_NEW_ARRAY@PAUTimeAndValueQueue@StatisticsHistory@VENet@@@VENet@@YAPAPAUTimeAndValueQueue@StatisticsHistory@0@HPBDI@Z 00544df0 f i StatisticsHistory.obj
 0002:0008de70       ??$OP_NEW_ARRAY@PAUTrackedObject@StatisticsHistory@VENet@@@VENet@@YAPAPAUTrackedObject@StatisticsHistory@0@HPBDI@Z 00544e70 f i StatisticsHistory.obj
 0002:0008def0       ??$OP_NEW_ARRAY@UTimeAndValue@StatisticsHistory@VENet@@@VENet@@YAPAUTimeAndValue@StatisticsHistory@0@HPBDI@Z 00544ef0 f i StatisticsHistory.obj
 0002:0008df70       ??0?$Hash@VVEString@VENet@@PAUTimeAndValueQueue@StatisticsHistory@2@$0CA@$1?ToInteger@12@SAKABV12@@Z@DataStructures@@QAE@XZ 00544f70 f i StatisticsHistory.obj
 0002:0008dfc0       ??0?$List@PAUTimeAndValueQueue@StatisticsHistory@VENet@@@DataStructures@@QAE@XZ 00544fc0 f i StatisticsHistory.obj
 0002:0008e020       ??0?$List@PAUTrackedObject@StatisticsHistory@VENet@@@DataStructures@@QAE@XZ 00545020 f i StatisticsHistory.obj
 0002:0008e080       ??0?$List@UVENetStatistics@VENet@@@DataStructures@@QAE@XZ 00545080 f i StatisticsHistory.obj
 0002:0008e0e0       ??0?$OrderedList@PAUTimeAndValueQueue@StatisticsHistory@VENet@@PAU123@$1?TimeAndValueQueueCompAsc@@YAHABQAU123@0@Z@DataStructures@@QAE@XZ 005450e0 f i StatisticsHistory.obj
 0002:0008e140       ??0?$OrderedList@_KPAUTrackedObject@StatisticsHistory@VENet@@$1?TrackedObjectComp@23@SAHAB_KABQAU123@@Z@DataStructures@@QAE@XZ 00545140 f i StatisticsHistory.obj
 0002:0008e1a0       ??0?$Queue@UTimeAndValue@StatisticsHistory@VENet@@@DataStructures@@QAE@XZ 005451a0 f i StatisticsHistory.obj
 0002:0008e210       ??0Node@?$Hash@VVEString@VENet@@PAUTimeAndValueQueue@StatisticsHistory@2@$0CA@$1?ToInteger@12@SAKABV12@@Z@DataStructures@@QAE@VVEString@VENet@@ABQAUTimeAndValueQueue@StatisticsHistory@4@@Z 00545210 f i StatisticsHistory.obj
 0002:0008e2e0       ??0StatisticsHistory@VENet@@QAE@XZ 005452e0 f   StatisticsHistory.obj
 0002:0008e360       ??0StatisticsHistoryPlugin@VENet@@QAE@XZ 00545360 f   StatisticsHistory.obj
 0002:0008e430       ??0TimeAndValueQueue@StatisticsHistory@VENet@@QAE@XZ 00545430 f   StatisticsHistory.obj
 0002:0008e4f0       ??0TrackedObject@StatisticsHistory@VENet@@QAE@XZ 005454f0 f   StatisticsHistory.obj
 0002:0008e550       ??0TrackedObjectData@StatisticsHistory@VENet@@QAE@XZ 00545550 f   StatisticsHistory.obj
 0002:0008e590       ??0TrackedObjectData@StatisticsHistory@VENet@@QAE@_KHPAX@Z 00545590 f   StatisticsHistory.obj
 0002:0008e600       ??1?$Hash@VVEString@VENet@@PAUTimeAndValueQueue@StatisticsHistory@2@$0CA@$1?ToInteger@12@SAKABV12@@Z@DataStructures@@QAE@XZ 00545600 f i StatisticsHistory.obj
 0002:0008e660       ??1?$List@PAUTimeAndValueQueue@StatisticsHistory@VENet@@@DataStructures@@QAE@XZ 00545660 f i StatisticsHistory.obj
 0002:0008e6d0       ??1?$List@PAUTrackedObject@StatisticsHistory@VENet@@@DataStructures@@QAE@XZ 005456d0 f i StatisticsHistory.obj
 0002:0008e740       ??1?$List@UVENetStatistics@VENet@@@DataStructures@@QAE@XZ 00545740 f i StatisticsHistory.obj
 0002:0008e7b0       ??1?$OrderedList@PAUTimeAndValueQueue@StatisticsHistory@VENet@@PAU123@$1?TimeAndValueQueueCompAsc@@YAHABQAU123@0@Z@DataStructures@@QAE@XZ 005457b0 f i StatisticsHistory.obj
 0002:0008e860       ??1?$OrderedList@_KPAUTrackedObject@StatisticsHistory@VENet@@$1?TrackedObjectComp@23@SAHAB_KABQAU123@@Z@DataStructures@@QAE@XZ 00545860 f i StatisticsHistory.obj
 0002:0008e910       ??1?$Queue@UTimeAndValue@StatisticsHistory@VENet@@@DataStructures@@QAE@XZ 00545910 f i StatisticsHistory.obj
 0002:0008e980       ??1Node@?$Hash@VVEString@VENet@@PAUTimeAndValueQueue@StatisticsHistory@2@$0CA@$1?ToInteger@12@SAKABV12@@Z@DataStructures@@QAE@XZ 00545980 f i StatisticsHistory.obj
 0002:0008e9d0       ??1StatisticsHistory@VENet@@UAE@XZ 005459d0 f   StatisticsHistory.obj
 0002:0008ea80       ??1StatisticsHistoryPlugin@VENet@@UAE@XZ 00545a80 f   StatisticsHistory.obj
 0002:0008eb30       ??1TimeAndValueQueue@StatisticsHistory@VENet@@QAE@XZ 00545b30 f   StatisticsHistory.obj
 0002:0008ebe0       ??1TrackedObject@StatisticsHistory@VENet@@QAE@XZ 00545be0 f   StatisticsHistory.obj
 0002:0008ed70       ??4?$Queue@UTimeAndValue@StatisticsHistory@VENet@@@DataStructures@@QAE_NABV01@@Z 00545d70 f i StatisticsHistory.obj
 0002:0008eee0       ??4TimeAndValueQueue@StatisticsHistory@VENet@@QAEAAU012@ABU012@@Z 00545ee0 f   StatisticsHistory.obj
 0002:0008efe0       ??A?$List@PAUTimeAndValueQueue@StatisticsHistory@VENet@@@DataStructures@@QBEAAPAUTimeAndValueQueue@StatisticsHistory@VENet@@I@Z 00545fe0 f i StatisticsHistory.obj
 0002:0008f080       ??A?$List@PAUTrackedObject@StatisticsHistory@VENet@@@DataStructures@@QBEAAPAUTrackedObject@StatisticsHistory@VENet@@I@Z 00546080 f i StatisticsHistory.obj
 0002:0008f120       ??A?$List@UVENetStatistics@VENet@@@DataStructures@@QBEAAUVENetStatistics@VENet@@I@Z 00546120 f i StatisticsHistory.obj
 0002:0008f1c0       ??A?$OrderedList@PAUTimeAndValueQueue@StatisticsHistory@VENet@@PAU123@$1?TimeAndValueQueueCompAsc@@YAHABQAU123@0@Z@DataStructures@@QBEAAPAUTimeAndValueQueue@StatisticsHistory@VENet@@I@Z 005461c0 f i StatisticsHistory.obj
 0002:0008f220       ??A?$OrderedList@_KPAUTrackedObject@StatisticsHistory@VENet@@$1?TrackedObjectComp@23@SAHAB_KABQAU123@@Z@DataStructures@@QBEAAPAUTrackedObject@StatisticsHistory@VENet@@I@Z 00546220 f i StatisticsHistory.obj
 0002:0008f280       ??A?$Queue@UTimeAndValue@StatisticsHistory@VENet@@@DataStructures@@QBEAAUTimeAndValue@StatisticsHistory@VENet@@I@Z 00546280 f i StatisticsHistory.obj
 0002:0008f350       ??_GNode@?$Hash@VVEString@VENet@@PAUTimeAndValueQueue@StatisticsHistory@2@$0CA@$1?ToInteger@12@SAKABV12@@Z@DataStructures@@QAEPAXI@Z 00546350 f i StatisticsHistory.obj
 0002:0008f3c0       ??_EStatisticsHistory@VENet@@UAEPAXI@Z 005463c0 f i StatisticsHistory.obj
 0002:0008f3c0       ??_GStatisticsHistory@VENet@@UAEPAXI@Z 005463c0 f i StatisticsHistory.obj
 0002:0008f430       ??_EStatisticsHistoryPlugin@VENet@@UAEPAXI@Z 00546430 f i StatisticsHistory.obj
 0002:0008f430       ??_GStatisticsHistoryPlugin@VENet@@UAEPAXI@Z 00546430 f i StatisticsHistory.obj
 0002:0008f4a0       ??_GTimeAndValueQueue@StatisticsHistory@VENet@@QAEPAXI@Z 005464a0 f i StatisticsHistory.obj
 0002:0008f510       ??_GTrackedObject@StatisticsHistory@VENet@@QAEPAXI@Z 00546510 f i StatisticsHistory.obj
 0002:0008f580       ?AddObject@StatisticsHistory@VENet@@QAE_NUTrackedObjectData@12@@Z 00546580 f   StatisticsHistory.obj
 0002:0008f6c0       ?AddValueByIndex@StatisticsHistory@VENet@@QAEXIVVEString@2@N_K_N@Z 005466c0 f   StatisticsHistory.obj
 0002:0008faf0       ?AddValueByObjectID@StatisticsHistory@VENet@@QAE_N_KVVEString@2@N0_N@Z 00546af0 f   StatisticsHistory.obj
 0002:0008fc30       ?Clear@?$Hash@VVEString@VENet@@PAUTimeAndValueQueue@StatisticsHistory@2@$0CA@$1?ToInteger@12@SAKABV12@@Z@DataStructures@@QAEXPBDI@Z 00546c30 f i StatisticsHistory.obj
 0002:0008fcf0       ?Clear@?$List@PAUTimeAndValueQueue@StatisticsHistory@VENet@@@DataStructures@@QAEX_NPBDI@Z 00546cf0 f i StatisticsHistory.obj
 0002:0008fda0       ?Clear@?$List@PAUTrackedObject@StatisticsHistory@VENet@@@DataStructures@@QAEX_NPBDI@Z 00546da0 f i StatisticsHistory.obj
 0002:0008fe50       ?Clear@?$OrderedList@PAUTimeAndValueQueue@StatisticsHistory@VENet@@PAU123@$1?TimeAndValueQueueCompAsc@@YAHABQAU123@0@Z@DataStructures@@QAEX_NPBDI@Z 00546e50 f i StatisticsHistory.obj
 0002:0008fec0       ?Clear@?$OrderedList@_KPAUTrackedObject@StatisticsHistory@VENet@@$1?TrackedObjectComp@23@SAHAB_KABQAU123@@Z@DataStructures@@QAEX_NPBDI@Z 00546ec0 f i StatisticsHistory.obj
 0002:0008ff30       ?Clear@?$Queue@UTimeAndValue@StatisticsHistory@VENet@@@DataStructures@@QAEXPBDI@Z 00546f30 f i StatisticsHistory.obj
 0002:0008ffe0       ?Clear@StatisticsHistory@VENet@@QAEXXZ 00546fe0 f   StatisticsHistory.obj
 0002:000900b0       ?Clear@TimeAndValueQueue@StatisticsHistory@VENet@@QAEXXZ 005470b0 f   StatisticsHistory.obj
 0002:00090180       ?ClearIndex@?$Hash@VVEString@VENet@@PAUTimeAndValueQueue@StatisticsHistory@2@$0CA@$1?ToInteger@12@SAKABV12@@Z@DataStructures@@IAEXIPBDI@Z 00547180 f i StatisticsHistory.obj
 0002:00090240       ?CullExpiredValues@TimeAndValueQueue@StatisticsHistory@VENet@@QAEX_K@Z 00547240 f   StatisticsHistory.obj
 0002:000903b0       ?DestroyInstance@StatisticsHistory@VENet@@SAXPAV12@@Z 005473b0 f   StatisticsHistory.obj
 0002:00090410       ?DestroyInstance@StatisticsHistoryPlugin@VENet@@SAXPAV12@@Z 00547410 f   StatisticsHistory.obj
 0002:00090470       ?GetAsList@?$Hash@VVEString@VENet@@PAUTimeAndValueQueue@StatisticsHistory@2@$0CA@$1?ToInteger@12@SAKABV12@@Z@DataStructures@@QBEXAAV?$List@PAUTimeAndValueQueue@StatisticsHistory@VENet@@@2@AAV?$List@VVEString@VENet@@@2@PBDI@Z 00547470 f i StatisticsHistory.obj
 0002:00090590       ?GetDefaultTimeToTrack@StatisticsHistory@VENet@@QBE_KXZ 00547590 f   StatisticsHistory.obj
 0002:000905d0       ?GetHistoryForKey@StatisticsHistory@VENet@@QBE?AW4SHErrorCode@12@_KVVEString@2@PAPAUTimeAndValueQueue@12@0@Z 005475d0 f   StatisticsHistory.obj
 0002:000907f0       ?GetHistorySorted@StatisticsHistory@VENet@@QBE_N_KW4SHSortOperation@12@AAV?$List@PAUTimeAndValueQueue@StatisticsHistory@VENet@@@DataStructures@@@Z 005477f0 f   StatisticsHistory.obj
 0002:00090cf0       ?GetIndexFromKey@?$OrderedList@PAUTimeAndValueQueue@StatisticsHistory@VENet@@PAU123@$1?TimeAndValueQueueCompAsc@@YAHABQAU123@0@Z@DataStructures@@QBEIABQAUTimeAndValueQueue@StatisticsHistory@VENet@@PA_NP6AH00@Z@Z 00547cf0 f i StatisticsHistory.obj
 0002:00090e30       ?GetIndexFromKey@?$OrderedList@_KPAUTrackedObject@StatisticsHistory@VENet@@$1?TrackedObjectComp@23@SAHAB_KABQAU123@@Z@DataStructures@@QBEIAB_KPA_NP6AH0ABQAUTrackedObject@StatisticsHistory@VENet@@@Z@Z 00547e30 f i StatisticsHistory.obj
 0002:00090f70       ?GetIndexOf@?$Hash@VVEString@VENet@@PAUTimeAndValueQueue@StatisticsHistory@2@$0CA@$1?ToInteger@12@SAKABV12@@Z@DataStructures@@QAE?AUHashIndex@2@VVEString@VENet@@@Z 00547f70 f i StatisticsHistory.obj
 0002:00091190       ?GetInstance@StatisticsHistory@VENet@@SAPAV12@XZ 00548190 f   StatisticsHistory.obj
 0002:000911f0       ?GetInstance@StatisticsHistoryPlugin@VENet@@SAPAV12@XZ 005481f0 f   StatisticsHistory.obj
 0002:00091250       ?GetLongTermAverage@TimeAndValueQueue@StatisticsHistory@VENet@@QBENXZ 00548250 f   StatisticsHistory.obj
 0002:000912d0       ?GetLongTermHighest@TimeAndValueQueue@StatisticsHistory@VENet@@QBENXZ 005482d0 f   StatisticsHistory.obj
 0002:00091310       ?GetLongTermLowest@TimeAndValueQueue@StatisticsHistory@VENet@@QBENXZ 00548310 f   StatisticsHistory.obj
 0002:00091350       ?GetLongTermSum@TimeAndValueQueue@StatisticsHistory@VENet@@QBENXZ 00548350 f   StatisticsHistory.obj
 0002:00091390       ?GetObjectAtIndex@StatisticsHistory@VENet@@QBEPAUTrackedObjectData@12@I@Z 00548390 f   StatisticsHistory.obj
 0002:000913f0       ?GetObjectCount@StatisticsHistory@VENet@@QBEIXZ 005483f0 f   StatisticsHistory.obj
 0002:00091450       ?GetObjectIndex@StatisticsHistory@VENet@@QBEI_K@Z 00548450 f   StatisticsHistory.obj
 0002:00091510       ?GetRecentAverage@TimeAndValueQueue@StatisticsHistory@VENet@@QBENXZ 00548510 f   StatisticsHistory.obj
 0002:000915c0       ?GetRecentHighest@TimeAndValueQueue@StatisticsHistory@VENet@@QBENXZ 005485c0 f   StatisticsHistory.obj
 0002:00091680       ?GetRecentLowest@TimeAndValueQueue@StatisticsHistory@VENet@@QBENXZ 00548680 f   StatisticsHistory.obj
 0002:00091740       ?GetRecentStandardDeviation@TimeAndValueQueue@StatisticsHistory@VENet@@QBENXZ 00548740 f   StatisticsHistory.obj
 0002:00091850       ?GetRecentSum@TimeAndValueQueue@StatisticsHistory@VENet@@QBENXZ 00548850 f   StatisticsHistory.obj
 0002:00091890       ?GetRecentSumOfSquares@TimeAndValueQueue@StatisticsHistory@VENet@@QBENXZ 00548890 f   StatisticsHistory.obj
 0002:000918d0       ?GetSumSinceTime@TimeAndValueQueue@StatisticsHistory@VENet@@QBEN_K@Z 005488d0 f   StatisticsHistory.obj
 0002:000919c0       ?GetTimeRange@TimeAndValueQueue@StatisticsHistory@VENet@@QBE_KXZ 005489c0 f   StatisticsHistory.obj
 0002:00091a60       ?GetTimeToTrackValues@TimeAndValueQueue@StatisticsHistory@VENet@@QBE_KXZ 00548a60 f   StatisticsHistory.obj
 0002:00091aa0       ?GetUniqueKeyList@StatisticsHistory@VENet@@QAEXAAV?$List@VVEString@VENet@@@DataStructures@@@Z 00548aa0 f   StatisticsHistory.obj
 0002:00091d20       ?Insert@?$List@PAUTimeAndValueQueue@StatisticsHistory@VENet@@@DataStructures@@QAEXABQAUTimeAndValueQueue@StatisticsHistory@VENet@@IPBDI@Z 00548d20 f i StatisticsHistory.obj
 0002:00091ee0       ?Insert@?$List@PAUTimeAndValueQueue@StatisticsHistory@VENet@@@DataStructures@@QAEXABQAUTimeAndValueQueue@StatisticsHistory@VENet@@PBDI@Z 00548ee0 f i StatisticsHistory.obj
 0002:00092030       ?Insert@?$List@PAUTrackedObject@StatisticsHistory@VENet@@@DataStructures@@QAEXABQAUTrackedObject@StatisticsHistory@VENet@@IPBDI@Z 00549030 f i StatisticsHistory.obj
 0002:000921f0       ?Insert@?$OrderedList@PAUTimeAndValueQueue@StatisticsHistory@VENet@@PAU123@$1?TimeAndValueQueueCompAsc@@YAHABQAU123@0@Z@DataStructures@@QAEIABQAUTimeAndValueQueue@StatisticsHistory@VENet@@0_NPBDIP6AH00@Z@Z 005491f0 f i StatisticsHistory.obj
 0002:00092340       ?InsertAtIndex@?$OrderedList@_KPAUTrackedObject@StatisticsHistory@VENet@@$1?TrackedObjectComp@23@SAHAB_KABQAU123@@Z@DataStructures@@QAEXABQAUTrackedObject@StatisticsHistory@VENet@@IPBDI@Z 00549340 f i StatisticsHistory.obj
 0002:000923b0       ?Interpolate@TimeAndValueQueue@StatisticsHistory@VENet@@SANUTimeAndValue@23@0_K@Z 005493b0 f   StatisticsHistory.obj
 0002:00092430       ?ItemAtIndex@?$Hash@VVEString@VENet@@PAUTimeAndValueQueue@StatisticsHistory@2@$0CA@$1?ToInteger@12@SAKABV12@@Z@DataStructures@@QAEAAPAUTimeAndValueQueue@StatisticsHistory@VENet@@ABUHashIndex@2@@Z 00549430 f i StatisticsHistory.obj
 0002:00092530       ?MergeAllObjectsOnKey@StatisticsHistory@VENet@@QBEXVVEString@2@PAUTimeAndValueQueue@12@W4SHDataCategory@12@@Z 00549530 f   StatisticsHistory.obj
 0002:00092700       ?MergeSets@TimeAndValueQueue@StatisticsHistory@VENet@@SAXPBU123@W4SHDataCategory@23@01PAU123@@Z 00549700 f   StatisticsHistory.obj
 0002:00093ab0       ?OnClosedConnection@StatisticsHistoryPlugin@VENet@@MAEXABUSystemAddress@2@UVENetGUID@2@W4PI2_LostConnectionReason@2@@Z 0054aab0 f   StatisticsHistory.obj
 0002:00093b20       ?OnNewConnection@StatisticsHistoryPlugin@VENet@@MAEXABUSystemAddress@2@UVENetGUID@2@_N@Z 0054ab20 f   StatisticsHistory.obj
 0002:00093bd0       ?Peek@?$Queue@UTimeAndValue@StatisticsHistory@VENet@@@DataStructures@@QBE?AUTimeAndValue@StatisticsHistory@VENet@@XZ 0054abd0 f i StatisticsHistory.obj
 0002:00093ce0       ?PeekTail@?$Queue@UTimeAndValue@StatisticsHistory@VENet@@@DataStructures@@QBE?AUTimeAndValue@StatisticsHistory@VENet@@XZ 0054ace0 f i StatisticsHistory.obj
 0002:00093e80       ?Pop@?$Queue@UTimeAndValue@StatisticsHistory@VENet@@@DataStructures@@QAE?AUTimeAndValue@StatisticsHistory@VENet@@XZ 0054ae80 f i StatisticsHistory.obj
 0002:00094060       ?PopTail@?$Queue@UTimeAndValue@StatisticsHistory@VENet@@@DataStructures@@QAE?AUTimeAndValue@StatisticsHistory@VENet@@XZ 0054b060 f i StatisticsHistory.obj
 0002:00094220       ?Push@?$Hash@VVEString@VENet@@PAUTimeAndValueQueue@StatisticsHistory@2@$0CA@$1?ToInteger@12@SAKABV12@@Z@DataStructures@@QAEXVVEString@VENet@@ABQAUTimeAndValueQueue@StatisticsHistory@4@PBDI@Z 0054b220 f i StatisticsHistory.obj
 0002:00094380       ?Push@?$List@PAUTimeAndValueQueue@StatisticsHistory@VENet@@@DataStructures@@QAEXABQAUTimeAndValueQueue@StatisticsHistory@VENet@@PBDI@Z 0054b380 f i StatisticsHistory.obj
 0002:000943e0       ?Push@?$Queue@UTimeAndValue@StatisticsHistory@VENet@@@DataStructures@@QAEXABUTimeAndValue@StatisticsHistory@VENet@@PBDI@Z 0054b3e0 f i StatisticsHistory.obj
 0002:00094650       ?PushAtHead@?$Queue@UTimeAndValue@StatisticsHistory@VENet@@@DataStructures@@QAEXABUTimeAndValue@StatisticsHistory@VENet@@IPBDI@Z 0054b650 f i StatisticsHistory.obj
 0002:00094880       ?RemoveAtIndex@?$List@PAUTrackedObject@StatisticsHistory@VENet@@@DataStructures@@QAEXI@Z 0054b880 f i StatisticsHistory.obj
 0002:00094970       ?RemoveAtIndex@?$OrderedList@_KPAUTrackedObject@StatisticsHistory@VENet@@$1?TrackedObjectComp@23@SAHAB_KABQAU123@@Z@DataStructures@@QAEXI@Z 0054b970 f i StatisticsHistory.obj
 0002:000949d0       ?RemoveFromEnd@?$List@PAUTrackedObject@StatisticsHistory@VENet@@@DataStructures@@QAEXI@Z 0054b9d0 f i StatisticsHistory.obj
 0002:00094a70       ?RemoveObject@StatisticsHistory@VENet@@QAE_N_KPAPAX@Z 0054ba70 f   StatisticsHistory.obj
 0002:00094b20       ?RemoveObjectAtIndex@StatisticsHistory@VENet@@QAEXI@Z 0054bb20 f   StatisticsHistory.obj
 0002:00094bc0       ?ResizeSampleSet@TimeAndValueQueue@StatisticsHistory@VENet@@QAEXHAAV?$Queue@UTimeAndValue@StatisticsHistory@VENet@@@DataStructures@@W4SHDataCategory@23@_K2@Z 0054bbc0 f   StatisticsHistory.obj
 0002:000956b0       ?SetDefaultTimeToTrack@StatisticsHistory@VENet@@QAEX_K@Z 0054c6b0 f   StatisticsHistory.obj
 0002:00095700       ?SetTimeToTrackValues@TimeAndValueQueue@StatisticsHistory@VENet@@QAEX_K@Z 0054c700 f   StatisticsHistory.obj
 0002:00095750       ?SetTrackConnections@StatisticsHistoryPlugin@VENet@@QAEX_NH0@Z 0054c750 f   StatisticsHistory.obj
 0002:000957b0       ?Size@?$List@PAUTimeAndValueQueue@StatisticsHistory@VENet@@@DataStructures@@QBEIXZ 0054c7b0 f i StatisticsHistory.obj
 0002:000957f0       ?Size@?$List@PAUTrackedObject@StatisticsHistory@VENet@@@DataStructures@@QBEIXZ 0054c7f0 f i StatisticsHistory.obj
 0002:00095830       ?Size@?$OrderedList@PAUTimeAndValueQueue@StatisticsHistory@VENet@@PAU123@$1?TimeAndValueQueueCompAsc@@YAHABQAU123@0@Z@DataStructures@@QBEIXZ 0054c830 f i StatisticsHistory.obj
 0002:00095880       ?Size@?$OrderedList@_KPAUTrackedObject@StatisticsHistory@VENet@@$1?TrackedObjectComp@23@SAHAB_KABQAU123@@Z@DataStructures@@QBEIXZ 0054c880 f i StatisticsHistory.obj
 0002:000958d0       ?Size@?$Queue@UTimeAndValue@StatisticsHistory@VENet@@@DataStructures@@QBEIXZ 0054c8d0 f i StatisticsHistory.obj
 0002:00095940       ?TimeAndValueQueueCompAsc@@YAHABQAUTimeAndValueQueue@StatisticsHistory@VENet@@0@Z 0054c940 f   StatisticsHistory.obj
 0002:00095a20       ?TimeAndValueQueueCompDesc@@YAHABQAUTimeAndValueQueue@StatisticsHistory@VENet@@0@Z 0054ca20 f   StatisticsHistory.obj
 0002:00095b00       ?TrackedObjectComp@StatisticsHistory@VENet@@SAHAB_KABQAUTrackedObject@12@@Z 0054cb00 f   StatisticsHistory.obj
 0002:00095be0       ?Update@StatisticsHistoryPlugin@VENet@@MAEXXZ 0054cbe0 f   StatisticsHistory.obj
 0002:00096430       ??$OP_DELETE@VHuffmanEncodingTree@VENet@@@VENet@@YAXPAVHuffmanEncodingTree@0@PBDI@Z 0054d430 f i StringCompressor.obj
 0002:000964c0       ??$OP_DELETE@VStringCompressor@VENet@@@VENet@@YAXPAVStringCompressor@0@PBDI@Z 0054d4c0 f i StringCompressor.obj
 0002:00096550       ??$OP_DELETE_ARRAY@UMapNode@?$Map@HPAVHuffmanEncodingTree@VENet@@$1??$defaultMapKeyComparison@H@DataStructures@@YAHABH0@Z@DataStructures@@@VENet@@YAXPAUMapNode@?$Map@HPAVHuffmanEncodingTree@VENet@@$1??$defaultMapKeyComparison@H@DataStructures@@YAHABH0@Z@DataStructures@@PBDI@Z 0054d550 f i StringCompressor.obj
 0002:000965b0       ??$OP_NEW@VHuffmanEncodingTree@VENet@@@VENet@@YAPAVHuffmanEncodingTree@0@PBDI@Z 0054d5b0 f i StringCompressor.obj
 0002:000966a0       ??$OP_NEW@VStringCompressor@VENet@@@VENet@@YAPAVStringCompressor@0@PBDI@Z 0054d6a0 f i StringCompressor.obj
 0002:00096780       ??$OP_NEW_ARRAY@UMapNode@?$Map@HPAVHuffmanEncodingTree@VENet@@$1??$defaultMapKeyComparison@H@DataStructures@@YAHABH0@Z@DataStructures@@@VENet@@YAPAUMapNode@?$Map@HPAVHuffmanEncodingTree@VENet@@$1??$defaultMapKeyComparison@H@DataStructures@@YAHABH0@Z@DataStructures@@HPBDI@Z 0054d780 f i StringCompressor.obj
 0002:000968b0       ??$defaultMapKeyComparison@H@DataStructures@@YAHABH0@Z 0054d8b0 f i StringCompressor.obj
 0002:00096910       ??0?$List@UMapNode@?$Map@HPAVHuffmanEncodingTree@VENet@@$1??$defaultMapKeyComparison@H@DataStructures@@YAHABH0@Z@DataStructures@@@DataStructures@@QAE@XZ 0054d910 f i StringCompressor.obj
 0002:00096970       ??0?$Map@HPAVHuffmanEncodingTree@VENet@@$1??$defaultMapKeyComparison@H@DataStructures@@YAHABH0@Z@DataStructures@@QAE@XZ 0054d970 f i StringCompressor.obj
 0002:000969d0       ??0?$OrderedList@HUMapNode@?$Map@HPAVHuffmanEncodingTree@VENet@@$1??$defaultMapKeyComparison@H@DataStructures@@YAHABH0@Z@DataStructures@@$1?NodeComparisonFunc@23@SAHABHABU123@@Z@DataStructures@@QAE@XZ 0054d9d0 f i StringCompressor.obj
 0002:00096a30       ??0MapNode@?$Map@HPAVHuffmanEncodingTree@VENet@@$1??$defaultMapKeyComparison@H@DataStructures@@YAHABH0@Z@DataStructures@@QAE@HPAVHuffmanEncodingTree@VENet@@@Z 0054da30 f i StringCompressor.obj
 0002:00096a80       ??0MapNode@?$Map@HPAVHuffmanEncodingTree@VENet@@$1??$defaultMapKeyComparison@H@DataStructures@@YAHABH0@Z@DataStructures@@QAE@XZ 0054da80 f i StringCompressor.obj
 0002:00096ac0       ??0StringCompressor@VENet@@QAE@XZ 0054dac0 f   StringCompressor.obj
 0002:00096c00       ??1?$List@UMapNode@?$Map@HPAVHuffmanEncodingTree@VENet@@$1??$defaultMapKeyComparison@H@DataStructures@@YAHABH0@Z@DataStructures@@@DataStructures@@QAE@XZ 0054dc00 f i StringCompressor.obj
 0002:00096c70       ??1?$Map@HPAVHuffmanEncodingTree@VENet@@$1??$defaultMapKeyComparison@H@DataStructures@@YAHABH0@Z@DataStructures@@QAE@XZ 0054dc70 f i StringCompressor.obj
 0002:00096d10       ??1?$OrderedList@HUMapNode@?$Map@HPAVHuffmanEncodingTree@VENet@@$1??$defaultMapKeyComparison@H@DataStructures@@YAHABH0@Z@DataStructures@@$1?NodeComparisonFunc@23@SAHABHABU123@@Z@DataStructures@@QAE@XZ 0054dd10 f i StringCompressor.obj
 0002:00096dc0       ??1StringCompressor@VENet@@QAE@XZ 0054ddc0 f   StringCompressor.obj
 0002:00096eb0       ??4MapNode@?$Map@HPAVHuffmanEncodingTree@VENet@@$1??$defaultMapKeyComparison@H@DataStructures@@YAHABH0@Z@DataStructures@@QAEAAU012@ABU012@@Z 0054deb0 f i StringCompressor.obj
 0002:00096f10       ??A?$List@UMapNode@?$Map@HPAVHuffmanEncodingTree@VENet@@$1??$defaultMapKeyComparison@H@DataStructures@@YAHABH0@Z@DataStructures@@@DataStructures@@QBEAAUMapNode@?$Map@HPAVHuffmanEncodingTree@VENet@@$1??$defaultMapKeyComparison@H@DataStructures@@YAHABH0@Z@1@I@Z 0054df10 f i StringCompressor.obj
 0002:00096fb0       ??A?$Map@HPAVHuffmanEncodingTree@VENet@@$1??$defaultMapKeyComparison@H@DataStructures@@YAHABH0@Z@DataStructures@@QBEAAPAVHuffmanEncodingTree@VENet@@I@Z 0054dfb0 f i StringCompressor.obj
 0002:00097010       ??A?$OrderedList@HUMapNode@?$Map@HPAVHuffmanEncodingTree@VENet@@$1??$defaultMapKeyComparison@H@DataStructures@@YAHABH0@Z@DataStructures@@$1?NodeComparisonFunc@23@SAHABHABU123@@Z@DataStructures@@QBEAAUMapNode@?$Map@HPAVHuffmanEncodingTree@VENet@@$1??$defaultMapKeyComparison@H@DataStructures@@YAHABH0@Z@1@I@Z 0054e010 f i StringCompressor.obj
 0002:00097070       ??_GHuffmanEncodingTree@VENet@@QAEPAXI@Z 0054e070 f i StringCompressor.obj
 0002:000970e0       ??_GStringCompressor@VENet@@QAEPAXI@Z 0054e0e0 f i StringCompressor.obj
 0002:00097150       ?AddReference@StringCompressor@VENet@@SAXXZ 0054e150 f   StringCompressor.obj
 0002:000971d0       ?Clear@?$List@UMapNode@?$Map@HPAVHuffmanEncodingTree@VENet@@$1??$defaultMapKeyComparison@H@DataStructures@@YAHABH0@Z@DataStructures@@@DataStructures@@QAEX_NPBDI@Z 0054e1d0 f i StringCompressor.obj
 0002:00097280       ?Clear@?$Map@HPAVHuffmanEncodingTree@VENet@@$1??$defaultMapKeyComparison@H@DataStructures@@YAHABH0@Z@DataStructures@@QAEXXZ 0054e280 f i StringCompressor.obj
 0002:000972f0       ?Clear@?$OrderedList@HUMapNode@?$Map@HPAVHuffmanEncodingTree@VENet@@$1??$defaultMapKeyComparison@H@DataStructures@@YAHABH0@Z@DataStructures@@$1?NodeComparisonFunc@23@SAHABHABU123@@Z@DataStructures@@QAEX_NPBDI@Z 0054e2f0 f i StringCompressor.obj
 0002:00097360       ?DecodeString@StringCompressor@VENet@@QAE_NPADHPAVBitStream@2@E@Z 0054e360 f   StringCompressor.obj
 0002:000974f0       ?DecodeString@StringCompressor@VENet@@QAE_NPAVVEString@2@HPAVBitStream@2@E@Z 0054e4f0 f   StringCompressor.obj
 0002:000976e0       ?EncodeString@StringCompressor@VENet@@QAEXPBDHPAVBitStream@2@E@Z 0054e6e0 f   StringCompressor.obj
 0002:00097940       ?EncodeString@StringCompressor@VENet@@QAEXPBVVEString@2@HPAVBitStream@2@E@Z 0054e940 f   StringCompressor.obj
 0002:000979b0       ?GenerateTreeFromStrings@StringCompressor@VENet@@QAEXPAEIE@Z 0054e9b0 f   StringCompressor.obj
 0002:00097bc0       ?Get@?$Map@HPAVHuffmanEncodingTree@VENet@@$1??$defaultMapKeyComparison@H@DataStructures@@YAHABH0@Z@DataStructures@@QBEAAPAVHuffmanEncodingTree@VENet@@ABH@Z 0054ebc0 f i StringCompressor.obj
 0002:00097d00       ?GetIndexFromKey@?$OrderedList@HUMapNode@?$Map@HPAVHuffmanEncodingTree@VENet@@$1??$defaultMapKeyComparison@H@DataStructures@@YAHABH0@Z@DataStructures@@$1?NodeComparisonFunc@23@SAHABHABU123@@Z@DataStructures@@QBEIABHPA_NP6AH0ABUMapNode@?$Map@HPAVHuffmanEncodingTree@VENet@@$1??$defaultMapKeyComparison@H@DataStructures@@YAHABH0@Z@2@@Z@Z 0054ed00 f i StringCompressor.obj
 0002:00097e40       ?Has@?$Map@HPAVHuffmanEncodingTree@VENet@@$1??$defaultMapKeyComparison@H@DataStructures@@YAHABH0@Z@DataStructures@@QBE_NABH@Z 0054ee40 f i StringCompressor.obj
 0002:00097f30       ?HasSavedSearchResult@?$Map@HPAVHuffmanEncodingTree@VENet@@$1??$defaultMapKeyComparison@H@DataStructures@@YAHABH0@Z@DataStructures@@IBE_NABH@Z 0054ef30 f i StringCompressor.obj
 0002:00097f70       ?IMPLEMENT_DEFAULT_COMPARISON@?$Map@HPAVHuffmanEncodingTree@VENet@@$1??$defaultMapKeyComparison@H@DataStructures@@YAHABH0@Z@DataStructures@@SAXXZ 0054ef70 f i StringCompressor.obj
 0002:00097ff0       ?Insert@?$List@UMapNode@?$Map@HPAVHuffmanEncodingTree@VENet@@$1??$defaultMapKeyComparison@H@DataStructures@@YAHABH0@Z@DataStructures@@@DataStructures@@QAEXABUMapNode@?$Map@HPAVHuffmanEncodingTree@VENet@@$1??$defaultMapKeyComparison@H@DataStructures@@YAHABH0@Z@2@IPBDI@Z 0054eff0 f i StringCompressor.obj
 0002:000981d0       ?Insert@?$List@UMapNode@?$Map@HPAVHuffmanEncodingTree@VENet@@$1??$defaultMapKeyComparison@H@DataStructures@@YAHABH0@Z@DataStructures@@@DataStructures@@QAEXABUMapNode@?$Map@HPAVHuffmanEncodingTree@VENet@@$1??$defaultMapKeyComparison@H@DataStructures@@YAHABH0@Z@2@PBDI@Z 0054f1d0 f i StringCompressor.obj
 0002:00098320       ?Insert@?$OrderedList@HUMapNode@?$Map@HPAVHuffmanEncodingTree@VENet@@$1??$defaultMapKeyComparison@H@DataStructures@@YAHABH0@Z@DataStructures@@$1?NodeComparisonFunc@23@SAHABHABU123@@Z@DataStructures@@QAEIABHABUMapNode@?$Map@HPAVHuffmanEncodingTree@VENet@@$1??$defaultMapKeyComparison@H@DataStructures@@YAHABH0@Z@2@_NPBDIP6AH01@Z@Z 0054f320 f i StringCompressor.obj
 0002:00098470       ?Instance@StringCompressor@VENet@@SAPAV12@XZ 0054f470 f   StringCompressor.obj
 0002:000984b0       ?NodeComparisonFunc@?$Map@HPAVHuffmanEncodingTree@VENet@@$1??$defaultMapKeyComparison@H@DataStructures@@YAHABH0@Z@DataStructures@@SAHABHABUMapNode@12@@Z 0054f4b0 f i StringCompressor.obj
 0002:00098510       ?RemoveReference@StringCompressor@VENet@@SAXXZ 0054f510 f   StringCompressor.obj
 0002:000985e0       ?SaveLastSearch@?$Map@HPAVHuffmanEncodingTree@VENet@@$1??$defaultMapKeyComparison@H@DataStructures@@YAHABH0@Z@DataStructures@@IBEXABHI@Z 0054f5e0 f i StringCompressor.obj
 0002:00098620       ?Set@?$Map@HPAVHuffmanEncodingTree@VENet@@$1??$defaultMapKeyComparison@H@DataStructures@@YAHABH0@Z@DataStructures@@QAEXABHABQAVHuffmanEncodingTree@VENet@@@Z 0054f620 f i StringCompressor.obj
 0002:00098790       ?Size@?$List@UMapNode@?$Map@HPAVHuffmanEncodingTree@VENet@@$1??$defaultMapKeyComparison@H@DataStructures@@YAHABH0@Z@DataStructures@@@DataStructures@@QBEIXZ 0054f790 f i StringCompressor.obj
 0002:000987d0       ?Size@?$Map@HPAVHuffmanEncodingTree@VENet@@$1??$defaultMapKeyComparison@H@DataStructures@@YAHABH0@Z@DataStructures@@QBEIXZ 0054f7d0 f i StringCompressor.obj
 0002:00098820       ?Size@?$OrderedList@HUMapNode@?$Map@HPAVHuffmanEncodingTree@VENet@@$1??$defaultMapKeyComparison@H@DataStructures@@YAHABH0@Z@DataStructures@@$1?NodeComparisonFunc@23@SAHABHABU123@@Z@DataStructures@@QBEIXZ 0054f820 f i StringCompressor.obj
 0002:00098870       ??$OP_DELETE@VStringTable@VENet@@@VENet@@YAXPAVStringTable@0@PBDI@Z 0054f870 f i StringTable.obj
 0002:00098900       ??$OP_DELETE_ARRAY@UStrAndBool@@@VENet@@YAXPAUStrAndBool@@PBDI@Z 0054f900 f i StringTable.obj
 0002:00098960       ??$OP_NEW@VStringTable@VENet@@@VENet@@YAPAVStringTable@0@PBDI@Z 0054f960 f i StringTable.obj
 0002:00098a40       ??$OP_NEW_ARRAY@UStrAndBool@@@VENet@@YAPAUStrAndBool@@HPBDI@Z 0054fa40 f i StringTable.obj
 0002:00098ac0       ??0?$List@UStrAndBool@@@DataStructures@@QAE@XZ 0054fac0 f i StringTable.obj
 0002:00098b20       ??0?$OrderedList@PADUStrAndBool@@$1?StrAndBoolComp@VENet@@YAHABQADABU1@@Z@DataStructures@@QAE@XZ 0054fb20 f i StringTable.obj
 0002:00098b80       ??0StringTable@VENet@@QAE@XZ 0054fb80 f   StringTable.obj
 0002:00098be0       ??1?$List@UStrAndBool@@@DataStructures@@QAE@XZ 0054fbe0 f i StringTable.obj
 0002:00098c50       ??1?$OrderedList@PADUStrAndBool@@$1?StrAndBoolComp@VENet@@YAHABQADABU1@@Z@DataStructures@@QAE@XZ 0054fc50 f i StringTable.obj
 0002:00098d00       ??1StringTable@VENet@@QAE@XZ 0054fd00 f   StringTable.obj
 0002:00098e20       ??A?$List@UStrAndBool@@@DataStructures@@QBEAAUStrAndBool@@I@Z 0054fe20 f i StringTable.obj
 0002:00098ec0       ??A?$OrderedList@PADUStrAndBool@@$1?StrAndBoolComp@VENet@@YAHABQADABU1@@Z@DataStructures@@QBEAAUStrAndBool@@I@Z 0054fec0 f i StringTable.obj
 0002:00098f20       ??_GStringTable@VENet@@QAEPAXI@Z 0054ff20 f i StringTable.obj
 0002:00098f90       ?AddReference@StringTable@VENet@@SAXXZ 0054ff90 f   StringTable.obj
 0002:00099010       ?AddString@StringTable@VENet@@QAEXPBD_N@Z 00550010 f   StringTable.obj
 0002:00099170       ?Clear@?$List@UStrAndBool@@@DataStructures@@QAEX_NPBDI@Z 00550170 f i StringTable.obj
 0002:00099220       ?Clear@?$OrderedList@PADUStrAndBool@@$1?StrAndBoolComp@VENet@@YAHABQADABU1@@Z@DataStructures@@QAEX_NPBDI@Z 00550220 f i StringTable.obj
 0002:00099290       ?DecodeString@StringTable@VENet@@QAE_NPADHPAVBitStream@2@@Z 00550290 f   StringTable.obj
 0002:00099480       ?EncodeString@StringTable@VENet@@QAEXPBDHPAVBitStream@2@@Z 00550480 f   StringTable.obj
 0002:000995d0       ?GetIndexFromKey@?$OrderedList@PADUStrAndBool@@$1?StrAndBoolComp@VENet@@YAHABQADABU1@@Z@DataStructures@@QBEIABQADPA_NP6AH0ABUStrAndBool@@@Z@Z 005505d0 f i StringTable.obj
 0002:00099710       ?Insert@?$List@UStrAndBool@@@DataStructures@@QAEXABUStrAndBool@@IPBDI@Z 00550710 f i StringTable.obj
 0002:000998f0       ?Insert@?$List@UStrAndBool@@@DataStructures@@QAEXABUStrAndBool@@PBDI@Z 005508f0 f i StringTable.obj
 0002:00099a50       ?Insert@?$OrderedList@PADUStrAndBool@@$1?StrAndBoolComp@VENet@@YAHABQADABU1@@Z@DataStructures@@QAEIABQADABUStrAndBool@@_NPBDIP6AH01@Z@Z 00550a50 f i StringTable.obj
 0002:00099ba0       ?Instance@StringTable@VENet@@SAPAV12@XZ 00550ba0 f   StringTable.obj
 0002:00099be0       ?LogStringNotFound@StringTable@VENet@@IAEXPBD@Z 00550be0 f   StringTable.obj
 0002:00099c50       ?RemoveReference@StringTable@VENet@@SAXXZ 00550c50 f   StringTable.obj
 0002:00099d20       ?Size@?$List@UStrAndBool@@@DataStructures@@QBEIXZ 00550d20 f i StringTable.obj
 0002:00099d60       ?Size@?$OrderedList@PADUStrAndBool@@$1?StrAndBoolComp@VENet@@YAHABQADABU1@@Z@DataStructures@@QBEIXZ 00550d60 f i StringTable.obj
 0002:00099db0       ?StrAndBoolComp@VENet@@YAHABQADABUStrAndBool@@@Z 00550db0 f   StringTable.obj
 0002:00099e10       ?SuperFastHash@@YAIPBDH@Z  00550e10 f   SuperFastHash.obj
 0002:00099ee0       ?SuperFastHashFile@@YAIPBD@Z 00550ee0 f   SuperFastHash.obj
 0002:00099f90       ?SuperFastHashFilePtr@@YAIPAU_iobuf@@@Z 00550f90 f   SuperFastHash.obj
 0002:0009a160       ?SuperFastHashIncremental@@YAIPBDHI@Z 00551160 f   SuperFastHash.obj
 0002:0009a360       ??$OP_DELETE_ARRAY@UFilterQuery@Table@DataStructures@@@VENet@@YAXPAUFilterQuery@Table@DataStructures@@PBDI@Z 00551360 f i TableSerializer.obj
 0002:0009a3f0       ??$Read@N@BitStream@VENet@@QAE_NAAN@Z 005513f0 f i TableSerializer.obj
 0002:0009a510       ??$Read@PAX@BitStream@VENet@@QAE_NAAPAX@Z 00551510 f i TableSerializer.obj
 0002:0009a620       ??$Write@N@BitStream@VENet@@QAEXABN@Z 00551620 f i TableSerializer.obj
 0002:0009a730       ??$Write@PAX@BitStream@VENet@@QAEXABQAX@Z 00551730 f i TableSerializer.obj
 0002:0009a820       ??_EFilterQuery@Table@DataStructures@@QAEPAXI@Z 00551820 f i TableSerializer.obj
 0002:0009a8e0       ?DeallocateQueryList@TableSerializer@VENet@@SAXPAUFilterQuery@Table@DataStructures@@I@Z 005518e0 f   TableSerializer.obj
 0002:0009a9a0       ?DeserializeCell@TableSerializer@VENet@@SA_NPAVBitStream@2@PAUCell@Table@DataStructures@@W4ColumnType@56@@Z 005519a0 f   TableSerializer.obj
 0002:0009aca0       ?DeserializeColumns@TableSerializer@VENet@@SA_NPAVBitStream@2@PAVTable@DataStructures@@@Z 00551ca0 f   TableSerializer.obj
 0002:0009ae10       ?DeserializeFilterQuery@TableSerializer@VENet@@SA_NPAVBitStream@2@PAUFilterQuery@Table@DataStructures@@@Z 00551e10 f   TableSerializer.obj
 0002:0009b000       ?DeserializeFilterQueryList@TableSerializer@VENet@@SA_NPAVBitStream@2@PAPAUFilterQuery@Table@DataStructures@@PAIIH@Z 00552000 f   TableSerializer.obj
 0002:0009b410       ?DeserializeRow@TableSerializer@VENet@@SA_NPAVBitStream@2@PAVTable@DataStructures@@@Z 00552410 f   TableSerializer.obj
 0002:0009b5a0       ?DeserializeTable@TableSerializer@VENet@@SA_NPAEIPAVTable@DataStructures@@@Z 005525a0 f   TableSerializer.obj
 0002:0009b6c0       ?DeserializeTable@TableSerializer@VENet@@SA_NPAVBitStream@2@PAVTable@DataStructures@@@Z 005526c0 f   TableSerializer.obj
 0002:0009b800       ?GetIndexOf@?$List@H@DataStructures@@QBEIABH@Z 00552800 f i TableSerializer.obj
 0002:0009b880       ?SerializeCell@TableSerializer@VENet@@SAXPAVBitStream@2@PAUCell@Table@DataStructures@@W4ColumnType@56@@Z 00552880 f   TableSerializer.obj
 0002:0009bac0       ?SerializeColumns@TableSerializer@VENet@@SAXPAVTable@DataStructures@@PAVBitStream@2@@Z 00552ac0 f   TableSerializer.obj
 0002:0009bbb0       ?SerializeColumns@TableSerializer@VENet@@SAXPAVTable@DataStructures@@PAVBitStream@2@AAV?$List@H@4@@Z 00552bb0 f   TableSerializer.obj
 0002:0009bce0       ?SerializeFilterQuery@TableSerializer@VENet@@SAXPAVBitStream@2@PAUFilterQuery@Table@DataStructures@@@Z 00552ce0 f   TableSerializer.obj
 0002:0009be30       ?SerializeFilterQueryList@TableSerializer@VENet@@SAXPAVBitStream@2@PAUFilterQuery@Table@DataStructures@@II@Z 00552e30 f   TableSerializer.obj
 0002:0009bf50       ?SerializeRow@TableSerializer@VENet@@SAXPAURow@Table@DataStructures@@IABV?$List@UColumnDescriptor@Table@DataStructures@@@5@PAVBitStream@2@@Z 00552f50 f   TableSerializer.obj
 0002:0009c090       ?SerializeRow@TableSerializer@VENet@@SAXPAURow@Table@DataStructures@@IABV?$List@UColumnDescriptor@Table@DataStructures@@@5@PAVBitStream@2@AAV?$List@H@5@@Z 00553090 f   TableSerializer.obj
 0002:0009c240       ?SerializeTable@TableSerializer@VENet@@SAXPAVTable@DataStructures@@PAVBitStream@2@@Z 00553240 f   TableSerializer.obj
 0002:0009c360       ?Size@?$List@H@DataStructures@@QBEIXZ 00553360 f i TableSerializer.obj
 0002:0009c3a0       ??$OP_DELETE@UThisPtrPlusSysAddr@TCPInterface@VENet@@@VENet@@YAXPAUThisPtrPlusSysAddr@TCPInterface@0@PBDI@Z 005533a0 f i TCPInterface.obj
 0002:0009c400       ??$OP_DELETE@VTCPInterface@VENet@@@VENet@@YAXPAVTCPInterface@0@PBDI@Z 00553400 f i TCPInterface.obj
 0002:0009c4a0       ??$OP_DELETE_ARRAY@PAPAURemoteClient@VENet@@@VENet@@YAXPAPAPAURemoteClient@0@PBDI@Z 005534a0 f i TCPInterface.obj
 0002:0009c500       ??$OP_DELETE_ARRAY@PAUSystemAddress@VENet@@@VENet@@YAXPAPAUSystemAddress@0@PBDI@Z 00553500 f i TCPInterface.obj
 0002:0009c560       ??$OP_DELETE_ARRAY@URemoteClient@VENet@@@VENet@@YAXPAURemoteClient@0@PBDI@Z 00553560 f i TCPInterface.obj
 0002:0009c5f0       ??$OP_NEW@UThisPtrPlusSysAddr@TCPInterface@VENet@@@VENet@@YAPAUThisPtrPlusSysAddr@TCPInterface@0@PBDI@Z 005535f0 f i TCPInterface.obj
 0002:0009c6d0       ??$OP_NEW@VTCPInterface@VENet@@@VENet@@YAPAVTCPInterface@0@PBDI@Z 005536d0 f i TCPInterface.obj
 0002:0009c7c0       ??$OP_NEW_ARRAY@PAUSystemAddress@VENet@@@VENet@@YAPAPAUSystemAddress@0@HPBDI@Z 005537c0 f i TCPInterface.obj
 0002:0009c840       ??$OP_NEW_ARRAY@URemoteClient@VENet@@@VENet@@YAPAURemoteClient@0@HPBDI@Z 00553840 f i TCPInterface.obj
 0002:0009c9a0       ??0?$MemoryPool@PAURemoteClient@VENet@@@DataStructures@@QAE@XZ 005539a0 f i TCPInterface.obj
 0002:0009ca00       ??0?$MemoryPool@UPacket@VENet@@@DataStructures@@QAE@XZ 00553a00 f i TCPInterface.obj
 0002:0009ca60       ??0?$MemoryPool@USystemAddress@VENet@@@DataStructures@@QAE@XZ 00553a60 f i TCPInterface.obj
 0002:0009cac0       ??0?$Queue@PAPAURemoteClient@VENet@@@DataStructures@@QAE@XZ 00553ac0 f i TCPInterface.obj
 0002:0009cb30       ??0?$Queue@PAUSystemAddress@VENet@@@DataStructures@@QAE@XZ 00553b30 f i TCPInterface.obj
 0002:0009cba0       ??0?$ThreadsafeAllocatingQueue@PAURemoteClient@VENet@@@DataStructures@@QAE@XZ 00553ba0 f i TCPInterface.obj
 0002:0009cc70       ??0?$ThreadsafeAllocatingQueue@UPacket@VENet@@@DataStructures@@QAE@XZ 00553c70 f i TCPInterface.obj
 0002:0009cd40       ??0?$ThreadsafeAllocatingQueue@USystemAddress@VENet@@@DataStructures@@QAE@XZ 00553d40 f i TCPInterface.obj
 0002:0009ce10       ??0RemoteClient@VENet@@QAE@XZ 00553e10 f i TCPInterface.obj
 0002:0009cef0       ??0TCPInterface@VENet@@QAE@XZ 00553ef0 f   TCPInterface.obj
 0002:0009d100       ??0ThisPtrPlusSysAddr@TCPInterface@VENet@@QAE@XZ 00554100 f i TCPInterface.obj
 0002:0009d160       ??1?$MemoryPool@PAURemoteClient@VENet@@@DataStructures@@QAE@XZ 00554160 f i TCPInterface.obj
 0002:0009d1c0       ??1?$MemoryPool@UPacket@VENet@@@DataStructures@@QAE@XZ 005541c0 f i TCPInterface.obj
 0002:0009d220       ??1?$MemoryPool@USystemAddress@VENet@@@DataStructures@@QAE@XZ 00554220 f i TCPInterface.obj
 0002:0009d280       ??1?$Queue@PAPAURemoteClient@VENet@@@DataStructures@@QAE@XZ 00554280 f i TCPInterface.obj
 0002:0009d2f0       ??1?$Queue@PAUSystemAddress@VENet@@@DataStructures@@QAE@XZ 005542f0 f i TCPInterface.obj
 0002:0009d360       ??1?$ThreadsafeAllocatingQueue@PAURemoteClient@VENet@@@DataStructures@@QAE@XZ 00554360 f i TCPInterface.obj
 0002:0009d430       ??1?$ThreadsafeAllocatingQueue@UPacket@VENet@@@DataStructures@@QAE@XZ 00554430 f i TCPInterface.obj
 0002:0009d500       ??1?$ThreadsafeAllocatingQueue@USystemAddress@VENet@@@DataStructures@@QAE@XZ 00554500 f i TCPInterface.obj
 0002:0009d5d0       ??1RemoteClient@VENet@@QAE@XZ 005545d0 f i TCPInterface.obj
 0002:0009d690       ??1TCPInterface@VENet@@UAE@XZ 00554690 f   TCPInterface.obj
 0002:0009d880       ??2@YAPAXIPAX@Z            00554880 f i TCPInterface.obj
 0002:0009d8c0       ??3@YAXPAX0@Z              005548c0 f i TCPInterface.obj
 0002:0009d8f0       ??A?$Queue@PAPAURemoteClient@VENet@@@DataStructures@@QBEAAPAPAURemoteClient@VENet@@I@Z 005548f0 f i TCPInterface.obj
 0002:0009d9c0       ??A?$Queue@PAUSystemAddress@VENet@@@DataStructures@@QBEAAPAUSystemAddress@VENet@@I@Z 005549c0 f i TCPInterface.obj
 0002:0009da90       ??_ERemoteClient@VENet@@QAEPAXI@Z 00554a90 f i TCPInterface.obj
 0002:0009db50       ??_ETCPInterface@VENet@@UAEPAXI@Z 00554b50 f i TCPInterface.obj
 0002:0009db50       ??_GTCPInterface@VENet@@UAEPAXI@Z 00554b50 f i TCPInterface.obj
 0002:0009dbc0       ?Allocate@?$MemoryPool@UPacket@VENet@@@DataStructures@@QAEPAUPacket@VENet@@PBDI@Z 00554bc0 f i TCPInterface.obj
 0002:0009dee0       ?Allocate@?$MemoryPool@USystemAddress@VENet@@@DataStructures@@QAEPAUSystemAddress@VENet@@PBDI@Z 00554ee0 f i TCPInterface.obj
 0002:0009e200       ?Allocate@?$ThreadsafeAllocatingQueue@UPacket@VENet@@@DataStructures@@QAEPAUPacket@VENet@@PBDI@Z 00555200 f i TCPInterface.obj
 0002:0009e330       ?Allocate@?$ThreadsafeAllocatingQueue@USystemAddress@VENet@@@DataStructures@@QAEPAUSystemAddress@VENet@@PBDI@Z 00555330 f i TCPInterface.obj
 0002:0009e460       ?AllocatePacket@TCPInterface@VENet@@QAEPAUPacket@2@I@Z 00555460 f   TCPInterface.obj
 0002:0009e560       ?Base64Encoding@TCPInterface@VENet@@SAHPBDHPAD@Z 00555560 f   TCPInterface.obj
 0002:0009ebe0       ?Base64Map@TCPInterface@VENet@@SAPBDXZ 00555be0 f i TCPInterface.obj
 0002:0009ec20       ?BlocksPerPage@?$MemoryPool@PAURemoteClient@VENet@@@DataStructures@@IBEHXZ 00555c20 f i TCPInterface.obj
 0002:0009ec60       ?BlocksPerPage@?$MemoryPool@UPacket@VENet@@@DataStructures@@IBEHXZ 00555c60 f i TCPInterface.obj
 0002:0009eca0       ?BlocksPerPage@?$MemoryPool@USystemAddress@VENet@@@DataStructures@@IBEHXZ 00555ca0 f i TCPInterface.obj
 0002:0009ecf0       ?Clear@?$MemoryPool@PAURemoteClient@VENet@@@DataStructures@@QAEXPBDI@Z 00555cf0 f i TCPInterface.obj
 0002:0009ef30       ?Clear@?$MemoryPool@UPacket@VENet@@@DataStructures@@QAEXPBDI@Z 00555f30 f i TCPInterface.obj
 0002:0009f170       ?Clear@?$MemoryPool@USystemAddress@VENet@@@DataStructures@@QAEXPBDI@Z 00556170 f i TCPInterface.obj
 0002:0009f3b0       ?Clear@?$Queue@PAPAURemoteClient@VENet@@@DataStructures@@QAEXPBDI@Z 005563b0 f i TCPInterface.obj
 0002:0009f460       ?Clear@?$Queue@PAUSystemAddress@VENet@@@DataStructures@@QAEXPBDI@Z 00556460 f i TCPInterface.obj
 0002:0009f510       ?Clear@?$Queue@USystemAddress@VENet@@@DataStructures@@QAEXPBDI@Z 00556510 f i TCPInterface.obj
 0002:0009f5c0       ?Clear@?$ThreadsafeAllocatingQueue@PAURemoteClient@VENet@@@DataStructures@@QAEXPBDI@Z 005565c0 f i TCPInterface.obj
 0002:0009f6e0       ?Clear@?$ThreadsafeAllocatingQueue@UPacket@VENet@@@DataStructures@@QAEXPBDI@Z 005566e0 f i TCPInterface.obj
 0002:0009f800       ?Clear@?$ThreadsafeAllocatingQueue@USystemAddress@VENet@@@DataStructures@@QAEXPBDI@Z 00556800 f i TCPInterface.obj
 0002:0009f920       ?CloseConnection@TCPInterface@VENet@@QAEXUSystemAddress@2@@Z 00556920 f   TCPInterface.obj
 0002:0009fb10       ?Connect@TCPInterface@VENet@@QAE?AUSystemAddress@2@PBDG_NG@Z 00556b10 f   TCPInterface.obj
 0002:000a00c0       ?ConnectionAttemptLoop@VENet@@YGIPAX@Z 005570c0 f   TCPInterface.obj
 0002:000a0370       ?Deallocate@?$ThreadsafeAllocatingQueue@UPacket@VENet@@@DataStructures@@QAEXPAUPacket@VENet@@PBDI@Z 00557370 f i TCPInterface.obj
 0002:000a03f0       ?Deallocate@?$ThreadsafeAllocatingQueue@USystemAddress@VENet@@@DataStructures@@QAEXPAUSystemAddress@VENet@@PBDI@Z 005573f0 f i TCPInterface.obj
 0002:000a0470       ?DeallocatePacket@TCPInterface@VENet@@QAEXPAUPacket@2@@Z 00557470 f   TCPInterface.obj
 0002:000a0580       ?DestroyInstance@TCPInterface@VENet@@SAXPAV12@@Z 00557580 f   TCPInterface.obj
 0002:000a05e0       ?GetConnectionCount@TCPInterface@VENet@@QBEGXZ 005575e0 f   TCPInterface.obj
 0002:000a0680       ?GetConnectionList@TCPInterface@VENet@@QBEXPAUSystemAddress@2@PAG@Z 00557680 f   TCPInterface.obj
 0002:000a0770       ?GetIndexOf@?$List@I@DataStructures@@QBEIABI@Z 00557770 f i TCPInterface.obj
 0002:000a07f0       ?GetInstance@TCPInterface@VENet@@SAPAV12@XZ 005577f0 f   TCPInterface.obj
 0002:000a0850       ?GetOutgoingDataBufferSize@TCPInterface@VENet@@QBEIUSystemAddress@2@@Z 00557850 f   TCPInterface.obj
 0002:000a0a20       ?HasCompletedConnectionAttempt@TCPInterface@VENet@@QAE?AUSystemAddress@2@XZ 00557a20 f   TCPInterface.obj
 0002:000a0b80       ?HasFailedConnectionAttempt@TCPInterface@VENet@@QAE?AUSystemAddress@2@XZ 00557b80 f   TCPInterface.obj
 0002:000a0ce0       ?HasLostConnection@TCPInterface@VENet@@QAE?AUSystemAddress@2@XZ 00557ce0 f   TCPInterface.obj
 0002:000a0e50       ?HasNewIncomingConnection@TCPInterface@VENet@@QAE?AUSystemAddress@2@XZ 00557e50 f   TCPInterface.obj
 0002:000a0fc0       ?InitPage@?$MemoryPool@UPacket@VENet@@@DataStructures@@IAE_NPAUPage@12@0PBDI@Z 00557fc0 f i TCPInterface.obj
 0002:000a1150       ?InitPage@?$MemoryPool@USystemAddress@VENet@@@DataStructures@@IAE_NPAUPage@12@0PBDI@Z 00558150 f i TCPInterface.obj
 0002:000a12e0       ?IsEmpty@?$Queue@PAUSystemAddress@VENet@@@DataStructures@@QBE_NXZ 005582e0 f i TCPInterface.obj
 0002:000a1350       ?IsEmpty@?$ThreadsafeAllocatingQueue@UPacket@VENet@@@DataStructures@@QAE_NXZ 00558350 f i TCPInterface.obj
 0002:000a13d0       ?Pop@?$Queue@PAUSystemAddress@VENet@@@DataStructures@@QAEPAUSystemAddress@VENet@@XZ 005583d0 f i TCPInterface.obj
 0002:000a14c0       ?PopInaccurate@?$ThreadsafeAllocatingQueue@UPacket@VENet@@@DataStructures@@QAEPAUPacket@VENet@@XZ 005584c0 f i TCPInterface.obj
 0002:000a1580       ?PopInaccurate@?$ThreadsafeAllocatingQueue@USystemAddress@VENet@@@DataStructures@@QAEPAUSystemAddress@VENet@@XZ 00558580 f i TCPInterface.obj
 0002:000a1640       ?Push@?$Queue@PAUSystemAddress@VENet@@@DataStructures@@QAEXABQAUSystemAddress@VENet@@PBDI@Z 00558640 f i TCPInterface.obj
 0002:000a1860       ?Push@?$ThreadsafeAllocatingQueue@UPacket@VENet@@@DataStructures@@QAEXPAUPacket@VENet@@@Z 00558860 f i TCPInterface.obj
 0002:000a18e0       ?Push@?$ThreadsafeAllocatingQueue@USystemAddress@VENet@@@DataStructures@@QAEXPAUSystemAddress@VENet@@@Z 005588e0 f i TCPInterface.obj
 0002:000a1960       ?PushBackPacket@TCPInterface@VENet@@UAEXPAUPacket@2@_N@Z 00558960 f   TCPInterface.obj
 0002:000a1a00       ?Receive@TCPInterface@VENet@@QAEPAUPacket@2@XZ 00558a00 f   TCPInterface.obj
 0002:000a1ad0       ?ReceiveHasPackets@TCPInterface@VENet@@UAE_NXZ 00558ad0 f   TCPInterface.obj
 0002:000a1b80       ?Recv@RemoteClient@VENet@@QAEHPADH@Z 00558b80 f   TCPInterface.obj
 0002:000a1bf0       ?Release@?$MemoryPool@PAURemoteClient@VENet@@@DataStructures@@QAEXPAPAURemoteClient@VENet@@PBDI@Z 00558bf0 f i TCPInterface.obj
 0002:000a1f00       ?Release@?$MemoryPool@UPacket@VENet@@@DataStructures@@QAEXPAUPacket@VENet@@PBDI@Z 00558f00 f i TCPInterface.obj
 0002:000a2210       ?Release@?$MemoryPool@USystemAddress@VENet@@@DataStructures@@QAEXPAUSystemAddress@VENet@@PBDI@Z 00559210 f i TCPInterface.obj
 0002:000a2520       ?RemoveAtIndexFast@?$List@I@DataStructures@@QAEXI@Z 00559520 f i TCPInterface.obj
 0002:000a25e0       ?Reset@RemoteClient@VENet@@QAEXXZ 005595e0 f i TCPInterface.obj
 0002:000a2660       ?Send@RemoteClient@VENet@@QAEHPBDI@Z 00559660 f   TCPInterface.obj
 0002:000a26d0       ?Send@TCPInterface@VENet@@QAEXPBDIABUSystemAddress@2@_N@Z 005596d0 f   TCPInterface.obj
 0002:000a2740       ?SendList@TCPInterface@VENet@@QAE_NPAPBDPBIHABUSystemAddress@2@_N@Z 00559740 f   TCPInterface.obj
 0002:000a29a0       ?SendOrBuffer@RemoteClient@VENet@@QAEXPAPBDPBIH@Z 005599a0 f   TCPInterface.obj
 0002:000a2b30       ?SetActive@RemoteClient@VENet@@QAEX_N@Z 00559b30 f   TCPInterface.obj
 0002:000a2be0       ?Size@?$Queue@PAPAURemoteClient@VENet@@@DataStructures@@QBEIXZ 00559be0 f i TCPInterface.obj
 0002:000a2c50       ?Size@?$Queue@PAUSystemAddress@VENet@@@DataStructures@@QBEIXZ 00559c50 f i TCPInterface.obj
 0002:000a2cc0       ?SocketConnect@TCPInterface@VENet@@IAEIPBDGG@Z 00559cc0 f   TCPInterface.obj
 0002:000a2f90       ?Start@TCPInterface@VENet@@QAE_NGGGHG@Z 00559f90 f   TCPInterface.obj
 0002:000a3230       ?Stop@TCPInterface@VENet@@QAEXXZ 0055a230 f   TCPInterface.obj
 0002:000a3620       ?UpdateTCPInterfaceLoop@VENet@@YGIPAX@Z 0055a620 f   TCPInterface.obj
 0002:000a4540       ?WasStarted@TCPInterface@VENet@@QBE_NXZ 0055b540 f   TCPInterface.obj
 0002:000a45c0       ??$OP_DELETE@VTeamBalancer@VENet@@@VENet@@YAXPAVTeamBalancer@0@PBDI@Z 0055b5c0 f i TeamBalancer.obj
 0002:000a4660       ??$OP_DELETE_ARRAY@E@VENet@@YAXPAEPBDI@Z 0055b660 f i TeamBalancer.obj
 0002:000a46c0       ??$OP_DELETE_ARRAY@G@VENet@@YAXPAGPBDI@Z 0055b6c0 f i TeamBalancer.obj
 0002:000a4720       ??$OP_DELETE_ARRAY@UMyTeamMembers@TeamBalancer@VENet@@@VENet@@YAXPAUMyTeamMembers@TeamBalancer@0@PBDI@Z 0055b720 f i TeamBalancer.obj
 0002:000a4780       ??$OP_DELETE_ARRAY@UTeamMember@TeamBalancer@VENet@@@VENet@@YAXPAUTeamMember@TeamBalancer@0@PBDI@Z 0055b780 f i TeamBalancer.obj
 0002:000a47e0       ??$OP_NEW@VTeamBalancer@VENet@@@VENet@@YAPAVTeamBalancer@0@PBDI@Z 0055b7e0 f i TeamBalancer.obj
 0002:000a48c0       ??$OP_NEW_ARRAY@E@VENet@@YAPAEHPBDI@Z 0055b8c0 f i TeamBalancer.obj
 0002:000a4930       ??$OP_NEW_ARRAY@G@VENet@@YAPAGHPBDI@Z 0055b930 f i TeamBalancer.obj
 0002:000a49b0       ??$OP_NEW_ARRAY@UMyTeamMembers@TeamBalancer@VENet@@@VENet@@YAPAUMyTeamMembers@TeamBalancer@0@HPBDI@Z 0055b9b0 f i TeamBalancer.obj
 0002:000a4a30       ??$OP_NEW_ARRAY@UTeamMember@TeamBalancer@VENet@@@VENet@@YAPAUTeamMember@TeamBalancer@0@HPBDI@Z 0055ba30 f i TeamBalancer.obj
 0002:000a4b60       ??$WriteCasted@EI@BitStream@VENet@@QAEXABI@Z 0055bb60 f i TeamBalancer.obj
 0002:000a4c00       ??0?$List@E@DataStructures@@QAE@XZ 0055bc00 f i TeamBalancer.obj
 0002:000a4c60       ??0?$List@G@DataStructures@@QAE@XZ 0055bc60 f i TeamBalancer.obj
 0002:000a4cc0       ??0?$List@UMyTeamMembers@TeamBalancer@VENet@@@DataStructures@@QAE@XZ 0055bcc0 f i TeamBalancer.obj
 0002:000a4d20       ??0?$List@UTeamMember@TeamBalancer@VENet@@@DataStructures@@QAE@XZ 0055bd20 f i TeamBalancer.obj
 0002:000a4d80       ??0TeamBalancer@VENet@@QAE@XZ 0055bd80 f   TeamBalancer.obj
 0002:000a4eb0       ??0TeamMember@TeamBalancer@VENet@@QAE@XZ 0055beb0 f i TeamBalancer.obj
 0002:000a4f10       ??1?$List@E@DataStructures@@QAE@XZ 0055bf10 f i TeamBalancer.obj
 0002:000a4f80       ??1?$List@G@DataStructures@@QAE@XZ 0055bf80 f i TeamBalancer.obj
 0002:000a4ff0       ??1?$List@UMyTeamMembers@TeamBalancer@VENet@@@DataStructures@@QAE@XZ 0055bff0 f i TeamBalancer.obj
 0002:000a5060       ??1?$List@UTeamMember@TeamBalancer@VENet@@@DataStructures@@QAE@XZ 0055c060 f i TeamBalancer.obj
 0002:000a50d0       ??1TeamBalancer@VENet@@UAE@XZ 0055c0d0 f   TeamBalancer.obj
 0002:000a51c0       ??4TeamMember@TeamBalancer@VENet@@QAEAAU012@ABU012@@Z 0055c1c0 f i TeamBalancer.obj
 0002:000a5250       ??A?$List@E@DataStructures@@QBEAAEI@Z 0055c250 f i TeamBalancer.obj
 0002:000a52f0       ??A?$List@G@DataStructures@@QBEAAGI@Z 0055c2f0 f i TeamBalancer.obj
 0002:000a5390       ??A?$List@UMyTeamMembers@TeamBalancer@VENet@@@DataStructures@@QBEAAUMyTeamMembers@TeamBalancer@VENet@@I@Z 0055c390 f i TeamBalancer.obj
 0002:000a5430       ??A?$List@UTeamMember@TeamBalancer@VENet@@@DataStructures@@QBEAAUTeamMember@TeamBalancer@VENet@@I@Z 0055c430 f i TeamBalancer.obj
 0002:000a54d0       ??_GTeamBalancer@VENet@@UAEPAXI@Z 0055c4d0 f i TeamBalancer.obj
 0002:000a54d0       ??_ETeamBalancer@VENet@@UAEPAXI@Z 0055c4d0 f i TeamBalancer.obj
 0002:000a5540       ?AddTeamMember@TeamBalancer@VENet@@IAEIABUTeamMember@12@@Z 0055c540 f   TeamBalancer.obj
 0002:000a5710       ?CancelRequestSpecificTeam@TeamBalancer@VENet@@QAEX_K@Z 0055c710 f   TeamBalancer.obj
 0002:000a5940       ?Clear@?$List@E@DataStructures@@QAEX_NPBDI@Z 0055c940 f i TeamBalancer.obj
 0002:000a59f0       ?DeleteMember@TeamBalancer@VENet@@QAEX_K@Z 0055c9f0 f   TeamBalancer.obj
 0002:000a5b40       ?DestroyInstance@TeamBalancer@VENet@@SAXPAV12@@Z 0055cb40 f   TeamBalancer.obj
 0002:000a5ba0       ?EvenTeams@TeamBalancer@VENet@@IAEXXZ 0055cba0 f   TeamBalancer.obj
 0002:000a5e50       ?GetFirstNonFullTeam@TeamBalancer@VENet@@IBEEXZ 0055ce50 f   TeamBalancer.obj
 0002:000a5f00       ?GetInstance@TeamBalancer@VENet@@SAPAV12@XZ 0055cf00 f   TeamBalancer.obj
 0002:000a5f60       ?GetMemberIndex@TeamBalancer@VENet@@IBEI_KUVENetGUID@2@@Z 0055cf60 f   TeamBalancer.obj
 0002:000a6050       ?GetMemberIndexToSwitchTeams@TeamBalancer@VENet@@IAEIABV?$List@E@DataStructures@@E@Z 0055d050 f   TeamBalancer.obj
 0002:000a6400       ?GetMinMaxTeamMembers@TeamBalancer@VENet@@IAEXAAH0@Z 0055d400 f   TeamBalancer.obj
 0002:000a64d0       ?GetMyTeam@TeamBalancer@VENet@@QBEE_K@Z 0055d4d0 f   TeamBalancer.obj
 0002:000a65a0       ?GetNextDefaultTeam@TeamBalancer@VENet@@IAEEXZ 0055d5a0 f   TeamBalancer.obj
 0002:000a6670       ?GetOverpopulatedTeams@TeamBalancer@VENet@@IAEXAAV?$List@E@DataStructures@@H@Z 0055d670 f   TeamBalancer.obj
 0002:000a6780       ?GetSmallestNonFullTeam@TeamBalancer@VENet@@IBEEXZ 0055d780 f   TeamBalancer.obj
 0002:000a6880       ?Insert@?$List@E@DataStructures@@QAEXABEPBDI@Z 0055d880 f i TeamBalancer.obj
 0002:000a69d0       ?Insert@?$List@UMyTeamMembers@TeamBalancer@VENet@@@DataStructures@@QAEXABUMyTeamMembers@TeamBalancer@VENet@@PBDI@Z 0055d9d0 f i TeamBalancer.obj
 0002:000a6b50       ?Insert@?$List@UTeamMember@TeamBalancer@VENet@@@DataStructures@@QAEXABUTeamMember@TeamBalancer@VENet@@PBDI@Z 0055db50 f i TeamBalancer.obj
 0002:000a6ca0       ?MoveMemberThatWantsToJoinTeam@TeamBalancer@VENet@@IAEXE@Z 0055dca0 f   TeamBalancer.obj
 0002:000a6d60       ?MoveMemberThatWantsToJoinTeamInternal@TeamBalancer@VENet@@IAEEE@Z 0055dd60 f   TeamBalancer.obj
 0002:000a6f90       ?NotifyNoTeam@TeamBalancer@VENet@@IAEX_KUVENetGUID@2@@Z 0055df90 f   TeamBalancer.obj
 0002:000a7120       ?NotifyTeamAssigment@TeamBalancer@VENet@@IAEXI@Z 0055e120 f   TeamBalancer.obj
 0002:000a7330       ?NotifyTeamSwitchPending@TeamBalancer@VENet@@IAEXUVENetGUID@2@E_K@Z 0055e330 f   TeamBalancer.obj
 0002:000a74b0       ?NotifyTeamsLocked@TeamBalancer@VENet@@IAEXUVENetGUID@2@E@Z 0055e4b0 f   TeamBalancer.obj
 0002:000a7620       ?OnAttach@TeamBalancer@VENet@@MAEXXZ 0055e620 f   TeamBalancer.obj
 0002:000a76e0       ?OnCancelTeamRequest@TeamBalancer@VENet@@IAEXPAUPacket@2@@Z 0055e6e0 f   TeamBalancer.obj
 0002:000a78b0       ?OnClosedConnection@TeamBalancer@VENet@@MAEXABUSystemAddress@2@UVENetGUID@2@W4PI2_LostConnectionReason@2@@Z 0055e8b0 f   TeamBalancer.obj
 0002:000a7930       ?OnReceive@TeamBalancer@VENet@@MAE?AW4PluginReceiveResult@2@PAUPacket@2@@Z 0055e930 f   TeamBalancer.obj
 0002:000a7d40       ?OnRequestAnyTeam@TeamBalancer@VENet@@IAEXPAUPacket@2@@Z 0055ed40 f   TeamBalancer.obj
 0002:000a8000       ?OnRequestSpecificTeam@TeamBalancer@VENet@@IAEXPAUPacket@2@@Z 0055f000 f   TeamBalancer.obj
 0002:000a8630       ?OnRequestedTeamChangePending@TeamBalancer@VENet@@IAE?AW4PluginReceiveResult@2@PAUPacket@2@@Z 0055f630 f   TeamBalancer.obj
 0002:000a86b0       ?OnStatusUpdateToNewHost@TeamBalancer@VENet@@IAEXPAUPacket@2@@Z 0055f6b0 f   TeamBalancer.obj
 0002:000a8ba0       ?OnTeamAssigned@TeamBalancer@VENet@@IAE?AW4PluginReceiveResult@2@PAUPacket@2@@Z 0055fba0 f   TeamBalancer.obj
 0002:000a8e80       ?OnTeamsLocked@TeamBalancer@VENet@@IAE?AW4PluginReceiveResult@2@PAUPacket@2@@Z 0055fe80 f   TeamBalancer.obj
 0002:000a8f00       ?Push@?$List@E@DataStructures@@QAEXABEPBDI@Z 0055ff00 f i TeamBalancer.obj
 0002:000a8f60       ?Push@?$List@UMyTeamMembers@TeamBalancer@VENet@@@DataStructures@@QAEXABUMyTeamMembers@TeamBalancer@VENet@@PBDI@Z 0055ff60 f i TeamBalancer.obj
 0002:000a8fc0       ?Push@?$List@UTeamMember@TeamBalancer@VENet@@@DataStructures@@QAEXABUTeamMember@TeamBalancer@VENet@@PBDI@Z 0055ffc0 f i TeamBalancer.obj
 0002:000a9020       ?RemoveAtIndexFast@?$List@UMyTeamMembers@TeamBalancer@VENet@@@DataStructures@@QAEXI@Z 00560020 f i TeamBalancer.obj
 0002:000a9110       ?RemoveAtIndexFast@?$List@UTeamMember@TeamBalancer@VENet@@@DataStructures@@QAEXI@Z 00560110 f i TeamBalancer.obj
 0002:000a91e0       ?RemoveByGuid@TeamBalancer@VENet@@IAEXUVENetGUID@2@@Z 005601e0 f   TeamBalancer.obj
 0002:000a9340       ?RemoveTeamMember@TeamBalancer@VENet@@IAEXI@Z 00560340 f   TeamBalancer.obj
 0002:000a9450       ?Replace@?$List@G@DataStructures@@QAEXABGGIPBDI@Z 00560450 f i TeamBalancer.obj
 0002:000a9620       ?RequestAnyTeam@TeamBalancer@VENet@@QAEX_K@Z 00560620 f   TeamBalancer.obj
 0002:000a98c0       ?RequestSpecificTeam@TeamBalancer@VENet@@QAEX_KE@Z 005608c0 f   TeamBalancer.obj
 0002:000a9ba0       ?SetDefaultAssignmentAlgorithm@TeamBalancer@VENet@@QAEXW4DefaultAssigmentAlgorithm@12@@Z 00560ba0 f   TeamBalancer.obj
 0002:000a9bf0       ?SetForceEvenTeams@TeamBalancer@VENet@@QAEX_N@Z 00560bf0 f   TeamBalancer.obj
 0002:000a9c70       ?SetLockTeams@TeamBalancer@VENet@@QAEX_N@Z 00560c70 f   TeamBalancer.obj
 0002:000a9f00       ?SetTeamSizeLimit@TeamBalancer@VENet@@QAEXEG@Z 00560f00 f   TeamBalancer.obj
 0002:000a9ff0       ?Size@?$List@E@DataStructures@@QBEIXZ 00560ff0 f i TeamBalancer.obj
 0002:000aa030       ?Size@?$List@G@DataStructures@@QBEIXZ 00561030 f i TeamBalancer.obj
 0002:000aa070       ?Size@?$List@UMyTeamMembers@TeamBalancer@VENet@@@DataStructures@@QBEIXZ 00561070 f i TeamBalancer.obj
 0002:000aa0b0       ?Size@?$List@UTeamMember@TeamBalancer@VENet@@@DataStructures@@QBEIXZ 005610b0 f i TeamBalancer.obj
 0002:000aa0f0       ?SwapTeamMembersByRequest@TeamBalancer@VENet@@IAEXII@Z 005610f0 f   TeamBalancer.obj
 0002:000aa1d0       ?SwitchMemberTeam@TeamBalancer@VENet@@IAEXIE@Z 005611d0 f   TeamBalancer.obj
 0002:000aa300       ?TeamWouldBeOverpopulatedOnAddition@TeamBalancer@VENet@@IAE_NEI@Z 00561300 f   TeamBalancer.obj
 0002:000aa400       ?TeamWouldBeUnderpopulatedOnLeave@TeamBalancer@VENet@@IAE_NEI@Z 00561400 f   TeamBalancer.obj
 0002:000aa4c0       ?TeamsWouldBeEvenOnSwitch@TeamBalancer@VENet@@IAE_NEE@Z 005614c0 f   TeamBalancer.obj
 0002:000aa5d0       ?WeAreHost@TeamBalancer@VENet@@IBE_NXZ 005615d0 f   TeamBalancer.obj
 0002:000aa690       ??$OP_DELETE@UNode@?$Hash@_KPAVTM_Team@VENet@@$0BAA@$1?ToUint32@12@SAKAB_K@Z@DataStructures@@@VENet@@YAXPAUNode@?$Hash@_KPAVTM_Team@VENet@@$0BAA@$1?ToUint32@12@SAKAB_K@Z@DataStructures@@PBDI@Z 00561690 f i TeamManager.obj
 0002:000aa6f0       ??$OP_DELETE@UNode@?$Hash@_KPAVTM_TeamMember@VENet@@$0BAA@$1?ToUint32@12@SAKAB_K@Z@DataStructures@@@VENet@@YAXPAUNode@?$Hash@_KPAVTM_TeamMember@VENet@@$0BAA@$1?ToUint32@12@SAKAB_K@Z@DataStructures@@PBDI@Z 005616f0 f i TeamManager.obj
 0002:000aa750       ??$OP_DELETE@VTM_Team@VENet@@@VENet@@YAXPAVTM_Team@0@PBDI@Z 00561750 f i TeamManager.obj
 0002:000aa7f0       ??$OP_DELETE@VTM_TeamMember@VENet@@@VENet@@YAXPAVTM_TeamMember@0@PBDI@Z 005617f0 f i TeamManager.obj
 0002:000aa890       ??$OP_DELETE@VTM_World@VENet@@@VENet@@YAXPAVTM_World@0@PBDI@Z 00561890 f i TeamManager.obj
 0002:000aa930       ??$OP_DELETE@VTeamManager@VENet@@@VENet@@YAXPAVTeamManager@0@PBDI@Z 00561930 f i TeamManager.obj
 0002:000aa9d0       ??$OP_DELETE_ARRAY@PAUNode@?$Hash@_KPAVTM_Team@VENet@@$0BAA@$1?ToUint32@12@SAKAB_K@Z@DataStructures@@@VENet@@YAXPAPAUNode@?$Hash@_KPAVTM_Team@VENet@@$0BAA@$1?ToUint32@12@SAKAB_K@Z@DataStructures@@PBDI@Z 005619d0 f i TeamManager.obj
 0002:000aaa30       ??$OP_DELETE_ARRAY@PAUNode@?$Hash@_KPAVTM_TeamMember@VENet@@$0BAA@$1?ToUint32@12@SAKAB_K@Z@DataStructures@@@VENet@@YAXPAPAUNode@?$Hash@_KPAVTM_TeamMember@VENet@@$0BAA@$1?ToUint32@12@SAKAB_K@Z@DataStructures@@PBDI@Z 00561a30 f i TeamManager.obj
 0002:000aaa90       ??$OP_DELETE_ARRAY@PAVTM_Team@VENet@@@VENet@@YAXPAPAVTM_Team@0@PBDI@Z 00561a90 f i TeamManager.obj
 0002:000aaaf0       ??$OP_DELETE_ARRAY@PAVTM_TeamMember@VENet@@@VENet@@YAXPAPAVTM_TeamMember@0@PBDI@Z 00561af0 f i TeamManager.obj
 0002:000aab50       ??$OP_DELETE_ARRAY@PAVTM_World@VENet@@@VENet@@YAXPAPAVTM_World@0@PBDI@Z 00561b50 f i TeamManager.obj
 0002:000aabb0       ??$OP_DELETE_ARRAY@UJoinRequestHelper@TM_World@VENet@@@VENet@@YAXPAUJoinRequestHelper@TM_World@0@PBDI@Z 00561bb0 f i TeamManager.obj
 0002:000aac10       ??$OP_DELETE_ARRAY@URequestedTeam@TM_TeamMember@VENet@@@VENet@@YAXPAURequestedTeam@TM_TeamMember@0@PBDI@Z 00561c10 f i TeamManager.obj
 0002:000aac70       ??$OP_NEW@VTM_Team@VENet@@@VENet@@YAPAVTM_Team@0@PBDI@Z 00561c70 f i TeamManager.obj
 0002:000aad50       ??$OP_NEW@VTM_TeamMember@VENet@@@VENet@@YAPAVTM_TeamMember@0@PBDI@Z 00561d50 f i TeamManager.obj
 0002:000aae30       ??$OP_NEW@VTM_World@VENet@@@VENet@@YAPAVTM_World@0@PBDI@Z 00561e30 f i TeamManager.obj
 0002:000aaf10       ??$OP_NEW@VTeamManager@VENet@@@VENet@@YAPAVTeamManager@0@PBDI@Z 00561f10 f i TeamManager.obj
 0002:000ab000       ??$OP_NEW_2@UNode@?$Hash@_KPAVTM_Team@VENet@@$0BAA@$1?ToUint32@12@SAKAB_K@Z@DataStructures@@_KPAVTM_Team@VENet@@@VENet@@YAPAUNode@?$Hash@_KPAVTM_Team@VENet@@$0BAA@$1?ToUint32@12@SAKAB_K@Z@DataStructures@@PBDIAB_KABQAVTM_Team@0@@Z 00562000 f i TeamManager.obj
 0002:000ab0f0       ??$OP_NEW_2@UNode@?$Hash@_KPAVTM_TeamMember@VENet@@$0BAA@$1?ToUint32@12@SAKAB_K@Z@DataStructures@@_KPAVTM_TeamMember@VENet@@@VENet@@YAPAUNode@?$Hash@_KPAVTM_TeamMember@VENet@@$0BAA@$1?ToUint32@12@SAKAB_K@Z@DataStructures@@PBDIAB_KABQAVTM_TeamMember@0@@Z 005620f0 f i TeamManager.obj
 0002:000ab1e0       ??$OP_NEW_ARRAY@PAUNode@?$Hash@_KPAVTM_Team@VENet@@$0BAA@$1?ToUint32@12@SAKAB_K@Z@DataStructures@@@VENet@@YAPAPAUNode@?$Hash@_KPAVTM_Team@VENet@@$0BAA@$1?ToUint32@12@SAKAB_K@Z@DataStructures@@HPBDI@Z 005621e0 f i TeamManager.obj
 0002:000ab260       ??$OP_NEW_ARRAY@PAUNode@?$Hash@_KPAVTM_TeamMember@VENet@@$0BAA@$1?ToUint32@12@SAKAB_K@Z@DataStructures@@@VENet@@YAPAPAUNode@?$Hash@_KPAVTM_TeamMember@VENet@@$0BAA@$1?ToUint32@12@SAKAB_K@Z@DataStructures@@HPBDI@Z 00562260 f i TeamManager.obj
 0002:000ab2e0       ??$OP_NEW_ARRAY@PAVTM_Team@VENet@@@VENet@@YAPAPAVTM_Team@0@HPBDI@Z 005622e0 f i TeamManager.obj
 0002:000ab360       ??$OP_NEW_ARRAY@PAVTM_TeamMember@VENet@@@VENet@@YAPAPAVTM_TeamMember@0@HPBDI@Z 00562360 f i TeamManager.obj
 0002:000ab3e0       ??$OP_NEW_ARRAY@PAVTM_World@VENet@@@VENet@@YAPAPAVTM_World@0@HPBDI@Z 005623e0 f i TeamManager.obj
 0002:000ab460       ??$OP_NEW_ARRAY@UJoinRequestHelper@TM_World@VENet@@@VENet@@YAPAUJoinRequestHelper@TM_World@0@HPBDI@Z 00562460 f i TeamManager.obj
 0002:000ab4e0       ??$OP_NEW_ARRAY@URequestedTeam@TM_TeamMember@VENet@@@VENet@@YAPAURequestedTeam@TM_TeamMember@0@HPBDI@Z 005624e0 f i TeamManager.obj
 0002:000ab560       ??$Read@W4JoinTeamType@VENet@@@BitStream@VENet@@QAE_NAAW4JoinTeamType@1@@Z 00562560 f i TeamManager.obj
 0002:000ab670       ??$Write@W4JoinTeamType@VENet@@@BitStream@VENet@@QAEXABW4JoinTeamType@1@@Z 00562670 f i TeamManager.obj
 0002:000ab760       ??$WriteCasted@EW4DefaultMessageIDTypes@@@BitStream@VENet@@QAEXABW4DefaultMessageIDTypes@@@Z 00562760 f i TeamManager.obj
 0002:000ab800       ??$WriteCasted@EW4TeamManagerOperations@@@BitStream@VENet@@QAEXABW4TeamManagerOperations@@@Z 00562800 f i TeamManager.obj
 0002:000ab8a0       ??0?$Hash@_KPAVTM_Team@VENet@@$0BAA@$1?ToUint32@12@SAKAB_K@Z@DataStructures@@QAE@XZ 005628a0 f i TeamManager.obj
 0002:000ab8f0       ??0?$Hash@_KPAVTM_TeamMember@VENet@@$0BAA@$1?ToUint32@12@SAKAB_K@Z@DataStructures@@QAE@XZ 005628f0 f i TeamManager.obj
 0002:000ab940       ??0?$List@PAVTM_Team@VENet@@@DataStructures@@QAE@ABV01@@Z 00562940 f i TeamManager.obj
 0002:000aba40       ??0?$List@PAVTM_Team@VENet@@@DataStructures@@QAE@XZ 00562a40 f i TeamManager.obj
 0002:000abaa0       ??0?$List@PAVTM_TeamMember@VENet@@@DataStructures@@QAE@XZ 00562aa0 f i TeamManager.obj
 0002:000abb00       ??0?$List@PAVTM_World@VENet@@@DataStructures@@QAE@XZ 00562b00 f i TeamManager.obj
 0002:000abb60       ??0?$List@UJoinRequestHelper@TM_World@VENet@@@DataStructures@@QAE@XZ 00562b60 f i TeamManager.obj
 0002:000abbc0       ??0?$List@URequestedTeam@TM_TeamMember@VENet@@@DataStructures@@QAE@XZ 00562bc0 f i TeamManager.obj
 0002:000abc20       ??0?$OrderedList@UJoinRequestHelper@TM_World@VENet@@U123@$1?JoinRequestHelperComp@23@SAHABU123@0@Z@DataStructures@@QAE@XZ 00562c20 f i TeamManager.obj
 0002:000abc80       ??0Node@?$Hash@_KPAVTM_Team@VENet@@$0BAA@$1?ToUint32@12@SAKAB_K@Z@DataStructures@@QAE@_KABQAVTM_Team@VENet@@@Z 00562c80 f i TeamManager.obj
 0002:000abce0       ??0Node@?$Hash@_KPAVTM_TeamMember@VENet@@$0BAA@$1?ToUint32@12@SAKAB_K@Z@DataStructures@@QAE@_KABQAVTM_TeamMember@VENet@@@Z 00562ce0 f i TeamManager.obj
 0002:000abd40       ??0TM_Team@VENet@@QAE@XZ   00562d40 f   TeamManager.obj
 0002:000abdf0       ??0TM_TeamMember@VENet@@QAE@XZ 00562df0 f   TeamManager.obj
 0002:000abef0       ??0TM_World@VENet@@QAE@XZ  00562ef0 f   TeamManager.obj
 0002:000ac040       ??0TeamManager@VENet@@QAE@XZ 00563040 f   TeamManager.obj
 0002:000ac150       ??0TeamSelection@VENet@@QAE@W4JoinTeamType@1@@Z 00563150 f   TeamManager.obj
 0002:000ac1a0       ??0TeamSelection@VENet@@QAE@W4JoinTeamType@1@E@Z 005631a0 f   TeamManager.obj
 0002:000ac1f0       ??0TeamSelection@VENet@@QAE@W4JoinTeamType@1@PAVTM_Team@1@@Z 005631f0 f   TeamManager.obj
 0002:000ac240       ??0TeamSelection@VENet@@QAE@XZ 00563240 f   TeamManager.obj
 0002:000ac280       ??1?$Hash@_KPAVTM_Team@VENet@@$0BAA@$1?ToUint32@12@SAKAB_K@Z@DataStructures@@QAE@XZ 00563280 f i TeamManager.obj
 0002:000ac2e0       ??1?$Hash@_KPAVTM_TeamMember@VENet@@$0BAA@$1?ToUint32@12@SAKAB_K@Z@DataStructures@@QAE@XZ 005632e0 f i TeamManager.obj
 0002:000ac340       ??1?$List@PAVTM_Team@VENet@@@DataStructures@@QAE@XZ 00563340 f i TeamManager.obj
 0002:000ac3b0       ??1?$List@PAVTM_TeamMember@VENet@@@DataStructures@@QAE@XZ 005633b0 f i TeamManager.obj
 0002:000ac420       ??1?$List@PAVTM_World@VENet@@@DataStructures@@QAE@XZ 00563420 f i TeamManager.obj
 0002:000ac490       ??1?$List@UJoinRequestHelper@TM_World@VENet@@@DataStructures@@QAE@XZ 00563490 f i TeamManager.obj
 0002:000ac500       ??1?$List@URequestedTeam@TM_TeamMember@VENet@@@DataStructures@@QAE@XZ 00563500 f i TeamManager.obj
 0002:000ac570       ??1?$OrderedList@UJoinRequestHelper@TM_World@VENet@@U123@$1?JoinRequestHelperComp@23@SAHABU123@0@Z@DataStructures@@QAE@XZ 00563570 f i TeamManager.obj
 0002:000ac620       ??1TM_Team@VENet@@UAE@XZ   00563620 f   TeamManager.obj
 0002:000ac6f0       ??1TM_TeamMember@VENet@@UAE@XZ 005636f0 f   TeamManager.obj
 0002:000ac7e0       ??1TM_World@VENet@@UAE@XZ  005637e0 f   TeamManager.obj
 0002:000ac8e0       ??1TeamManager@VENet@@UAE@XZ 005638e0 f   TeamManager.obj
 0002:000ac9a0       ??4?$List@PAVTM_Team@VENet@@@DataStructures@@QAEAAV01@ABV01@@Z 005639a0 f i TeamManager.obj
 0002:000acac0       ??4?$List@PAVTM_TeamMember@VENet@@@DataStructures@@QAEAAV01@ABV01@@Z 00563ac0 f i TeamManager.obj
 0002:000acbe0       ??4?$List@UVENetGUID@VENet@@@DataStructures@@QAEAAV01@ABV01@@Z 00563be0 f i TeamManager.obj
 0002:000acd00       ??A?$List@PAVTM_Team@VENet@@@DataStructures@@QBEAAPAVTM_Team@VENet@@I@Z 00563d00 f i TeamManager.obj
 0002:000acda0       ??A?$List@PAVTM_TeamMember@VENet@@@DataStructures@@QBEAAPAVTM_TeamMember@VENet@@I@Z 00563da0 f i TeamManager.obj
 0002:000ace40       ??A?$List@PAVTM_World@VENet@@@DataStructures@@QBEAAPAVTM_World@VENet@@I@Z 00563e40 f i TeamManager.obj
 0002:000acee0       ??A?$List@UJoinRequestHelper@TM_World@VENet@@@DataStructures@@QBEAAUJoinRequestHelper@TM_World@VENet@@I@Z 00563ee0 f i TeamManager.obj
 0002:000acf80       ??A?$List@URequestedTeam@TM_TeamMember@VENet@@@DataStructures@@QBEAAURequestedTeam@TM_TeamMember@VENet@@I@Z 00563f80 f i TeamManager.obj
 0002:000ad020       ??A?$OrderedList@UJoinRequestHelper@TM_World@VENet@@U123@$1?JoinRequestHelperComp@23@SAHABU123@0@Z@DataStructures@@QBEAAUJoinRequestHelper@TM_World@VENet@@I@Z 00564020 f i TeamManager.obj
 0002:000ad080       ??_ETM_Team@VENet@@UAEPAXI@Z 00564080 f i TeamManager.obj
 0002:000ad080       ??_GTM_Team@VENet@@UAEPAXI@Z 00564080 f i TeamManager.obj
 0002:000ad0f0       ??_GTM_TeamMember@VENet@@UAEPAXI@Z 005640f0 f i TeamManager.obj
 0002:000ad0f0       ??_ETM_TeamMember@VENet@@UAEPAXI@Z 005640f0 f i TeamManager.obj
 0002:000ad160       ??_GTM_World@VENet@@UAEPAXI@Z 00564160 f i TeamManager.obj
 0002:000ad160       ??_ETM_World@VENet@@UAEPAXI@Z 00564160 f i TeamManager.obj
 0002:000ad1d0       ??_ETeamManager@VENet@@UAEPAXI@Z 005641d0 f i TeamManager.obj
 0002:000ad1d0       ??_GTeamManager@VENet@@UAEPAXI@Z 005641d0 f i TeamManager.obj
 0002:000ad240       ?AddParticipant@TM_World@VENet@@QAEXUVENetGUID@2@@Z 00564240 f   TeamManager.obj
 0002:000ad460       ?AddToRequestedTeams@TM_TeamMember@VENet@@IAEXPAVTM_Team@2@0@Z 00564460 f   TeamManager.obj
 0002:000ad560       ?AddToRequestedTeams@TM_TeamMember@VENet@@IAEXPAVTM_Team@2@@Z 00564560 f   TeamManager.obj
 0002:000ad660       ?AddToTeamList@TM_TeamMember@VENet@@IAEXPAVTM_Team@2@@Z 00564660 f   TeamManager.obj
 0002:000ad700       ?AddWorld@TeamManager@VENet@@QAEPAVTM_World@2@E@Z 00564700 f   TeamManager.obj
 0002:000ad870       ?AnyAvailable@TeamSelection@VENet@@SA?AU12@XZ 00564870 f   TeamManager.obj
 0002:000ad8c0       ?BroadcastToParticipants@TM_World@VENet@@IAEXPAEHUVENetGUID@2@@Z 005648c0 f   TeamManager.obj
 0002:000ad9b0       ?BroadcastToParticipants@TM_World@VENet@@IAEXPAVBitStream@2@UVENetGUID@2@@Z 005649b0 f   TeamManager.obj
 0002:000ada90       ?CancelTeamRequest@TM_TeamMember@VENet@@QAE_NPAVTM_Team@2@@Z 00564a90 f   TeamManager.obj
 0002:000add00       ?Clear@?$Hash@_KPAVTM_Team@VENet@@$0BAA@$1?ToUint32@12@SAKAB_K@Z@DataStructures@@QAEXPBDI@Z 00564d00 f i TeamManager.obj
 0002:000addd0       ?Clear@?$Hash@_KPAVTM_TeamMember@VENet@@$0BAA@$1?ToUint32@12@SAKAB_K@Z@DataStructures@@QAEXPBDI@Z 00564dd0 f i TeamManager.obj
 0002:000adea0       ?Clear@?$List@PAVTM_Team@VENet@@@DataStructures@@QAEX_NPBDI@Z 00564ea0 f i TeamManager.obj
 0002:000adf50       ?Clear@?$List@PAVTM_TeamMember@VENet@@@DataStructures@@QAEX_NPBDI@Z 00564f50 f i TeamManager.obj
 0002:000ae000       ?Clear@?$List@PAVTM_World@VENet@@@DataStructures@@QAEX_NPBDI@Z 00565000 f i TeamManager.obj
 0002:000ae0b0       ?Clear@?$List@UJoinRequestHelper@TM_World@VENet@@@DataStructures@@QAEX_NPBDI@Z 005650b0 f i TeamManager.obj
 0002:000ae160       ?Clear@?$List@URequestedTeam@TM_TeamMember@VENet@@@DataStructures@@QAEX_NPBDI@Z 00565160 f i TeamManager.obj
 0002:000ae210       ?Clear@?$OrderedList@UJoinRequestHelper@TM_World@VENet@@U123@$1?JoinRequestHelperComp@23@SAHABU123@0@Z@DataStructures@@QAEX_NPBDI@Z 00565210 f i TeamManager.obj
 0002:000ae280       ?Clear@TM_World@VENet@@QAEXXZ 00565280 f   TeamManager.obj
 0002:000ae3c0       ?Clear@TeamManager@VENet@@QAEXXZ 005653c0 f   TeamManager.obj
 0002:000ae530       ?ClearIndex@?$Hash@_KPAVTM_Team@VENet@@$0BAA@$1?ToUint32@12@SAKAB_K@Z@DataStructures@@IAEXIPBDI@Z 00565530 f i TeamManager.obj
 0002:000ae5f0       ?ClearIndex@?$Hash@_KPAVTM_TeamMember@VENet@@$0BAA@$1?ToUint32@12@SAKAB_K@Z@DataStructures@@IAEXIPBDI@Z 005655f0 f i TeamManager.obj
 0002:000ae6b0       ?DecodeTeamAssigned@TeamManager@VENet@@IAEXPAVBitStream@2@PAPAVTM_World@2@PAPAVTM_TeamMember@2@AAEAAW4JoinTeamType@2@AAV?$List@PAVTM_Team@VENet@@@DataStructures@@55@Z 005656b0 f   TeamManager.obj
 0002:000aea80       ?DecodeTeamAssigned@TeamManager@VENet@@QAEXPAUPacket@2@PAPAVTM_World@2@PAPAVTM_TeamMember@2@@Z 00565a80 f   TeamManager.obj
 0002:000aec40       ?DecodeTeamCancelled@TeamManager@VENet@@QAEXPAUPacket@2@PAPAVTM_World@2@PAPAVTM_TeamMember@2@PAPAVTM_Team@2@@Z 00565c40 f   TeamManager.obj
 0002:000aeea0       ?DecomposeTeamFull@TeamManager@VENet@@QAEXPAUPacket@2@PAPAVTM_World@2@PAPAVTM_TeamMember@2@PAPAVTM_Team@2@AAG4AA_NAAE@Z 00565ea0 f   TeamManager.obj
 0002:000aeff0       ?DecomposeTeamFullOrLocked@TeamManager@VENet@@IAEXPAVBitStream@2@PAPAVTM_World@2@PAPAVTM_TeamMember@2@PAPAVTM_Team@2@AAG4AA_NAAE@Z 00565ff0 f   TeamManager.obj
 0002:000af190       ?DecomposeTeamLocked@TeamManager@VENet@@QAEXPAUPacket@2@PAPAVTM_World@2@PAPAVTM_TeamMember@2@PAPAVTM_Team@2@AAG4AA_NAAE@Z 00566190 f   TeamManager.obj
 0002:000af2e0       ?DereferenceTeam@TM_World@VENet@@QAEXPAVTM_Team@2@E@Z 005662e0 f   TeamManager.obj
 0002:000af430       ?DereferenceTeamMember@TM_World@VENet@@QAEXPAVTM_TeamMember@2@@Z 00566430 f   TeamManager.obj
 0002:000af540       ?DeserializeConstruction@TM_Team@VENet@@QAE_NPAVTeamManager@2@PAVBitStream@2@@Z 00566540 f   TeamManager.obj
 0002:000af6e0       ?DeserializeConstruction@TM_TeamMember@VENet@@QAE_NPAVTeamManager@2@PAVBitStream@2@@Z 005666e0 f   TeamManager.obj
 0002:000afaf0       ?DestroyInstance@TM_Team@VENet@@SAXPAV12@@Z 00566af0 f   TeamManager.obj
 0002:000afb50       ?DestroyInstance@TM_TeamMember@VENet@@SAXPAV12@@Z 00566b50 f   TeamManager.obj
 0002:000afbb0       ?DestroyInstance@TeamManager@VENet@@SAXPAV12@@Z 00566bb0 f   TeamManager.obj
 0002:000afc10       ?EncodeTeamAssigned@TeamManager@VENet@@IAEXPAVBitStream@2@PAVTM_TeamMember@2@@Z 00566c10 f   TeamManager.obj
 0002:000afd70       ?EncodeTeamFull@TeamManager@VENet@@IAEXPAVBitStream@2@PAVTM_TeamMember@2@PAVTM_Team@2@@Z 00566d70 f   TeamManager.obj
 0002:000afdf0       ?EncodeTeamFullOrLocked@TeamManager@VENet@@IAEXPAVBitStream@2@PAVTM_TeamMember@2@PAVTM_Team@2@@Z 00566df0 f   TeamManager.obj
 0002:000aff50       ?EncodeTeamLocked@TeamManager@VENet@@IAEXPAVBitStream@2@PAVTM_TeamMember@2@PAVTM_Team@2@@Z 00566f50 f   TeamManager.obj
 0002:000affd0       ?EnforceTeamBalance@TM_World@VENet@@IAEXE@Z 00566fd0 f   TeamManager.obj
 0002:000b00a0       ?FillRequestedSlots@TM_World@VENet@@IAEXXZ 005670a0 f   TeamManager.obj
 0002:000b0910       ?GetAvailableTeamIndexWithFewestMembers@TM_World@VENet@@IAEIGE@Z 00567910 f   TeamManager.obj
 0002:000b0a80       ?GetBalanceTeams@TM_World@VENet@@QBE_NXZ 00567a80 f   TeamManager.obj
 0002:000b0ac0       ?GetBalancedTeamLimit@TM_World@VENet@@IBEGXZ 00567ac0 f   TeamManager.obj
 0002:000b0cf0       ?GetBalancingApplies@TM_Team@VENet@@QBE_NXZ 00567cf0 f   TeamManager.obj
 0002:000b0d30       ?GetCurrentTeam@TM_TeamMember@VENet@@QBEPAVTM_Team@2@XZ 00567d30 f   TeamManager.obj
 0002:000b0da0       ?GetCurrentTeamByIndex@TM_TeamMember@VENet@@QAEPAVTM_Team@2@I@Z 00567da0 f   TeamManager.obj
 0002:000b0e00       ?GetCurrentTeamCount@TM_TeamMember@VENet@@QBEIXZ 00567e00 f   TeamManager.obj
 0002:000b0e60       ?GetCurrentTeams@TM_TeamMember@VENet@@QBEXAAV?$List@PAVTM_Team@VENet@@@DataStructures@@@Z 00567e60 f   TeamManager.obj
 0002:000b0ec0       ?GetHost@TM_World@VENet@@QBE?AUVENetGUID@2@XZ 00567ec0 f   TeamManager.obj
 0002:000b0f30       ?GetIndexFromKey@?$OrderedList@UJoinRequestHelper@TM_World@VENet@@U123@$1?JoinRequestHelperComp@23@SAHABU123@0@Z@DataStructures@@QBEIABUJoinRequestHelper@TM_World@VENet@@PA_NP6AH00@Z@Z 00567f30 f i TeamManager.obj
 0002:000b1070       ?GetIndexOf@?$Hash@_KPAVTM_Team@VENet@@$0BAA@$1?ToUint32@12@SAKAB_K@Z@DataStructures@@QAE?AUHashIndex@2@_K@Z 00568070 f i TeamManager.obj
 0002:000b1220       ?GetIndexOf@?$Hash@_KPAVTM_TeamMember@VENet@@$0BAA@$1?ToUint32@12@SAKAB_K@Z@DataStructures@@QAE?AUHashIndex@2@_K@Z 00568220 f i TeamManager.obj
 0002:000b13d0       ?GetIndexOf@?$List@PAVTM_Team@VENet@@@DataStructures@@QBEIABQAVTM_Team@VENet@@@Z 005683d0 f i TeamManager.obj
 0002:000b1450       ?GetIndexOf@?$List@PAVTM_TeamMember@VENet@@@DataStructures@@QBEIABQAVTM_TeamMember@VENet@@@Z 00568450 f i TeamManager.obj
 0002:000b14d0       ?GetIndexOf@?$List@UVENetGUID@VENet@@@DataStructures@@QBEIABUVENetGUID@VENet@@@Z 005684d0 f i TeamManager.obj
 0002:000b1570       ?GetInstance@TM_Team@VENet@@SAPAV12@XZ 00568570 f   TeamManager.obj
 0002:000b15d0       ?GetInstance@TM_TeamMember@VENet@@SAPAV12@XZ 005685d0 f   TeamManager.obj
 0002:000b1630       ?GetInstance@TeamManager@VENet@@SAPAV12@XZ 00568630 f   TeamManager.obj
 0002:000b1690       ?GetJoinPermissions@TM_Team@VENet@@QBEEXZ 00568690 f   TeamManager.obj
 0002:000b16d0       ?GetLastTeams@TM_TeamMember@VENet@@QBEXAAV?$List@PAVTM_Team@VENet@@@DataStructures@@@Z 005686d0 f   TeamManager.obj
 0002:000b1730       ?GetMemberLimit@TM_Team@VENet@@QBEGXZ 00568730 f   TeamManager.obj
 0002:000b17d0       ?GetMemberLimitSetting@TM_Team@VENet@@QBEGXZ 005687d0 f   TeamManager.obj
 0002:000b1810       ?GetMemberWithRequestedSingleTeamSwitch@TM_Team@VENet@@IAEIPAV12@@Z 00568810 f   TeamManager.obj
 0002:000b19a0       ?GetNetworkID@TM_Team@VENet@@QBE_KXZ 005689a0 f   TeamManager.obj
 0002:000b19e0       ?GetNetworkID@TM_TeamMember@VENet@@QBE_KXZ 005689e0 f   TeamManager.obj
 0002:000b1a20       ?GetNoTeamId@TM_TeamMember@VENet@@QBEEXZ 00568a20 f   TeamManager.obj
 0002:000b1a60       ?GetOwner@TM_Team@VENet@@QBEPAXXZ 00568a60 f   TeamManager.obj
 0002:000b1aa0       ?GetOwner@TM_TeamMember@VENet@@QBEPAXXZ 00568aa0 f   TeamManager.obj
 0002:000b1ae0       ?GetParticipantList@TM_World@VENet@@QAEXAAV?$List@UVENetGUID@VENet@@@DataStructures@@@Z 00568ae0 f   TeamManager.obj
 0002:000b1b40       ?GetRequestedSpecificTeams@TM_TeamMember@VENet@@QBEXAAV?$List@PAVTM_Team@VENet@@@DataStructures@@@Z 00568b40 f   TeamManager.obj
 0002:000b1c10       ?GetRequestedTeam@TM_TeamMember@VENet@@QBE?AUTeamSelection@2@XZ 00568c10 f   TeamManager.obj
 0002:000b1ce0       ?GetRequestedTeamCount@TM_TeamMember@VENet@@QBEIXZ 00568ce0 f   TeamManager.obj
 0002:000b1d40       ?GetRequestedTeamIndex@TM_TeamMember@VENet@@QBEIPAVTM_Team@2@@Z 00568d40 f   TeamManager.obj
 0002:000b1de0       ?GetSortedJoinRequests@TM_World@VENet@@IAEXAAV?$OrderedList@UJoinRequestHelper@TM_World@VENet@@U123@$1?JoinRequestHelperComp@23@SAHABU123@0@Z@DataStructures@@@Z 00568de0 f   TeamManager.obj
 0002:000b2000       ?GetTM_World@TM_Team@VENet@@QBEPAVTM_World@2@XZ 00569000 f   TeamManager.obj
 0002:000b2040       ?GetTM_World@TM_TeamMember@VENet@@QBEPAVTM_World@2@XZ 00569040 f   TeamManager.obj
 0002:000b2080       ?GetTeamByIndex@TM_World@VENet@@QBEPAVTM_Team@2@I@Z 00569080 f   TeamManager.obj
 0002:000b20e0       ?GetTeamByNetworkID@TM_World@VENet@@QAEPAVTM_Team@2@_K@Z 005690e0 f   TeamManager.obj
 0002:000b21b0       ?GetTeamCount@TM_World@VENet@@QBEIXZ 005691b0 f   TeamManager.obj
 0002:000b2210       ?GetTeamIndex@TM_World@VENet@@QBEIPBVTM_Team@2@@Z 00569210 f   TeamManager.obj
 0002:000b22b0       ?GetTeamManager@TM_World@VENet@@QBEPAVTeamManager@2@XZ 005692b0 f   TeamManager.obj
 0002:000b22f0       ?GetTeamMemberByIndex@TM_Team@VENet@@QBEPAVTM_TeamMember@2@I@Z 005692f0 f   TeamManager.obj
 0002:000b2350       ?GetTeamMemberByIndex@TM_World@VENet@@QBEPAVTM_TeamMember@2@I@Z 00569350 f   TeamManager.obj
 0002:000b23b0       ?GetTeamMemberByNetworkID@TM_World@VENet@@QAEPAVTM_TeamMember@2@_K@Z 005693b0 f   TeamManager.obj
 0002:000b2480       ?GetTeamMemberCount@TM_World@VENet@@QBEIXZ 00569480 f   TeamManager.obj
 0002:000b24e0       ?GetTeamMemberIDByIndex@TM_World@VENet@@QBE_KI@Z 005694e0 f   TeamManager.obj
 0002:000b2550       ?GetTeamMemberIndex@TM_World@VENet@@QBEIPBVTM_TeamMember@2@@Z 00569550 f   TeamManager.obj
 0002:000b25f0       ?GetTeamMembers@TM_Team@VENet@@QBEXAAV?$List@PAVTM_TeamMember@VENet@@@DataStructures@@@Z 005695f0 f   TeamManager.obj
 0002:000b2650       ?GetTeamMembersCount@TM_Team@VENet@@QBEIXZ 00569650 f   TeamManager.obj
 0002:000b26b0       ?GetWorldAtIndex@TeamManager@VENet@@QBEPAVTM_World@2@I@Z 005696b0 f   TeamManager.obj
 0002:000b2710       ?GetWorldCount@TeamManager@VENet@@QBEIXZ 00569710 f   TeamManager.obj
 0002:000b2770       ?GetWorldId@TM_World@VENet@@QBEEXZ 00569770 f   TeamManager.obj
 0002:000b27b0       ?GetWorldIndex@TM_Team@VENet@@QBEIXZ 005697b0 f   TeamManager.obj
 0002:000b2810       ?GetWorldIndex@TM_TeamMember@VENet@@QBEIXZ 00569810 f   TeamManager.obj
 0002:000b2870       ?GetWorldWithId@TeamManager@VENet@@QBEPAVTM_World@2@E@Z 00569870 f   TeamManager.obj
 0002:000b28c0       ?HasRequestedTeam@TM_TeamMember@VENet@@QBE_NPAVTM_Team@2@@Z 005698c0 f   TeamManager.obj
 0002:000b2930       ?Insert@?$List@PAVTM_Team@VENet@@@DataStructures@@QAEXABQAVTM_Team@VENet@@PBDI@Z 00569930 f i TeamManager.obj
 0002:000b2a80       ?Insert@?$List@PAVTM_TeamMember@VENet@@@DataStructures@@QAEXABQAVTM_TeamMember@VENet@@PBDI@Z 00569a80 f i TeamManager.obj
 0002:000b2bd0       ?Insert@?$List@PAVTM_World@VENet@@@DataStructures@@QAEXABQAVTM_World@VENet@@PBDI@Z 00569bd0 f i TeamManager.obj
 0002:000b2d20       ?Insert@?$List@UJoinRequestHelper@TM_World@VENet@@@DataStructures@@QAEXABUJoinRequestHelper@TM_World@VENet@@IPBDI@Z 00569d20 f i TeamManager.obj
 0002:000b2f70       ?Insert@?$List@UJoinRequestHelper@TM_World@VENet@@@DataStructures@@QAEXABUJoinRequestHelper@TM_World@VENet@@PBDI@Z 00569f70 f i TeamManager.obj
 0002:000b3110       ?Insert@?$List@URequestedTeam@TM_TeamMember@VENet@@@DataStructures@@QAEXABURequestedTeam@TM_TeamMember@VENet@@PBDI@Z 0056a110 f i TeamManager.obj
 0002:000b32b0       ?Insert@?$OrderedList@UJoinRequestHelper@TM_World@VENet@@U123@$1?JoinRequestHelperComp@23@SAHABU123@0@Z@DataStructures@@QAEIABUJoinRequestHelper@TM_World@VENet@@0_NPBDIP6AH00@Z@Z 0056a2b0 f i TeamManager.obj
 0002:000b3400       ?IsOnTeam@TM_TeamMember@VENet@@QBE_NPAVTM_Team@2@@Z 0056a400 f   TeamManager.obj
 0002:000b34a0       ?ItemAtIndex@?$Hash@_KPAVTM_Team@VENet@@$0BAA@$1?ToUint32@12@SAKAB_K@Z@DataStructures@@QAEAAPAVTM_Team@VENet@@ABUHashIndex@2@@Z 0056a4a0 f i TeamManager.obj
 0002:000b35a0       ?ItemAtIndex@?$Hash@_KPAVTM_TeamMember@VENet@@$0BAA@$1?ToUint32@12@SAKAB_K@Z@DataStructures@@QAEAAPAVTM_TeamMember@VENet@@ABUHashIndex@2@@Z 0056a5a0 f i TeamManager.obj
 0002:000b36a0       ?JoinAnyTeam@TM_World@VENet@@IAEPAVTM_Team@2@PAVTM_TeamMember@2@PAH@Z 0056a6a0 f   TeamManager.obj
 0002:000b38a0       ?JoinAnyTeamCheck@TM_TeamMember@VENet@@IBE_NXZ 0056a8a0 f   TeamManager.obj
 0002:000b3930       ?JoinRequestHelperComp@TM_World@VENet@@SAHABUJoinRequestHelper@12@0@Z 0056a930 f   TeamManager.obj
 0002:000b3a40       ?JoinSpecificTeam@TM_World@VENet@@IAEHPAVTM_TeamMember@2@PAVTM_Team@2@_N1AAV?$List@PAVTM_Team@VENet@@@DataStructures@@@Z 0056aa40 f   TeamManager.obj
 0002:000b3d30       ?JoinSpecificTeamCheck@TM_TeamMember@VENet@@IBE_NPAVTM_Team@2@_N@Z 0056ad30 f   TeamManager.obj
 0002:000b3e20       ?KickExcessMembers@TM_World@VENet@@IAEXE@Z 0056ae20 f   TeamManager.obj
 0002:000b4290       ?LeaveAllTeams@TM_TeamMember@VENet@@QAE_NE@Z 0056b290 f   TeamManager.obj
 0002:000b4310       ?LeaveTeam@TM_Team@VENet@@QAEXPAVTM_TeamMember@2@E@Z 0056b310 f   TeamManager.obj
 0002:000b4370       ?LeaveTeam@TM_TeamMember@VENet@@QAE_NPAVTM_Team@2@E@Z 0056b370 f   TeamManager.obj
 0002:000b4660       ?LeaveTeamCheck@TM_TeamMember@VENet@@IBE_NPAVTM_Team@2@@Z 0056b660 f   TeamManager.obj
 0002:000b46d0       ?NoTeam@TeamSelection@VENet@@SA?AU12@E@Z 0056b6d0 f   TeamManager.obj
 0002:000b4730       ?OnAddToRequestedTeams@TeamManager@VENet@@IAEXPAUPacket@2@PAVTM_World@2@@Z 0056b730 f   TeamManager.obj
 0002:000b4a90       ?OnClosedConnection@TM_World@VENet@@MAEXABUSystemAddress@2@UVENetGUID@2@W4PI2_LostConnectionReason@2@@Z 0056ba90 f   TeamManager.obj
 0002:000b4b10       ?OnClosedConnection@TeamManager@VENet@@MAEXABUSystemAddress@2@UVENetGUID@2@W4PI2_LostConnectionReason@2@@Z 0056bb10 f   TeamManager.obj
 0002:000b4c00       ?OnJoinAnyTeam@TeamManager@VENet@@IAEXPAUPacket@2@PAVTM_World@2@@Z 0056bc00 f   TeamManager.obj
 0002:000b5250       ?OnJoinRequestedTeam@TeamManager@VENet@@IAEXPAUPacket@2@PAVTM_World@2@@Z 0056c250 f   TeamManager.obj
 0002:000b5ce0       ?OnLeaveTeam@TeamManager@VENet@@IAEXPAUPacket@2@PAVTM_World@2@@Z 0056cce0 f   TeamManager.obj
 0002:000b6050       ?OnNewConnection@TM_World@VENet@@MAEXABUSystemAddress@2@UVENetGUID@2@_N@Z 0056d050 f   TeamManager.obj
 0002:000b60e0       ?OnNewConnection@TeamManager@VENet@@MAEXABUSystemAddress@2@UVENetGUID@2@_N@Z 0056d0e0 f   TeamManager.obj
 0002:000b61d0       ?OnReceive@TeamManager@VENet@@MAE?AW4PluginReceiveResult@2@PAUPacket@2@@Z 0056d1d0 f   TeamManager.obj
 0002:000b6840       ?OnRemoveFromRequestedTeams@TeamManager@VENet@@IAE_NPAUPacket@2@PAVTM_World@2@@Z 0056d840 f   TeamManager.obj
 0002:000b6bb0       ?OnRemoveFromTeamsRequestedAndAddTeam@TeamManager@VENet@@IAEXPAUPacket@2@PAVTM_World@2@@Z 0056dbb0 f   TeamManager.obj
 0002:000b6f20       ?OnSetBalanceTeams@TeamManager@VENet@@IAEXPAUPacket@2@PAVTM_World@2@@Z 0056df20 f   TeamManager.obj
 0002:000b71f0       ?OnSetBalanceTeamsInitial@TeamManager@VENet@@IAEXPAUPacket@2@PAVTM_World@2@@Z 0056e1f0 f   TeamManager.obj
 0002:000b7350       ?OnSetJoinPermissions@TeamManager@VENet@@IAEXPAUPacket@2@PAVTM_World@2@@Z 0056e350 f   TeamManager.obj
 0002:000b7630       ?OnSetMemberLimit@TeamManager@VENet@@IAEXPAUPacket@2@PAVTM_World@2@@Z 0056e630 f   TeamManager.obj
 0002:000b7950       ?OnUpdateListsToNoTeam@TeamManager@VENet@@IAEXPAUPacket@2@PAVTM_World@2@@Z 0056e950 f   TeamManager.obj
 0002:000b7bf0       ?OnUpdateTeamsRequestedToAny@TeamManager@VENet@@IAEXPAUPacket@2@PAVTM_World@2@@Z 0056ebf0 f   TeamManager.obj
 0002:000b7d70       ?OnUpdateTeamsRequestedToNoneAndAddTeam@TeamManager@VENet@@IAEXPAUPacket@2@PAVTM_World@2@@Z 0056ed70 f   TeamManager.obj
 0002:000b7fa0       ?ProcessTeamAssigned@TeamManager@VENet@@IAEXPAVBitStream@2@@Z 0056efa0 f   TeamManager.obj
 0002:000b82c0       ?Push@?$Hash@_KPAVTM_Team@VENet@@$0BAA@$1?ToUint32@12@SAKAB_K@Z@DataStructures@@QAEX_KABQAVTM_Team@VENet@@PBDI@Z 0056f2c0 f i TeamManager.obj
 0002:000b83d0       ?Push@?$Hash@_KPAVTM_TeamMember@VENet@@$0BAA@$1?ToUint32@12@SAKAB_K@Z@DataStructures@@QAEX_KABQAVTM_TeamMember@VENet@@PBDI@Z 0056f3d0 f i TeamManager.obj
 0002:000b84e0       ?Push@?$List@PAVTM_Team@VENet@@@DataStructures@@QAEXABQAVTM_Team@VENet@@PBDI@Z 0056f4e0 f i TeamManager.obj
 0002:000b8540       ?Push@?$List@PAVTM_TeamMember@VENet@@@DataStructures@@QAEXABQAVTM_TeamMember@VENet@@PBDI@Z 0056f540 f i TeamManager.obj
 0002:000b85a0       ?Push@?$List@PAVTM_World@VENet@@@DataStructures@@QAEXABQAVTM_World@VENet@@PBDI@Z 0056f5a0 f i TeamManager.obj
 0002:000b8600       ?Push@?$List@URequestedTeam@TM_TeamMember@VENet@@@DataStructures@@QAEXABURequestedTeam@TM_TeamMember@VENet@@PBDI@Z 0056f600 f i TeamManager.obj
 0002:000b8660       ?PushBitStream@TeamManager@VENet@@IAEXPAVBitStream@2@@Z 0056f660 f   TeamManager.obj
 0002:000b8740       ?PushTeamAssigned@TeamManager@VENet@@IAEXPAVTM_TeamMember@2@@Z 0056f740 f   TeamManager.obj
 0002:000b8890       ?ReferenceTeam@TM_World@VENet@@QAEXPAVTM_Team@2@_K_N@Z 0056f890 f   TeamManager.obj
 0002:000b89d0       ?ReferenceTeamMember@TM_World@VENet@@QAEXPAVTM_TeamMember@2@_K@Z 0056f9d0 f   TeamManager.obj
 0002:000b8ae0       ?Remove@?$Hash@_KPAVTM_Team@VENet@@$0BAA@$1?ToUint32@12@SAKAB_K@Z@DataStructures@@QAE_N_KPBDI@Z 0056fae0 f i TeamManager.obj
 0002:000b8b60       ?Remove@?$Hash@_KPAVTM_TeamMember@VENet@@$0BAA@$1?ToUint32@12@SAKAB_K@Z@DataStructures@@QAE_N_KPBDI@Z 0056fb60 f i TeamManager.obj
 0002:000b8be0       ?RemoveAtIndex@?$Hash@_KPAVTM_Team@VENet@@$0BAA@$1?ToUint32@12@SAKAB_K@Z@DataStructures@@QAE_NUHashIndex@2@PBDI@Z 0056fbe0 f i TeamManager.obj
 0002:000b8d70       ?RemoveAtIndex@?$Hash@_KPAVTM_TeamMember@VENet@@$0BAA@$1?ToUint32@12@SAKAB_K@Z@DataStructures@@QAE_NUHashIndex@2@PBDI@Z 0056fd70 f i TeamManager.obj
 0002:000b8f00       ?RemoveAtIndex@?$List@PAVTM_Team@VENet@@@DataStructures@@QAEXI@Z 0056ff00 f i TeamManager.obj
 0002:000b8ff0       ?RemoveAtIndex@?$List@PAVTM_TeamMember@VENet@@@DataStructures@@QAEXI@Z 0056fff0 f i TeamManager.obj
 0002:000b90e0       ?RemoveAtIndex@?$List@URequestedTeam@TM_TeamMember@VENet@@@DataStructures@@QAEXI@Z 005700e0 f i TeamManager.obj
 0002:000b9200       ?RemoveAtIndex@?$List@UVENetGUID@VENet@@@DataStructures@@QAEXI@Z 00570200 f i TeamManager.obj
 0002:000b9300       ?RemoveAtIndexFast@?$List@PAVTM_Team@VENet@@@DataStructures@@QAEXI@Z 00570300 f i TeamManager.obj
 0002:000b93c0       ?RemoveAtIndexFast@?$List@PAVTM_World@VENet@@@DataStructures@@QAEXI@Z 005703c0 f i TeamManager.obj
 0002:000b9480       ?RemoveFromAllTeamsInternal@TM_TeamMember@VENet@@IAEXXZ 00570480 f   TeamManager.obj
 0002:000b9590       ?RemoveFromEnd@?$List@PAVTM_Team@VENet@@@DataStructures@@QAEXI@Z 00570590 f i TeamManager.obj
 0002:000b9630       ?RemoveFromEnd@?$List@PAVTM_TeamMember@VENet@@@DataStructures@@QAEXI@Z 00570630 f i TeamManager.obj
 0002:000b96d0       ?RemoveFromEnd@?$List@URequestedTeam@TM_TeamMember@VENet@@@DataStructures@@QAEXI@Z 005706d0 f i TeamManager.obj
 0002:000b9770       ?RemoveFromEnd@?$List@UVENetGUID@VENet@@@DataStructures@@QAEXI@Z 00570770 f i TeamManager.obj
 0002:000b9810       ?RemoveFromRequestedTeams@TM_TeamMember@VENet@@IAE_NPAVTM_Team@2@@Z 00570810 f   TeamManager.obj
 0002:000b9920       ?RemoveFromSpecificTeamInternal@TM_TeamMember@VENet@@IAEXPAVTM_Team@2@@Z 00570920 f   TeamManager.obj
 0002:000b9a30       ?RemoveFromTeamMemberList@TM_Team@VENet@@IAEXPAVTM_TeamMember@2@@Z 00570a30 f   TeamManager.obj
 0002:000b9ae0       ?RemoveFromTeamsRequestedAndAddTeam@TeamManager@VENet@@IAEXPAVTM_TeamMember@2@PAVTM_Team@2@_N1@Z 00570ae0 f   TeamManager.obj
 0002:000b9b90       ?RemoveParticipant@TM_World@VENet@@QAEXUVENetGUID@2@@Z 00570b90 f   TeamManager.obj
 0002:000b9c10       ?RemoveWorld@TeamManager@VENet@@QAEXE@Z 00570c10 f   TeamManager.obj
 0002:000b9d60       ?RequestTeam@TM_TeamMember@VENet@@QAE_NUTeamSelection@2@@Z 00570d60 f   TeamManager.obj
 0002:000ba350       ?RequestTeamSwitch@TM_TeamMember@VENet@@QAE_NPAVTM_Team@2@0@Z 00571350 f   TeamManager.obj
 0002:000ba640       ?Send@TeamManager@VENet@@IAEXPBVBitStream@2@UAddressOrGUID@2@_N@Z 00571640 f   TeamManager.obj
 0002:000ba6c0       ?SerializeConstruction@TM_Team@VENet@@QAEXPAVBitStream@2@@Z 005716c0 f   TeamManager.obj
 0002:000ba780       ?SerializeConstruction@TM_TeamMember@VENet@@QAEXPAVBitStream@2@@Z 00571780 f   TeamManager.obj
 0002:000ba9d0       ?SetAutoManageConnections@TM_World@VENet@@QAEX_N@Z 005719d0 f   TeamManager.obj
 0002:000baa20       ?SetAutoManageConnections@TeamManager@VENet@@QAEX_N@Z 00571a20 f   TeamManager.obj
 0002:000baad0       ?SetBalanceTeams@TM_World@VENet@@QAE_N_NE@Z 00571ad0 f   TeamManager.obj
 0002:000bace0       ?SetHost@TM_World@VENet@@QAEXUVENetGUID@2@@Z 00571ce0 f   TeamManager.obj
 0002:000badf0       ?SetJoinPermissions@TM_Team@VENet@@QAE_NE@Z 00571df0 f   TeamManager.obj
 0002:000bb020       ?SetMemberLimit@TM_Team@VENet@@QAE_NGE@Z 00572020 f   TeamManager.obj
 0002:000bb270       ?SetOwner@TM_Team@VENet@@QAEXPAX@Z 00572270 f   TeamManager.obj
 0002:000bb2c0       ?SetOwner@TM_TeamMember@VENet@@QAEXPAX@Z 005722c0 f   TeamManager.obj
 0002:000bb310       ?SetTopology@TeamManager@VENet@@QAEXW4TMTopology@2@@Z 00572310 f   TeamManager.obj
 0002:000bb360       ?Size@?$List@PAVTM_Team@VENet@@@DataStructures@@QBEIXZ 00572360 f i TeamManager.obj
 0002:000bb3a0       ?Size@?$List@PAVTM_TeamMember@VENet@@@DataStructures@@QBEIXZ 005723a0 f i TeamManager.obj
 0002:000bb3e0       ?Size@?$List@PAVTM_World@VENet@@@DataStructures@@QBEIXZ 005723e0 f i TeamManager.obj
 0002:000bb420       ?Size@?$List@UJoinRequestHelper@TM_World@VENet@@@DataStructures@@QBEIXZ 00572420 f i TeamManager.obj
 0002:000bb460       ?Size@?$List@URequestedTeam@TM_TeamMember@VENet@@@DataStructures@@QBEIXZ 00572460 f i TeamManager.obj
 0002:000bb4a0       ?Size@?$OrderedList@UJoinRequestHelper@TM_World@VENet@@U123@$1?JoinRequestHelperComp@23@SAHABU123@0@Z@DataStructures@@QBEIXZ 005724a0 f i TeamManager.obj
 0002:000bb4f0       ?SpecificTeam@TeamSelection@VENet@@SA?AU12@PAVTM_Team@2@@Z 005724f0 f   TeamManager.obj
 0002:000bb550       ?StoreLastTeams@TM_TeamMember@VENet@@IAEXXZ 00572550 f   TeamManager.obj
 0002:000bb5b0       ?SwitchSpecificTeamCheck@TM_TeamMember@VENet@@IBE_NPAVTM_Team@2@0_N@Z 005725b0 f   TeamManager.obj
 0002:000bb730       ?ToUint32@TM_Team@VENet@@SAKAB_K@Z 00572730 f   TeamManager.obj
 0002:000bb770       ?ToUint32@TM_TeamMember@VENet@@SAKAB_K@Z 00572770 f   TeamManager.obj
 0002:000bb7b0       ?Update@TeamManager@VENet@@MAEXXZ 005727b0 f   TeamManager.obj
 0002:000bb7f0       ?UpdateListsToNoTeam@TM_TeamMember@VENet@@IAEXE@Z 005727f0 f   TeamManager.obj
 0002:000bb8e0       ?UpdateTeamsRequestedToAny@TM_TeamMember@VENet@@IAEXXZ 005728e0 f   TeamManager.obj
 0002:000bb9a0       ?UpdateTeamsRequestedToNone@TM_TeamMember@VENet@@IAEXXZ 005729a0 f   TeamManager.obj
 0002:000bba20       ??$OP_DELETE@D@VENet@@YAXPADPBDI@Z 00572a20 f i ThreadsafePacketLogger.obj
 0002:000bba80       ??$OP_NEW@UDataPlusPtr@?$SingleProducerConsumer@PAD@DataStructures@@@VENet@@YAPAUDataPlusPtr@?$SingleProducerConsumer@PAD@DataStructures@@PBDI@Z 00572a80 f i ThreadsafePacketLogger.obj
 0002:000bbb60       ??0?$SingleProducerConsumer@PAD@DataStructures@@QAE@XZ 00572b60 f i ThreadsafePacketLogger.obj
 0002:000bbca0       ??0DataPlusPtr@?$SingleProducerConsumer@PAD@DataStructures@@QAE@XZ 00572ca0 f i ThreadsafePacketLogger.obj
 0002:000bbcf0       ??0ThreadsafePacketLogger@VENet@@QAE@XZ 00572cf0 f   ThreadsafePacketLogger.obj
 0002:000bbdb0       ??1?$SingleProducerConsumer@PAD@DataStructures@@QAE@XZ 00572db0 f i ThreadsafePacketLogger.obj
 0002:000bbe70       ??1ThreadsafePacketLogger@VENet@@UAE@XZ 00572e70 f   ThreadsafePacketLogger.obj
 0002:000bbf80       ??_EThreadsafePacketLogger@VENet@@UAEPAXI@Z 00572f80 f i ThreadsafePacketLogger.obj
 0002:000bbf80       ??_GThreadsafePacketLogger@VENet@@UAEPAXI@Z 00572f80 f i ThreadsafePacketLogger.obj
 0002:000bbff0       ?AddToLog@ThreadsafePacketLogger@VENet@@MAEXPBD@Z 00572ff0 f   ThreadsafePacketLogger.obj
 0002:000bc0c0       ?ReadLock@?$SingleProducerConsumer@PAD@DataStructures@@QAEPAPADXZ 005730c0 f i ThreadsafePacketLogger.obj
 0002:000bc140       ?Update@ThreadsafePacketLogger@VENet@@UAEXXZ 00573140 f   ThreadsafePacketLogger.obj
 0002:000bc200       ?WriteLock@?$SingleProducerConsumer@PAD@DataStructures@@QAEPAPADXZ 00573200 f i ThreadsafePacketLogger.obj
 0002:000bc310       ?WriteUnlock@?$SingleProducerConsumer@PAD@DataStructures@@QAEXXZ 00573310 f i ThreadsafePacketLogger.obj
 0002:000bc400       ??$OP_DELETE@UNode@?$Hash@VVEString@VENet@@V12@$0BA@$1?ToInteger@12@SAKABV12@@Z@DataStructures@@@VENet@@YAXPAUNode@?$Hash@VVEString@VENet@@V12@$0BA@$1?ToInteger@12@SAKABV12@@Z@DataStructures@@PBDI@Z 00573400 f i TwoWayAuthentication.obj
 0002:000bc490       ??$OP_DELETE@UNonceAndRemoteSystemRequest@TwoWayAuthentication@VENet@@@VENet@@YAXPAUNonceAndRemoteSystemRequest@TwoWayAuthentication@0@PBDI@Z 00573490 f i TwoWayAuthentication.obj
 0002:000bc4f0       ??$OP_DELETE_ARRAY@PAUNode@?$Hash@VVEString@VENet@@V12@$0BA@$1?ToInteger@12@SAKABV12@@Z@DataStructures@@@VENet@@YAXPAPAUNode@?$Hash@VVEString@VENet@@V12@$0BA@$1?ToInteger@12@SAKABV12@@Z@DataStructures@@PBDI@Z 005734f0 f i TwoWayAuthentication.obj
 0002:000bc550       ??$OP_DELETE_ARRAY@PAUNonceAndRemoteSystemRequest@TwoWayAuthentication@VENet@@@VENet@@YAXPAPAUNonceAndRemoteSystemRequest@TwoWayAuthentication@0@PBDI@Z 00573550 f i TwoWayAuthentication.obj
 0002:000bc5b0       ??$OP_DELETE_ARRAY@UPendingChallenge@TwoWayAuthentication@VENet@@@VENet@@YAXPAUPendingChallenge@TwoWayAuthentication@0@PBDI@Z 005735b0 f i TwoWayAuthentication.obj
 0002:000bc640       ??$OP_NEW@UNonceAndRemoteSystemRequest@TwoWayAuthentication@VENet@@@VENet@@YAPAUNonceAndRemoteSystemRequest@TwoWayAuthentication@0@PBDI@Z 00573640 f i TwoWayAuthentication.obj
 0002:000bc720       ??$OP_NEW_2@UNode@?$Hash@VVEString@VENet@@V12@$0BA@$1?ToInteger@12@SAKABV12@@Z@DataStructures@@VVEString@VENet@@V45@@VENet@@YAPAUNode@?$Hash@VVEString@VENet@@V12@$0BA@$1?ToInteger@12@SAKABV12@@Z@DataStructures@@PBDIABVVEString@0@1@Z 00573720 f i TwoWayAuthentication.obj
 0002:000bc830       ??$OP_NEW_ARRAY@PAUNode@?$Hash@VVEString@VENet@@V12@$0BA@$1?ToInteger@12@SAKABV12@@Z@DataStructures@@@VENet@@YAPAPAUNode@?$Hash@VVEString@VENet@@V12@$0BA@$1?ToInteger@12@SAKABV12@@Z@DataStructures@@HPBDI@Z 00573830 f i TwoWayAuthentication.obj
 0002:000bc8b0       ??$OP_NEW_ARRAY@PAUNonceAndRemoteSystemRequest@TwoWayAuthentication@VENet@@@VENet@@YAPAPAUNonceAndRemoteSystemRequest@TwoWayAuthentication@0@HPBDI@Z 005738b0 f i TwoWayAuthentication.obj
 0002:000bc930       ??$OP_NEW_ARRAY@UPendingChallenge@TwoWayAuthentication@VENet@@@VENet@@YAPAUPendingChallenge@TwoWayAuthentication@0@HPBDI@Z 00573930 f i TwoWayAuthentication.obj
 0002:000bca90       ??$Write@VVEString@VENet@@@BitStream@VENet@@QAEXABVVEString@1@@Z 00573a90 f i TwoWayAuthentication.obj
 0002:000bcaf0       ??0?$Hash@VVEString@VENet@@V12@$0BA@$1?ToInteger@12@SAKABV12@@Z@DataStructures@@QAE@XZ 00573af0 f i TwoWayAuthentication.obj
 0002:000bcb40       ??0?$List@PAUNonceAndRemoteSystemRequest@TwoWayAuthentication@VENet@@@DataStructures@@QAE@XZ 00573b40 f i TwoWayAuthentication.obj
 0002:000bcba0       ??0?$Queue@UPendingChallenge@TwoWayAuthentication@VENet@@@DataStructures@@QAE@XZ 00573ba0 f i TwoWayAuthentication.obj
 0002:000bcc10       ??0Node@?$Hash@VVEString@VENet@@V12@$0BA@$1?ToInteger@12@SAKABV12@@Z@DataStructures@@QAE@VVEString@VENet@@ABV34@@Z 00573c10 f i TwoWayAuthentication.obj
 0002:000bccf0       ??0NonceAndRemoteSystemRequest@TwoWayAuthentication@VENet@@QAE@XZ 00573cf0 f i TwoWayAuthentication.obj
 0002:000bcd50       ??0NonceGenerator@TwoWayAuthentication@VENet@@QAE@XZ 00573d50 f   TwoWayAuthentication.obj
 0002:000bcdb0       ??0PendingChallenge@TwoWayAuthentication@VENet@@QAE@ABU012@@Z 00573db0 f i TwoWayAuthentication.obj
 0002:000bce90       ??0PendingChallenge@TwoWayAuthentication@VENet@@QAE@XZ 00573e90 f i TwoWayAuthentication.obj
 0002:000bcf40       ??0TwoWayAuthentication@VENet@@QAE@XZ 00573f40 f   TwoWayAuthentication.obj
 0002:000bd040       ??1?$Hash@VVEString@VENet@@V12@$0BA@$1?ToInteger@12@SAKABV12@@Z@DataStructures@@QAE@XZ 00574040 f i TwoWayAuthentication.obj
 0002:000bd0a0       ??1?$List@PAUNonceAndRemoteSystemRequest@TwoWayAuthentication@VENet@@@DataStructures@@QAE@XZ 005740a0 f i TwoWayAuthentication.obj
 0002:000bd110       ??1?$Queue@UPendingChallenge@TwoWayAuthentication@VENet@@@DataStructures@@QAE@XZ 00574110 f i TwoWayAuthentication.obj
 0002:000bd180       ??1Node@?$Hash@VVEString@VENet@@V12@$0BA@$1?ToInteger@12@SAKABV12@@Z@DataStructures@@QAE@XZ 00574180 f i TwoWayAuthentication.obj
 0002:000bd230       ??1NonceGenerator@TwoWayAuthentication@VENet@@QAE@XZ 00574230 f   TwoWayAuthentication.obj
 0002:000bd2d0       ??1PendingChallenge@TwoWayAuthentication@VENet@@QAE@XZ 005742d0 f i TwoWayAuthentication.obj
 0002:000bd320       ??1TwoWayAuthentication@VENet@@UAE@XZ 00574320 f   TwoWayAuthentication.obj
 0002:000bd410       ??4PendingChallenge@TwoWayAuthentication@VENet@@QAEAAU012@ABU012@@Z 00574410 f i TwoWayAuthentication.obj
 0002:000bd4b0       ??A?$List@PAUNonceAndRemoteSystemRequest@TwoWayAuthentication@VENet@@@DataStructures@@QBEAAPAUNonceAndRemoteSystemRequest@TwoWayAuthentication@VENet@@I@Z 005744b0 f i TwoWayAuthentication.obj
 0002:000bd550       ??A?$Queue@UPendingChallenge@TwoWayAuthentication@VENet@@@DataStructures@@QBEAAUPendingChallenge@TwoWayAuthentication@VENet@@I@Z 00574550 f i TwoWayAuthentication.obj
 0002:000bd620       ??_EPendingChallenge@TwoWayAuthentication@VENet@@QAEPAXI@Z 00574620 f i TwoWayAuthentication.obj
 0002:000bd6e0       ??_GNode@?$Hash@VVEString@VENet@@V12@$0BA@$1?ToInteger@12@SAKABV12@@Z@DataStructures@@QAEPAXI@Z 005746e0 f i TwoWayAuthentication.obj
 0002:000bd750       ??_ETwoWayAuthentication@VENet@@UAEPAXI@Z 00574750 f i TwoWayAuthentication.obj
 0002:000bd750       ??_GTwoWayAuthentication@VENet@@UAEPAXI@Z 00574750 f i TwoWayAuthentication.obj
 0002:000bd7c0       ?AddPassword@TwoWayAuthentication@VENet@@QAE_NVVEString@2@0@Z 005747c0 f   TwoWayAuthentication.obj
 0002:000bda40       ?Challenge@TwoWayAuthentication@VENet@@QAE_NVVEString@2@UAddressOrGUID@2@@Z 00574a40 f   TwoWayAuthentication.obj
 0002:000bdd00       ?Clear@?$Hash@VVEString@VENet@@V12@$0BA@$1?ToInteger@12@SAKABV12@@Z@DataStructures@@QAEXPBDI@Z 00574d00 f i TwoWayAuthentication.obj
 0002:000bddc0       ?Clear@?$List@PAUNonceAndRemoteSystemRequest@TwoWayAuthentication@VENet@@@DataStructures@@QAEX_NPBDI@Z 00574dc0 f i TwoWayAuthentication.obj
 0002:000bde70       ?Clear@?$Queue@UPendingChallenge@TwoWayAuthentication@VENet@@@DataStructures@@QAEXPBDI@Z 00574e70 f i TwoWayAuthentication.obj
 0002:000bdf20       ?Clear@NonceGenerator@TwoWayAuthentication@VENet@@QAEXXZ 00574f20 f   TwoWayAuthentication.obj
 0002:000bdfe0       ?Clear@TwoWayAuthentication@VENet@@QAEXXZ 00574fe0 f   TwoWayAuthentication.obj
 0002:000be080       ?ClearByAddress@NonceGenerator@TwoWayAuthentication@VENet@@QAEXUAddressOrGUID@3@@Z 00575080 f   TwoWayAuthentication.obj
 0002:000be160       ?ClearIndex@?$Hash@VVEString@VENet@@V12@$0BA@$1?ToInteger@12@SAKABV12@@Z@DataStructures@@IAEXIPBDI@Z 00575160 f i TwoWayAuthentication.obj
 0002:000be220       ?GenerateNonce@NonceGenerator@TwoWayAuthentication@VENet@@QAEXQAD@Z 00575220 f   TwoWayAuthentication.obj
 0002:000be280       ?GetIndexOf@?$Hash@VVEString@VENet@@V12@$0BA@$1?ToInteger@12@SAKABV12@@Z@DataStructures@@QAE?AUHashIndex@2@VVEString@VENet@@@Z 00575280 f i TwoWayAuthentication.obj
 0002:000be4a0       ?GetNonce@NonceGenerator@TwoWayAuthentication@VENet@@QAEXQADPAGUAddressOrGUID@3@@Z 005754a0 f   TwoWayAuthentication.obj
 0002:000be5f0       ?GetNonceById@NonceGenerator@TwoWayAuthentication@VENet@@QAE_NQADGUAddressOrGUID@3@_N@Z 005755f0 f   TwoWayAuthentication.obj
 0002:000be740       ?Hash@TwoWayAuthentication@VENet@@IAEXQADVVEString@2@0@Z 00575740 f   TwoWayAuthentication.obj
 0002:000be8a0       ?Insert@?$List@PAUNonceAndRemoteSystemRequest@TwoWayAuthentication@VENet@@@DataStructures@@QAEXABQAUNonceAndRemoteSystemRequest@TwoWayAuthentication@VENet@@PBDI@Z 005758a0 f i TwoWayAuthentication.obj
 0002:000be9f0       ?ItemAtIndex@?$Hash@VVEString@VENet@@V12@$0BA@$1?ToInteger@12@SAKABV12@@Z@DataStructures@@QAEAAVVEString@VENet@@ABUHashIndex@2@@Z 005759f0 f i TwoWayAuthentication.obj
 0002:000beaf0       ?OnClosedConnection@TwoWayAuthentication@VENet@@UAEXABUSystemAddress@2@UVENetGUID@2@W4PI2_LostConnectionReason@2@@Z 00575af0 f   TwoWayAuthentication.obj
 0002:000bec70       ?OnHashedNonceAndPassword@TwoWayAuthentication@VENet@@IAE?AW4PluginReceiveResult@2@PAUPacket@2@@Z 00575c70 f   TwoWayAuthentication.obj
 0002:000bf280       ?OnNonceReply@TwoWayAuthentication@VENet@@IAEXPAUPacket@2@@Z 00576280 f   TwoWayAuthentication.obj
 0002:000bf740       ?OnNonceRequest@TwoWayAuthentication@VENet@@IAEXPAUPacket@2@@Z 00576740 f   TwoWayAuthentication.obj
 0002:000bf9a0       ?OnPasswordResult@TwoWayAuthentication@VENet@@IAEXPAUPacket@2@@Z 005769a0 f   TwoWayAuthentication.obj
 0002:000bfe90       ?OnRakPeerShutdown@TwoWayAuthentication@VENet@@UAEXXZ 00576e90 f   TwoWayAuthentication.obj
 0002:000bfee0       ?OnReceive@TwoWayAuthentication@VENet@@UAE?AW4PluginReceiveResult@2@PAUPacket@2@@Z 00576ee0 f   TwoWayAuthentication.obj
 0002:000c0070       ?Peek@?$Queue@UPendingChallenge@TwoWayAuthentication@VENet@@@DataStructures@@QBE?AUPendingChallenge@TwoWayAuthentication@VENet@@XZ 00577070 f i TwoWayAuthentication.obj
 0002:000c0140       ?Pop@?$Queue@UPendingChallenge@TwoWayAuthentication@VENet@@@DataStructures@@QAE?AUPendingChallenge@TwoWayAuthentication@VENet@@XZ 00577140 f i TwoWayAuthentication.obj
 0002:000c0290       ?Push@?$Hash@VVEString@VENet@@V12@$0BA@$1?ToInteger@12@SAKABV12@@Z@DataStructures@@QAEXVVEString@VENet@@ABV34@PBDI@Z 00577290 f i TwoWayAuthentication.obj
 0002:000c03e0       ?Push@?$List@PAUNonceAndRemoteSystemRequest@TwoWayAuthentication@VENet@@@DataStructures@@QAEXABQAUNonceAndRemoteSystemRequest@TwoWayAuthentication@VENet@@PBDI@Z 005773e0 f i TwoWayAuthentication.obj
 0002:000c0440       ?Push@?$Queue@UPendingChallenge@TwoWayAuthentication@VENet@@@DataStructures@@QAEXABUPendingChallenge@TwoWayAuthentication@VENet@@PBDI@Z 00577440 f i TwoWayAuthentication.obj
 0002:000c0680       ?PushToUser@TwoWayAuthentication@VENet@@IAEXEVVEString@2@UAddressOrGUID@2@@Z 00577680 f   TwoWayAuthentication.obj
 0002:000c0890       ?RemoveAtIndex@?$List@PAUNonceAndRemoteSystemRequest@TwoWayAuthentication@VENet@@@DataStructures@@QAEXI@Z 00577890 f i TwoWayAuthentication.obj
 0002:000c0980       ?RemoveAtIndex@?$Queue@UPendingChallenge@TwoWayAuthentication@VENet@@@DataStructures@@QAEXI@Z 00577980 f i TwoWayAuthentication.obj
 0002:000c0b60       ?RemoveFromEnd@?$List@PAUNonceAndRemoteSystemRequest@TwoWayAuthentication@VENet@@@DataStructures@@QAEXI@Z 00577b60 f i TwoWayAuthentication.obj
 0002:000c0c00       ?Size@?$List@PAUNonceAndRemoteSystemRequest@TwoWayAuthentication@VENet@@@DataStructures@@QBEIXZ 00577c00 f i TwoWayAuthentication.obj
 0002:000c0c40       ?Size@?$Queue@UPendingChallenge@TwoWayAuthentication@VENet@@@DataStructures@@QBEIXZ 00577c40 f i TwoWayAuthentication.obj
 0002:000c0cb0       ?Update@NonceGenerator@TwoWayAuthentication@VENet@@QAEX_K@Z 00577cb0 f   TwoWayAuthentication.obj
 0002:000c0d80       ?Update@TwoWayAuthentication@VENet@@UAEXXZ 00577d80 f   TwoWayAuthentication.obj
 0002:000c1040       ??$OP_DELETE@UForwardEntry@UDPForwarder@VENet@@@VENet@@YAXPAUForwardEntry@UDPForwarder@0@PBDI@Z 00578040 f i UDPForwarder.obj
 0002:000c10d0       ??$OP_DELETE_ARRAY@PAUForwardEntry@UDPForwarder@VENet@@@VENet@@YAXPAPAUForwardEntry@UDPForwarder@0@PBDI@Z 005780d0 f i UDPForwarder.obj
 0002:000c1130       ??$OP_DELETE_ARRAY@PAUStartForwardingInputStruct@UDPForwarder@VENet@@@VENet@@YAXPAPAUStartForwardingInputStruct@UDPForwarder@0@PBDI@Z 00578130 f i UDPForwarder.obj
 0002:000c1190       ??$OP_DELETE_ARRAY@PAUStopForwardingStruct@UDPForwarder@VENet@@@VENet@@YAXPAPAUStopForwardingStruct@UDPForwarder@0@PBDI@Z 00578190 f i UDPForwarder.obj
 0002:000c11f0       ??$OP_DELETE_ARRAY@UStartForwardingOutputStruct@UDPForwarder@VENet@@@VENet@@YAXPAUStartForwardingOutputStruct@UDPForwarder@0@PBDI@Z 005781f0 f i UDPForwarder.obj
 0002:000c1250       ??$OP_NEW@UForwardEntry@UDPForwarder@VENet@@@VENet@@YAPAUForwardEntry@UDPForwarder@0@PBDI@Z 00578250 f i UDPForwarder.obj
 0002:000c1330       ??$OP_NEW_ARRAY@PAUForwardEntry@UDPForwarder@VENet@@@VENet@@YAPAPAUForwardEntry@UDPForwarder@0@HPBDI@Z 00578330 f i UDPForwarder.obj
 0002:000c13b0       ??$OP_NEW_ARRAY@PAUStartForwardingInputStruct@UDPForwarder@VENet@@@VENet@@YAPAPAUStartForwardingInputStruct@UDPForwarder@0@HPBDI@Z 005783b0 f i UDPForwarder.obj
 0002:000c1430       ??$OP_NEW_ARRAY@PAUStopForwardingStruct@UDPForwarder@VENet@@@VENet@@YAPAPAUStopForwardingStruct@UDPForwarder@0@HPBDI@Z 00578430 f i UDPForwarder.obj
 0002:000c14b0       ??$OP_NEW_ARRAY@UStartForwardingOutputStruct@UDPForwarder@VENet@@@VENet@@YAPAUStartForwardingOutputStruct@UDPForwarder@0@HPBDI@Z 005784b0 f i UDPForwarder.obj
 0002:000c1530       ??0?$List@PAUForwardEntry@UDPForwarder@VENet@@@DataStructures@@QAE@XZ 00578530 f i UDPForwarder.obj
 0002:000c1590       ??0?$MemoryPool@UStartForwardingInputStruct@UDPForwarder@VENet@@@DataStructures@@QAE@XZ 00578590 f i UDPForwarder.obj
 0002:000c15f0       ??0?$MemoryPool@UStopForwardingStruct@UDPForwarder@VENet@@@DataStructures@@QAE@XZ 005785f0 f i UDPForwarder.obj
 0002:000c1650       ??0?$Queue@PAUStartForwardingInputStruct@UDPForwarder@VENet@@@DataStructures@@QAE@XZ 00578650 f i UDPForwarder.obj
 0002:000c16c0       ??0?$Queue@PAUStopForwardingStruct@UDPForwarder@VENet@@@DataStructures@@QAE@XZ 005786c0 f i UDPForwarder.obj
 0002:000c1730       ??0?$Queue@UStartForwardingOutputStruct@UDPForwarder@VENet@@@DataStructures@@QAE@XZ 00578730 f i UDPForwarder.obj
 0002:000c17a0       ??0?$ThreadsafeAllocatingQueue@UStartForwardingInputStruct@UDPForwarder@VENet@@@DataStructures@@QAE@XZ 005787a0 f i UDPForwarder.obj
 0002:000c1870       ??0?$ThreadsafeAllocatingQueue@UStopForwardingStruct@UDPForwarder@VENet@@@DataStructures@@QAE@XZ 00578870 f i UDPForwarder.obj
 0002:000c1940       ??0ForwardEntry@UDPForwarder@VENet@@QAE@XZ 00578940 f   UDPForwarder.obj
 0002:000c1a00       ??0StartForwardingInputStruct@UDPForwarder@VENet@@QAE@XZ 00578a00 f i UDPForwarder.obj
 0002:000c1a70       ??0StopForwardingStruct@UDPForwarder@VENet@@QAE@XZ 00578a70 f i UDPForwarder.obj
 0002:000c1ad0       ??0UDPForwarder@VENet@@QAE@XZ 00578ad0 f   UDPForwarder.obj
 0002:000c1c50       ??1?$List@PAUForwardEntry@UDPForwarder@VENet@@@DataStructures@@QAE@XZ 00578c50 f i UDPForwarder.obj
 0002:000c1cc0       ??1?$MemoryPool@UStartForwardingInputStruct@UDPForwarder@VENet@@@DataStructures@@QAE@XZ 00578cc0 f i UDPForwarder.obj
 0002:000c1d20       ??1?$MemoryPool@UStopForwardingStruct@UDPForwarder@VENet@@@DataStructures@@QAE@XZ 00578d20 f i UDPForwarder.obj
 0002:000c1d80       ??1?$Queue@PAUStartForwardingInputStruct@UDPForwarder@VENet@@@DataStructures@@QAE@XZ 00578d80 f i UDPForwarder.obj
 0002:000c1df0       ??1?$Queue@PAUStopForwardingStruct@UDPForwarder@VENet@@@DataStructures@@QAE@XZ 00578df0 f i UDPForwarder.obj
 0002:000c1e60       ??1?$Queue@UStartForwardingOutputStruct@UDPForwarder@VENet@@@DataStructures@@QAE@XZ 00578e60 f i UDPForwarder.obj
 0002:000c1ed0       ??1?$ThreadsafeAllocatingQueue@UStartForwardingInputStruct@UDPForwarder@VENet@@@DataStructures@@QAE@XZ 00578ed0 f i UDPForwarder.obj
 0002:000c1fa0       ??1?$ThreadsafeAllocatingQueue@UStopForwardingStruct@UDPForwarder@VENet@@@DataStructures@@QAE@XZ 00578fa0 f i UDPForwarder.obj
 0002:000c2070       ??1ForwardEntry@UDPForwarder@VENet@@QAE@XZ 00579070 f   UDPForwarder.obj
 0002:000c20e0       ??1StartForwardingInputStruct@UDPForwarder@VENet@@QAE@XZ 005790e0 f i UDPForwarder.obj
 0002:000c2140       ??1UDPForwarder@VENet@@UAE@XZ 00579140 f   UDPForwarder.obj
 0002:000c2250       ??A?$List@PAUForwardEntry@UDPForwarder@VENet@@@DataStructures@@QBEAAPAUForwardEntry@UDPForwarder@VENet@@I@Z 00579250 f i UDPForwarder.obj
 0002:000c22f0       ??A?$Queue@UStartForwardingOutputStruct@UDPForwarder@VENet@@@DataStructures@@QBEAAUStartForwardingOutputStruct@UDPForwarder@VENet@@I@Z 005792f0 f i UDPForwarder.obj
 0002:000c23c0       ??_GForwardEntry@UDPForwarder@VENet@@QAEPAXI@Z 005793c0 f i UDPForwarder.obj
 0002:000c2430       ??_GStartForwardingInputStruct@UDPForwarder@VENet@@QAEPAXI@Z 00579430 f i UDPForwarder.obj
 0002:000c24a0       ??_GUDPForwarder@VENet@@UAEPAXI@Z 005794a0 f i UDPForwarder.obj
 0002:000c24a0       ??_EUDPForwarder@VENet@@UAEPAXI@Z 005794a0 f i UDPForwarder.obj
 0002:000c2510       ?Allocate@?$MemoryPool@UStartForwardingInputStruct@UDPForwarder@VENet@@@DataStructures@@QAEPAUStartForwardingInputStruct@UDPForwarder@VENet@@PBDI@Z 00579510 f i UDPForwarder.obj
 0002:000c2830       ?Allocate@?$MemoryPool@UStopForwardingStruct@UDPForwarder@VENet@@@DataStructures@@QAEPAUStopForwardingStruct@UDPForwarder@VENet@@PBDI@Z 00579830 f i UDPForwarder.obj
 0002:000c2b50       ?Allocate@?$ThreadsafeAllocatingQueue@UStartForwardingInputStruct@UDPForwarder@VENet@@@DataStructures@@QAEPAUStartForwardingInputStruct@UDPForwarder@VENet@@PBDI@Z 00579b50 f i UDPForwarder.obj
 0002:000c2c80       ?Allocate@?$ThreadsafeAllocatingQueue@UStopForwardingStruct@UDPForwarder@VENet@@@DataStructures@@QAEPAUStopForwardingStruct@UDPForwarder@VENet@@PBDI@Z 00579c80 f i UDPForwarder.obj
 0002:000c2db0       ?BlocksPerPage@?$MemoryPool@UStartForwardingInputStruct@UDPForwarder@VENet@@@DataStructures@@IBEHXZ 00579db0 f i UDPForwarder.obj
 0002:000c2e00       ?BlocksPerPage@?$MemoryPool@UStopForwardingStruct@UDPForwarder@VENet@@@DataStructures@@IBEHXZ 00579e00 f i UDPForwarder.obj
 0002:000c2e50       ?Clear@?$List@PAUForwardEntry@UDPForwarder@VENet@@@DataStructures@@QAEX_NPBDI@Z 00579e50 f i UDPForwarder.obj
 0002:000c2f00       ?Clear@?$MemoryPool@UStartForwardingInputStruct@UDPForwarder@VENet@@@DataStructures@@QAEXPBDI@Z 00579f00 f i UDPForwarder.obj
 0002:000c3140       ?Clear@?$MemoryPool@UStopForwardingStruct@UDPForwarder@VENet@@@DataStructures@@QAEXPBDI@Z 0057a140 f i UDPForwarder.obj
 0002:000c3380       ?Deallocate@?$ThreadsafeAllocatingQueue@UStartForwardingInputStruct@UDPForwarder@VENet@@@DataStructures@@QAEXPAUStartForwardingInputStruct@UDPForwarder@VENet@@PBDI@Z 0057a380 f i UDPForwarder.obj
 0002:000c3410       ?Deallocate@?$ThreadsafeAllocatingQueue@UStopForwardingStruct@UDPForwarder@VENet@@@DataStructures@@QAEXPAUStopForwardingStruct@UDPForwarder@VENet@@PBDI@Z 0057a410 f i UDPForwarder.obj
 0002:000c3490       ?GetMaxForwardEntries@UDPForwarder@VENet@@QBEHXZ 0057a490 f   UDPForwarder.obj
 0002:000c34e0       ?GetUsedForwardEntries@UDPForwarder@VENet@@QBEHXZ 0057a4e0 f   UDPForwarder.obj
 0002:000c3540       ?InitPage@?$MemoryPool@UStartForwardingInputStruct@UDPForwarder@VENet@@@DataStructures@@IAE_NPAUPage@12@0PBDI@Z 0057a540 f i UDPForwarder.obj
 0002:000c36d0       ?InitPage@?$MemoryPool@UStopForwardingStruct@UDPForwarder@VENet@@@DataStructures@@IAE_NPAUPage@12@0PBDI@Z 0057a6d0 f i UDPForwarder.obj
 0002:000c3860       ?Insert@?$List@PAUForwardEntry@UDPForwarder@VENet@@@DataStructures@@QAEXABQAUForwardEntry@UDPForwarder@VENet@@PBDI@Z 0057a860 f i UDPForwarder.obj
 0002:000c39b0       ?IsEmpty@?$Queue@PAUStartForwardingInputStruct@UDPForwarder@VENet@@@DataStructures@@QBE_NXZ 0057a9b0 f i UDPForwarder.obj
 0002:000c3a20       ?IsEmpty@?$Queue@PAUStopForwardingStruct@UDPForwarder@VENet@@@DataStructures@@QBE_NXZ 0057aa20 f i UDPForwarder.obj
 0002:000c3a90       ?Pop@?$Queue@PAUStartForwardingInputStruct@UDPForwarder@VENet@@@DataStructures@@QAEPAUStartForwardingInputStruct@UDPForwarder@VENet@@XZ 0057aa90 f i UDPForwarder.obj
 0002:000c3b80       ?Pop@?$Queue@PAUStopForwardingStruct@UDPForwarder@VENet@@@DataStructures@@QAEPAUStopForwardingStruct@UDPForwarder@VENet@@XZ 0057ab80 f i UDPForwarder.obj
 0002:000c3c70       ?Pop@?$ThreadsafeAllocatingQueue@UStartForwardingInputStruct@UDPForwarder@VENet@@@DataStructures@@QAEPAUStartForwardingInputStruct@UDPForwarder@VENet@@XZ 0057ac70 f i UDPForwarder.obj
 0002:000c3d10       ?Pop@?$ThreadsafeAllocatingQueue@UStopForwardingStruct@UDPForwarder@VENet@@@DataStructures@@QAEPAUStopForwardingStruct@UDPForwarder@VENet@@XZ 0057ad10 f i UDPForwarder.obj
 0002:000c3db0       ?Push@?$Queue@PAUStartForwardingInputStruct@UDPForwarder@VENet@@@DataStructures@@QAEXABQAUStartForwardingInputStruct@UDPForwarder@VENet@@PBDI@Z 0057adb0 f i UDPForwarder.obj
 0002:000c3fd0       ?Push@?$Queue@PAUStopForwardingStruct@UDPForwarder@VENet@@@DataStructures@@QAEXABQAUStopForwardingStruct@UDPForwarder@VENet@@PBDI@Z 0057afd0 f i UDPForwarder.obj
 0002:000c41f0       ?Push@?$Queue@UStartForwardingOutputStruct@UDPForwarder@VENet@@@DataStructures@@QAEXABUStartForwardingOutputStruct@UDPForwarder@VENet@@PBDI@Z 0057b1f0 f i UDPForwarder.obj
 0002:000c4460       ?Push@?$ThreadsafeAllocatingQueue@UStartForwardingInputStruct@UDPForwarder@VENet@@@DataStructures@@QAEXPAUStartForwardingInputStruct@UDPForwarder@VENet@@@Z 0057b460 f i UDPForwarder.obj
 0002:000c44e0       ?Push@?$ThreadsafeAllocatingQueue@UStopForwardingStruct@UDPForwarder@VENet@@@DataStructures@@QAEXPAUStopForwardingStruct@UDPForwarder@VENet@@@Z 0057b4e0 f i UDPForwarder.obj
 0002:000c4560       ?RecvFrom@UDPForwarder@VENet@@IAEXIPAUForwardEntry@12@@Z 0057b560 f   UDPForwarder.obj
 0002:000c4bb0       ?Release@?$MemoryPool@UStartForwardingInputStruct@UDPForwarder@VENet@@@DataStructures@@QAEXPAUStartForwardingInputStruct@UDPForwarder@VENet@@PBDI@Z 0057bbb0 f i UDPForwarder.obj
 0002:000c4ec0       ?Release@?$MemoryPool@UStopForwardingStruct@UDPForwarder@VENet@@@DataStructures@@QAEXPAUStopForwardingStruct@UDPForwarder@VENet@@PBDI@Z 0057bec0 f i UDPForwarder.obj
 0002:000c51d0       ?RemoveAtIndex@?$List@PAUForwardEntry@UDPForwarder@VENet@@@DataStructures@@QAEXI@Z 0057c1d0 f i UDPForwarder.obj
 0002:000c52c0       ?RemoveAtIndex@?$Queue@UStartForwardingOutputStruct@UDPForwarder@VENet@@@DataStructures@@QAEXI@Z 0057c2c0 f i UDPForwarder.obj
 0002:000c54b0       ?RemoveAtIndexFast@?$List@PAUForwardEntry@UDPForwarder@VENet@@@DataStructures@@QAEXI@Z 0057c4b0 f i UDPForwarder.obj
 0002:000c5570       ?RemoveFromEnd@?$List@PAUForwardEntry@UDPForwarder@VENet@@@DataStructures@@QAEXI@Z 0057c570 f i UDPForwarder.obj
 0002:000c5610       ?SetMaxForwardEntries@UDPForwarder@VENet@@QAEXG@Z 0057c610 f   UDPForwarder.obj
 0002:000c56c0       ?SetPageSize@?$MemoryPool@UStartForwardingInputStruct@UDPForwarder@VENet@@@DataStructures@@QAEXH@Z 0057c6c0 f i UDPForwarder.obj
 0002:000c5710       ?SetPageSize@?$MemoryPool@UStopForwardingStruct@UDPForwarder@VENet@@@DataStructures@@QAEXH@Z 0057c710 f i UDPForwarder.obj
 0002:000c5760       ?SetPageSize@?$ThreadsafeAllocatingQueue@UStartForwardingInputStruct@UDPForwarder@VENet@@@DataStructures@@QAEXH@Z 0057c760 f i UDPForwarder.obj
 0002:000c57c0       ?SetPageSize@?$ThreadsafeAllocatingQueue@UStopForwardingStruct@UDPForwarder@VENet@@@DataStructures@@QAEXH@Z 0057c7c0 f i UDPForwarder.obj
 0002:000c5820       ?Shutdown@UDPForwarder@VENet@@QAEXXZ 0057c820 f   UDPForwarder.obj
 0002:000c5950       ?Size@?$List@PAUForwardEntry@UDPForwarder@VENet@@@DataStructures@@QBEIXZ 0057c950 f i UDPForwarder.obj
 0002:000c5990       ?Size@?$Queue@UStartForwardingOutputStruct@UDPForwarder@VENet@@@DataStructures@@QBEIXZ 0057c990 f i UDPForwarder.obj
 0002:000c5a00       ?StartForwarding@UDPForwarder@VENet@@QAE?AW4UDPForwarderResult@2@USystemAddress@2@0IPBDGPAGPAI@Z 0057ca00 f   UDPForwarder.obj
 0002:000c5d10       ?Startup@UDPForwarder@VENet@@QAEXXZ 0057cd10 f   UDPForwarder.obj
 0002:000c5e00       ?StopForwarding@UDPForwarder@VENet@@QAEXUSystemAddress@2@0@Z 0057ce00 f   UDPForwarder.obj
 0002:000c5eb0       ?UpdateUDPForwarder@UDPForwarder@VENet@@IAEXXZ 0057ceb0 f   UDPForwarder.obj
 0002:000c6850       ?UpdateUDPForwarderGlobal@VENet@@YGIPAX@Z 0057d850 f   UDPForwarder.obj
 0002:000c6920       ??$OP_DELETE@UPingServerGroup@UDPProxyClient@VENet@@@VENet@@YAXPAUPingServerGroup@UDPProxyClient@0@PBDI@Z 0057d920 f i UDPProxyClient.obj
 0002:000c69b0       ??$OP_DELETE@VUDPProxyClient@VENet@@@VENet@@YAXPAVUDPProxyClient@0@PBDI@Z 0057d9b0 f i UDPProxyClient.obj
 0002:000c6a50       ??$OP_DELETE_ARRAY@PAUPingServerGroup@UDPProxyClient@VENet@@@VENet@@YAXPAPAUPingServerGroup@UDPProxyClient@0@PBDI@Z 0057da50 f i UDPProxyClient.obj
 0002:000c6ab0       ??$OP_DELETE_ARRAY@UServerWithPing@UDPProxyClient@VENet@@@VENet@@YAXPAUServerWithPing@UDPProxyClient@0@PBDI@Z 0057dab0 f i UDPProxyClient.obj
 0002:000c6b10       ??$OP_NEW@UPingServerGroup@UDPProxyClient@VENet@@@VENet@@YAPAUPingServerGroup@UDPProxyClient@0@PBDI@Z 0057db10 f i UDPProxyClient.obj
 0002:000c6bf0       ??$OP_NEW@VUDPProxyClient@VENet@@@VENet@@YAPAVUDPProxyClient@0@PBDI@Z 0057dbf0 f i UDPProxyClient.obj
 0002:000c6cd0       ??$OP_NEW_ARRAY@PAUPingServerGroup@UDPProxyClient@VENet@@@VENet@@YAPAPAUPingServerGroup@UDPProxyClient@0@HPBDI@Z 0057dcd0 f i UDPProxyClient.obj
 0002:000c6d50       ??$OP_NEW_ARRAY@UServerWithPing@UDPProxyClient@VENet@@@VENet@@YAPAUServerWithPing@UDPProxyClient@0@HPBDI@Z 0057dd50 f i UDPProxyClient.obj
 0002:000c6e80       ??0?$List@PAUPingServerGroup@UDPProxyClient@VENet@@@DataStructures@@QAE@XZ 0057de80 f i UDPProxyClient.obj
 0002:000c6ee0       ??0?$List@UServerWithPing@UDPProxyClient@VENet@@@DataStructures@@QAE@XZ 0057dee0 f i UDPProxyClient.obj
 0002:000c6f40       ??0PingServerGroup@UDPProxyClient@VENet@@QAE@XZ 0057df40 f i UDPProxyClient.obj
 0002:000c6fb0       ??0SenderAndTargetAddress@UDPProxyClient@VENet@@QAE@XZ 0057dfb0 f i UDPProxyClient.obj
 0002:000c7010       ??0ServerWithPing@UDPProxyClient@VENet@@QAE@XZ 0057e010 f i UDPProxyClient.obj
 0002:000c7070       ??0UDPProxyClient@VENet@@QAE@XZ 0057e070 f   UDPProxyClient.obj
 0002:000c7130       ??1?$List@PAUPingServerGroup@UDPProxyClient@VENet@@@DataStructures@@QAE@XZ 0057e130 f i UDPProxyClient.obj
 0002:000c71a0       ??1?$List@UServerWithPing@UDPProxyClient@VENet@@@DataStructures@@QAE@XZ 0057e1a0 f i UDPProxyClient.obj
 0002:000c7210       ??1PingServerGroup@UDPProxyClient@VENet@@QAE@XZ 0057e210 f i UDPProxyClient.obj
 0002:000c7270       ??1UDPProxyClient@VENet@@UAE@XZ 0057e270 f   UDPProxyClient.obj
 0002:000c7330       ??4ServerWithPing@UDPProxyClient@VENet@@QAEAAU012@ABU012@@Z 0057e330 f i UDPProxyClient.obj
 0002:000c73a0       ??A?$List@PAUPingServerGroup@UDPProxyClient@VENet@@@DataStructures@@QBEAAPAUPingServerGroup@UDPProxyClient@VENet@@I@Z 0057e3a0 f i UDPProxyClient.obj
 0002:000c7440       ??A?$List@UServerWithPing@UDPProxyClient@VENet@@@DataStructures@@QBEAAUServerWithPing@UDPProxyClient@VENet@@I@Z 0057e440 f i UDPProxyClient.obj
 0002:000c74e0       ??_GPingServerGroup@UDPProxyClient@VENet@@QAEPAXI@Z 0057e4e0 f i UDPProxyClient.obj
 0002:000c7550       ??_GUDPProxyClient@VENet@@UAEPAXI@Z 0057e550 f i UDPProxyClient.obj
 0002:000c7550       ??_EUDPProxyClient@VENet@@UAEPAXI@Z 0057e550 f i UDPProxyClient.obj
 0002:000c75c0       ?AreAllServersPinged@PingServerGroup@UDPProxyClient@VENet@@QBE_NXZ 0057e5c0 f   UDPProxyClient.obj
 0002:000c7660       ?Clear@?$List@PAUPingServerGroup@UDPProxyClient@VENet@@@DataStructures@@QAEX_NPBDI@Z 0057e660 f i UDPProxyClient.obj
 0002:000c7710       ?Clear@UDPProxyClient@VENet@@IAEXXZ 0057e710 f   UDPProxyClient.obj
 0002:000c77e0       ?DestroyInstance@UDPProxyClient@VENet@@SAXPAV12@@Z 0057e7e0 f   UDPProxyClient.obj
 0002:000c7840       ?GetInstance@UDPProxyClient@VENet@@SAPAV12@XZ 0057e840 f   UDPProxyClient.obj
 0002:000c78a0       ?Insert@?$List@PAUPingServerGroup@UDPProxyClient@VENet@@@DataStructures@@QAEXABQAUPingServerGroup@UDPProxyClient@VENet@@PBDI@Z 0057e8a0 f i UDPProxyClient.obj
 0002:000c79f0       ?Insert@?$List@UServerWithPing@UDPProxyClient@VENet@@@DataStructures@@QAEXABUServerWithPing@UDPProxyClient@VENet@@PBDI@Z 0057e9f0 f i UDPProxyClient.obj
 0002:000c7b40       ?OnPingServers@UDPProxyClient@VENet@@IAEXPAUPacket@2@@Z 0057eb40 f   UDPProxyClient.obj
 0002:000c7eb0       ?OnRakPeerShutdown@UDPProxyClient@VENet@@UAEXXZ 0057eeb0 f   UDPProxyClient.obj
 0002:000c7f00       ?OnReceive@UDPProxyClient@VENet@@UAE?AW4PluginReceiveResult@2@PAUPacket@2@@Z 0057ef00 f   UDPProxyClient.obj
 0002:000c8c20       ?Push@?$List@PAUPingServerGroup@UDPProxyClient@VENet@@@DataStructures@@QAEXABQAUPingServerGroup@UDPProxyClient@VENet@@PBDI@Z 0057fc20 f i UDPProxyClient.obj
 0002:000c8c80       ?Push@?$List@UServerWithPing@UDPProxyClient@VENet@@@DataStructures@@QAEXABUServerWithPing@UDPProxyClient@VENet@@PBDI@Z 0057fc80 f i UDPProxyClient.obj
 0002:000c8ce0       ?RemoveAtIndex@?$List@PAUPingServerGroup@UDPProxyClient@VENet@@@DataStructures@@QAEXI@Z 0057fce0 f i UDPProxyClient.obj
 0002:000c8dd0       ?RemoveFromEnd@?$List@PAUPingServerGroup@UDPProxyClient@VENet@@@DataStructures@@QAEXI@Z 0057fdd0 f i UDPProxyClient.obj
 0002:000c8e70       ?RequestForwarding@UDPProxyClient@VENet@@QAE_NUSystemAddress@2@00IPAVBitStream@2@@Z 0057fe70 f   UDPProxyClient.obj
 0002:000c9160       ?RequestForwarding@UDPProxyClient@VENet@@QAE_NUSystemAddress@2@0UVENetGUID@2@IPAVBitStream@2@@Z 00580160 f   UDPProxyClient.obj
 0002:000c9450       ?SendPingedServersToCoordinator@PingServerGroup@UDPProxyClient@VENet@@QAEXPAVVEPeerInterface@3@@Z 00580450 f   UDPProxyClient.obj
 0002:000c96d0       ?SetResultHandler@UDPProxyClient@VENet@@QAEXPAUUDPProxyClientResultHandler@2@@Z 005806d0 f   UDPProxyClient.obj
 0002:000c9720       ?Size@?$List@PAUPingServerGroup@UDPProxyClient@VENet@@@DataStructures@@QBEIXZ 00580720 f i UDPProxyClient.obj
 0002:000c9760       ?Size@?$List@UServerWithPing@UDPProxyClient@VENet@@@DataStructures@@QBEIXZ 00580760 f i UDPProxyClient.obj
 0002:000c97a0       ?Update@UDPProxyClient@VENet@@UAEXXZ 005807a0 f   UDPProxyClient.obj
 0002:000c98b0       ??$OP_DELETE@UForwardingRequest@UDPProxyCoordinator@VENet@@@VENet@@YAXPAUForwardingRequest@UDPProxyCoordinator@0@PBDI@Z 005808b0 f i UDPProxyCoordinator.obj
 0002:000c9940       ??$OP_DELETE@VUDPProxyCoordinator@VENet@@@VENet@@YAXPAVUDPProxyCoordinator@0@PBDI@Z 00580940 f i UDPProxyCoordinator.obj
 0002:000c99e0       ??$OP_DELETE_ARRAY@PAUForwardingRequest@UDPProxyCoordinator@VENet@@@VENet@@YAXPAPAUForwardingRequest@UDPProxyCoordinator@0@PBDI@Z 005809e0 f i UDPProxyCoordinator.obj
 0002:000c9a40       ??$OP_DELETE_ARRAY@UServerWithPing@UDPProxyCoordinator@VENet@@@VENet@@YAXPAUServerWithPing@UDPProxyCoordinator@0@PBDI@Z 00580a40 f i UDPProxyCoordinator.obj
 0002:000c9aa0       ??$OP_NEW@UForwardingRequest@UDPProxyCoordinator@VENet@@@VENet@@YAPAUForwardingRequest@UDPProxyCoordinator@0@PBDI@Z 00580aa0 f i UDPProxyCoordinator.obj
 0002:000c9b90       ??$OP_NEW@VUDPProxyCoordinator@VENet@@@VENet@@YAPAVUDPProxyCoordinator@0@PBDI@Z 00580b90 f i UDPProxyCoordinator.obj
 0002:000c9c70       ??$OP_NEW_ARRAY@PAUForwardingRequest@UDPProxyCoordinator@VENet@@@VENet@@YAPAPAUForwardingRequest@UDPProxyCoordinator@0@HPBDI@Z 00580c70 f i UDPProxyCoordinator.obj
 0002:000c9cf0       ??$OP_NEW_ARRAY@UServerWithPing@UDPProxyCoordinator@VENet@@@VENet@@YAPAUServerWithPing@UDPProxyCoordinator@0@HPBDI@Z 00580cf0 f i UDPProxyCoordinator.obj
 0002:000c9e20       ??0?$List@PAUForwardingRequest@UDPProxyCoordinator@VENet@@@DataStructures@@QAE@XZ 00580e20 f i UDPProxyCoordinator.obj
 0002:000c9e80       ??0?$List@UServerWithPing@UDPProxyCoordinator@VENet@@@DataStructures@@QAE@XZ 00580e80 f i UDPProxyCoordinator.obj
 0002:000c9ee0       ??0?$OrderedList@GUServerWithPing@UDPProxyCoordinator@VENet@@$1?ServerWithPingComp@23@KAHABGABU123@@Z@DataStructures@@QAE@XZ 00580ee0 f i UDPProxyCoordinator.obj
 0002:000c9f40       ??0?$OrderedList@USenderAndTargetAddress@UDPProxyCoordinator@VENet@@PAUForwardingRequest@23@$1?ForwardingRequestComp@23@KAHABU123@ABQAU423@@Z@DataStructures@@QAE@XZ 00580f40 f i UDPProxyCoordinator.obj
 0002:000c9fa0       ??0ForwardingRequest@UDPProxyCoordinator@VENet@@QAE@XZ 00580fa0 f i UDPProxyCoordinator.obj
 0002:000ca0b0       ??0SenderAndTargetAddress@UDPProxyCoordinator@VENet@@QAE@XZ 005810b0 f i UDPProxyCoordinator.obj
 0002:000ca130       ??0ServerWithPing@UDPProxyCoordinator@VENet@@QAE@XZ 00581130 f i UDPProxyCoordinator.obj
 0002:000ca190       ??0UDPProxyCoordinator@VENet@@QAE@XZ 00581190 f   UDPProxyCoordinator.obj
 0002:000ca270       ??1?$List@PAUForwardingRequest@UDPProxyCoordinator@VENet@@@DataStructures@@QAE@XZ 00581270 f i UDPProxyCoordinator.obj
 0002:000ca2e0       ??1?$List@UServerWithPing@UDPProxyCoordinator@VENet@@@DataStructures@@QAE@XZ 005812e0 f i UDPProxyCoordinator.obj
 0002:000ca350       ??1?$OrderedList@GUServerWithPing@UDPProxyCoordinator@VENet@@$1?ServerWithPingComp@23@KAHABGABU123@@Z@DataStructures@@QAE@XZ 00581350 f i UDPProxyCoordinator.obj
 0002:000ca400       ??1?$OrderedList@USenderAndTargetAddress@UDPProxyCoordinator@VENet@@PAUForwardingRequest@23@$1?ForwardingRequestComp@23@KAHABU123@ABQAU423@@Z@DataStructures@@QAE@XZ 00581400 f i UDPProxyCoordinator.obj
 0002:000ca4b0       ??1ForwardingRequest@UDPProxyCoordinator@VENet@@QAE@XZ 005814b0 f i UDPProxyCoordinator.obj
 0002:000ca590       ??1UDPProxyCoordinator@VENet@@UAE@XZ 00581590 f   UDPProxyCoordinator.obj
 0002:000ca680       ??4SenderAndTargetAddress@UDPProxyCoordinator@VENet@@QAEAAU012@ABU012@@Z 00581680 f i UDPProxyCoordinator.obj
 0002:000ca720       ??4ServerWithPing@UDPProxyCoordinator@VENet@@QAEAAU012@ABU012@@Z 00581720 f i UDPProxyCoordinator.obj
 0002:000ca790       ??A?$List@PAUForwardingRequest@UDPProxyCoordinator@VENet@@@DataStructures@@QBEAAPAUForwardingRequest@UDPProxyCoordinator@VENet@@I@Z 00581790 f i UDPProxyCoordinator.obj
 0002:000ca830       ??A?$List@UServerWithPing@UDPProxyCoordinator@VENet@@@DataStructures@@QBEAAUServerWithPing@UDPProxyCoordinator@VENet@@I@Z 00581830 f i UDPProxyCoordinator.obj
 0002:000ca8d0       ??A?$OrderedList@GUServerWithPing@UDPProxyCoordinator@VENet@@$1?ServerWithPingComp@23@KAHABGABU123@@Z@DataStructures@@QBEAAUServerWithPing@UDPProxyCoordinator@VENet@@I@Z 005818d0 f i UDPProxyCoordinator.obj
 0002:000ca930       ??A?$OrderedList@USenderAndTargetAddress@UDPProxyCoordinator@VENet@@PAUForwardingRequest@23@$1?ForwardingRequestComp@23@KAHABU123@ABQAU423@@Z@DataStructures@@QBEAAPAUForwardingRequest@UDPProxyCoordinator@VENet@@I@Z 00581930 f i UDPProxyCoordinator.obj
 0002:000ca990       ??A?$Queue@USystemAddress@VENet@@@DataStructures@@QBEAAUSystemAddress@VENet@@I@Z 00581990 f i UDPProxyCoordinator.obj
 0002:000caa60       ??_GForwardingRequest@UDPProxyCoordinator@VENet@@QAEPAXI@Z 00581a60 f i UDPProxyCoordinator.obj
 0002:000caad0       ??_EUDPProxyCoordinator@VENet@@UAEPAXI@Z 00581ad0 f i UDPProxyCoordinator.obj
 0002:000caad0       ??_GUDPProxyCoordinator@VENet@@UAEPAXI@Z 00581ad0 f i UDPProxyCoordinator.obj
 0002:000cab40       ?Clear@?$List@PAUForwardingRequest@UDPProxyCoordinator@VENet@@@DataStructures@@QAEX_NPBDI@Z 00581b40 f i UDPProxyCoordinator.obj
 0002:000cabf0       ?Clear@?$List@UServerWithPing@UDPProxyCoordinator@VENet@@@DataStructures@@QAEX_NPBDI@Z 00581bf0 f i UDPProxyCoordinator.obj
 0002:000caca0       ?Clear@?$OrderedList@GUServerWithPing@UDPProxyCoordinator@VENet@@$1?ServerWithPingComp@23@KAHABGABU123@@Z@DataStructures@@QAEX_NPBDI@Z 00581ca0 f i UDPProxyCoordinator.obj
 0002:000cad10       ?Clear@?$OrderedList@USenderAndTargetAddress@UDPProxyCoordinator@VENet@@PAUForwardingRequest@23@$1?ForwardingRequestComp@23@KAHABU123@ABQAU423@@Z@DataStructures@@QAEX_NPBDI@Z 00581d10 f i UDPProxyCoordinator.obj
 0002:000cad80       ?Clear@UDPProxyCoordinator@VENet@@IAEXXZ 00581d80 f   UDPProxyCoordinator.obj
 0002:000cae70       ?DestroyInstance@UDPProxyCoordinator@VENet@@SAXPAV12@@Z 00581e70 f   UDPProxyCoordinator.obj
 0002:000caed0       ?ForwardingRequestComp@UDPProxyCoordinator@VENet@@KAHABUSenderAndTargetAddress@12@ABQAUForwardingRequest@12@@Z 00581ed0 f   UDPProxyCoordinator.obj
 0002:000cafb0       ?GetIndexFromKey@?$OrderedList@GUServerWithPing@UDPProxyCoordinator@VENet@@$1?ServerWithPingComp@23@KAHABGABU123@@Z@DataStructures@@QBEIABGPA_NP6AH0ABUServerWithPing@UDPProxyCoordinator@VENet@@@Z@Z 00581fb0 f i UDPProxyCoordinator.obj
 0002:000cb0f0       ?GetIndexFromKey@?$OrderedList@USenderAndTargetAddress@UDPProxyCoordinator@VENet@@PAUForwardingRequest@23@$1?ForwardingRequestComp@23@KAHABU123@ABQAU423@@Z@DataStructures@@QBEIABUSenderAndTargetAddress@UDPProxyCoordinator@VENet@@PA_NP6AH0ABQAUForwardingRequest@45@@Z@Z 005820f0 f i UDPProxyCoordinator.obj
 0002:000cb230       ?GetIndexOf@?$List@USystemAddress@VENet@@@DataStructures@@QBEIABUSystemAddress@VENet@@@Z 00582230 f i UDPProxyCoordinator.obj
 0002:000cb2d0       ?GetInstance@UDPProxyCoordinator@VENet@@SAPAV12@XZ 005822d0 f   UDPProxyCoordinator.obj
 0002:000cb330       ?Insert@?$List@PAUForwardingRequest@UDPProxyCoordinator@VENet@@@DataStructures@@QAEXABQAUForwardingRequest@UDPProxyCoordinator@VENet@@IPBDI@Z 00582330 f i UDPProxyCoordinator.obj
 0002:000cb4f0       ?Insert@?$List@UServerWithPing@UDPProxyCoordinator@VENet@@@DataStructures@@QAEXABUServerWithPing@UDPProxyCoordinator@VENet@@IPBDI@Z 005824f0 f i UDPProxyCoordinator.obj
 0002:000cb6d0       ?Insert@?$List@UServerWithPing@UDPProxyCoordinator@VENet@@@DataStructures@@QAEXABUServerWithPing@UDPProxyCoordinator@VENet@@PBDI@Z 005826d0 f i UDPProxyCoordinator.obj
 0002:000cb820       ?Insert@?$OrderedList@GUServerWithPing@UDPProxyCoordinator@VENet@@$1?ServerWithPingComp@23@KAHABGABU123@@Z@DataStructures@@QAEIABGABUServerWithPing@UDPProxyCoordinator@VENet@@_NPBDIP6AH01@Z@Z 00582820 f i UDPProxyCoordinator.obj
 0002:000cb970       ?InsertAtIndex@?$OrderedList@USenderAndTargetAddress@UDPProxyCoordinator@VENet@@PAUForwardingRequest@23@$1?ForwardingRequestComp@23@KAHABU123@ABQAU423@@Z@DataStructures@@QAEXABQAUForwardingRequest@UDPProxyCoordinator@VENet@@IPBDI@Z 00582970 f i UDPProxyCoordinator.obj
 0002:000cb9e0       ?OnClosedConnection@UDPProxyCoordinator@VENet@@UAEXABUSystemAddress@2@UVENetGUID@2@W4PI2_LostConnectionReason@2@@Z 005829e0 f   UDPProxyCoordinator.obj
 0002:000cbb80       ?OnForwardingReplyFromServerToCoordinator@UDPProxyCoordinator@VENet@@IAEXPAUPacket@2@@Z 00582b80 f   UDPProxyCoordinator.obj
 0002:000cc350       ?OnForwardingRequestFromClientToCoordinator@UDPProxyCoordinator@VENet@@IAEXPAUPacket@2@@Z 00583350 f   UDPProxyCoordinator.obj
 0002:000cd230       ?OnLoginRequestFromServerToCoordinator@UDPProxyCoordinator@VENet@@IAEXPAUPacket@2@@Z 00584230 f   UDPProxyCoordinator.obj
 0002:000cd7b0       ?OnPingServersReplyFromClientToCoordinator@UDPProxyCoordinator@VENet@@IAEXPAUPacket@2@@Z 005847b0 f   UDPProxyCoordinator.obj
 0002:000cdd60       ?OnReceive@UDPProxyCoordinator@VENet@@UAE?AW4PluginReceiveResult@2@PAUPacket@2@@Z 00584d60 f   UDPProxyCoordinator.obj
 0002:000cdea0       ?OrderRemainingServersToTry@ForwardingRequest@UDPProxyCoordinator@VENet@@QAEXXZ 00584ea0 f   UDPProxyCoordinator.obj
 0002:000ce1b0       ?Remove@?$OrderedList@USenderAndTargetAddress@UDPProxyCoordinator@VENet@@PAUForwardingRequest@23@$1?ForwardingRequestComp@23@KAHABU123@ABQAU423@@Z@DataStructures@@QAEIABUSenderAndTargetAddress@UDPProxyCoordinator@VENet@@P6AH0ABQAUForwardingRequest@45@@Z@Z 005851b0 f i UDPProxyCoordinator.obj
 0002:000ce2b0       ?RemoveAtIndex@?$List@PAUForwardingRequest@UDPProxyCoordinator@VENet@@@DataStructures@@QAEXI@Z 005852b0 f i UDPProxyCoordinator.obj
 0002:000ce3a0       ?RemoveAtIndex@?$OrderedList@USenderAndTargetAddress@UDPProxyCoordinator@VENet@@PAUForwardingRequest@23@$1?ForwardingRequestComp@23@KAHABU123@ABQAU423@@Z@DataStructures@@QAEXI@Z 005853a0 f i UDPProxyCoordinator.obj
 0002:000ce400       ?RemoveAtIndexFast@?$List@USystemAddress@VENet@@@DataStructures@@QAEXI@Z 00585400 f i UDPProxyCoordinator.obj
 0002:000ce4d0       ?RemoveFromEnd@?$List@PAUForwardingRequest@UDPProxyCoordinator@VENet@@@DataStructures@@QAEXI@Z 005854d0 f i UDPProxyCoordinator.obj
 0002:000ce570       ?SendAllBusy@UDPProxyCoordinator@VENet@@IAEXUSystemAddress@2@0UVENetGUID@2@0@Z 00585570 f   UDPProxyCoordinator.obj
 0002:000ce730       ?SendForwardingRequest@UDPProxyCoordinator@VENet@@IAEXUSystemAddress@2@00I@Z 00585730 f   UDPProxyCoordinator.obj
 0002:000ce8f0       ?ServerWithPingComp@UDPProxyCoordinator@VENet@@KAHABGABUServerWithPing@12@@Z 005858f0 f   UDPProxyCoordinator.obj
 0002:000ce960       ?SetRemoteLoginPassword@UDPProxyCoordinator@VENet@@QAEXVVEString@2@@Z 00585960 f   UDPProxyCoordinator.obj
 0002:000cea10       ?Size@?$List@PAUForwardingRequest@UDPProxyCoordinator@VENet@@@DataStructures@@QBEIXZ 00585a10 f i UDPProxyCoordinator.obj
 0002:000cea50       ?Size@?$List@UServerWithPing@UDPProxyCoordinator@VENet@@@DataStructures@@QBEIXZ 00585a50 f i UDPProxyCoordinator.obj
 0002:000cea90       ?Size@?$OrderedList@GUServerWithPing@UDPProxyCoordinator@VENet@@$1?ServerWithPingComp@23@KAHABGABU123@@Z@DataStructures@@QBEIXZ 00585a90 f i UDPProxyCoordinator.obj
 0002:000ceae0       ?Size@?$OrderedList@USenderAndTargetAddress@UDPProxyCoordinator@VENet@@PAUForwardingRequest@23@$1?ForwardingRequestComp@23@KAHABU123@ABQAU423@@Z@DataStructures@@QBEIXZ 00585ae0 f i UDPProxyCoordinator.obj
 0002:000ceb30       ?Size@?$Queue@USystemAddress@VENet@@@DataStructures@@QBEIXZ 00585b30 f i UDPProxyCoordinator.obj
 0002:000ceba0       ?TryNextServer@UDPProxyCoordinator@VENet@@IAEXUSenderAndTargetAddress@12@PAUForwardingRequest@12@@Z 00585ba0 f   UDPProxyCoordinator.obj
 0002:000cee00       ?Update@UDPProxyCoordinator@VENet@@UAEXXZ 00585e00 f   UDPProxyCoordinator.obj
 0002:000cef60       ??$OP_DELETE@VUDPProxyServer@VENet@@@VENet@@YAXPAVUDPProxyServer@0@PBDI@Z 00585f60 f i UDPProxyServer.obj
 0002:000cf000       ??$OP_NEW@VUDPProxyServer@VENet@@@VENet@@YAPAVUDPProxyServer@0@PBDI@Z 00586000 f i UDPProxyServer.obj
 0002:000cf0f0       ??$defaultOrderedListComparison@USystemAddress@VENet@@U12@@DataStructures@@YAHABUSystemAddress@VENet@@0@Z 005860f0 f i UDPProxyServer.obj
 0002:000cf170       ??0?$OrderedList@USystemAddress@VENet@@U12@$1??$defaultOrderedListComparison@USystemAddress@VENet@@U12@@DataStructures@@YAHABU12@0@Z@DataStructures@@QAE@XZ 00586170 f i UDPProxyServer.obj
 0002:000cf1d0       ??0UDPProxyServer@VENet@@QAE@XZ 005861d0 f   UDPProxyServer.obj
 0002:000cf2f0       ??1?$OrderedList@USystemAddress@VENet@@U12@$1??$defaultOrderedListComparison@USystemAddress@VENet@@U12@@DataStructures@@YAHABU12@0@Z@DataStructures@@QAE@XZ 005862f0 f i UDPProxyServer.obj
 0002:000cf3a0       ??1UDPProxyServer@VENet@@UAE@XZ 005863a0 f   UDPProxyServer.obj
 0002:000cf4a0       ??_GUDPProxyServer@VENet@@UAEPAXI@Z 005864a0 f i UDPProxyServer.obj
 0002:000cf4a0       ??_EUDPProxyServer@VENet@@UAEPAXI@Z 005864a0 f i UDPProxyServer.obj
 0002:000cf510       ?Clear@?$OrderedList@USystemAddress@VENet@@U12@$1??$defaultOrderedListComparison@USystemAddress@VENet@@U12@@DataStructures@@YAHABU12@0@Z@DataStructures@@QAEX_NPBDI@Z 00586510 f i UDPProxyServer.obj
 0002:000cf580       ?DestroyInstance@UDPProxyServer@VENet@@SAXPAV12@@Z 00586580 f   UDPProxyServer.obj
 0002:000cf5e0       ?GetIndexFromKey@?$OrderedList@USystemAddress@VENet@@U12@$1??$defaultOrderedListComparison@USystemAddress@VENet@@U12@@DataStructures@@YAHABU12@0@Z@DataStructures@@QBEIABUSystemAddress@VENet@@PA_NP6AH00@Z@Z 005865e0 f i UDPProxyServer.obj
 0002:000cf720       ?GetInstance@UDPProxyServer@VENet@@SAPAV12@XZ 00586720 f   UDPProxyServer.obj
 0002:000cf780       ?Insert@?$List@USystemAddress@VENet@@@DataStructures@@QAEXABUSystemAddress@VENet@@IPBDI@Z 00586780 f i UDPProxyServer.obj
 0002:000cf960       ?Insert@?$OrderedList@USystemAddress@VENet@@U12@$1??$defaultOrderedListComparison@USystemAddress@VENet@@U12@@DataStructures@@YAHABU12@0@Z@DataStructures@@QAEIABUSystemAddress@VENet@@0_NPBDIP6AH00@Z@Z 00586960 f i UDPProxyServer.obj
 0002:000cfab0       ?InsertAtIndex@?$OrderedList@USystemAddress@VENet@@U12@$1??$defaultOrderedListComparison@USystemAddress@VENet@@U12@@DataStructures@@YAHABU12@0@Z@DataStructures@@QAEXABUSystemAddress@VENet@@IPBDI@Z 00586ab0 f i UDPProxyServer.obj
 0002:000cfb20       ?LoginToCoordinator@UDPProxyServer@VENet@@QAE_NVVEString@2@USystemAddress@2@@Z 00586b20 f   UDPProxyServer.obj
 0002:000cfdd0       ?OnAttach@UDPProxyServer@VENet@@UAEXXZ 00586dd0 f   UDPProxyServer.obj
 0002:000cfe60       ?OnClosedConnection@UDPProxyServer@VENet@@UAEXABUSystemAddress@2@UVENetGUID@2@W4PI2_LostConnectionReason@2@@Z 00586e60 f   UDPProxyServer.obj
 0002:000cfee0       ?OnDetach@UDPProxyServer@VENet@@UAEXXZ 00586ee0 f   UDPProxyServer.obj
 0002:000cff40       ?OnForwardingRequestFromCoordinatorToServer@UDPProxyServer@VENet@@IAEXPAUPacket@2@@Z 00586f40 f   UDPProxyServer.obj
 0002:000d0360       ?OnRakPeerShutdown@UDPProxyServer@VENet@@UAEXXZ 00587360 f   UDPProxyServer.obj
 0002:000d0400       ?OnRakPeerStartup@UDPProxyServer@VENet@@UAEXXZ 00587400 f   UDPProxyServer.obj
 0002:000d0460       ?OnReceive@UDPProxyServer@VENet@@UAE?AW4PluginReceiveResult@2@PAUPacket@2@@Z 00587460 f   UDPProxyServer.obj
 0002:000d0910       ?RemoveAtIndex@?$List@USystemAddress@VENet@@@DataStructures@@QAEXI@Z 00587910 f i UDPProxyServer.obj
 0002:000d0a10       ?RemoveAtIndex@?$OrderedList@USystemAddress@VENet@@U12@$1??$defaultOrderedListComparison@USystemAddress@VENet@@U12@@DataStructures@@YAHABU12@0@Z@DataStructures@@QAEXI@Z 00587a10 f i UDPProxyServer.obj
 0002:000d0a70       ?RemoveFromEnd@?$List@USystemAddress@VENet@@@DataStructures@@QAEXI@Z 00587a70 f i UDPProxyServer.obj
 0002:000d0b10       ?RemoveIfExists@?$OrderedList@USystemAddress@VENet@@U12@$1??$defaultOrderedListComparison@USystemAddress@VENet@@U12@@DataStructures@@YAHABU12@0@Z@DataStructures@@QAEIABUSystemAddress@VENet@@P6AH00@Z@Z 00587b10 f i UDPProxyServer.obj
 0002:000d0be0       ?SetResultHandler@UDPProxyServer@VENet@@QAEXPAUUDPProxyServerResultHandler@2@@Z 00587be0 f   UDPProxyServer.obj
 0002:000d0c30       ?SetServerPublicIP@UDPProxyServer@VENet@@QAEXVVEString@2@@Z 00587c30 f   UDPProxyServer.obj
 0002:000d0ce0       ?SetSocketFamily@UDPProxyServer@VENet@@QAEXG@Z 00587ce0 f   UDPProxyServer.obj
 0002:000d0d30       ?Update@UDPProxyServer@VENet@@UAEXXZ 00587d30 f   UDPProxyServer.obj
 0002:000d0d70       ??$OP_DELETE_ARRAY@PAUChangedVariablesList@VariableDeltaSerializer@VENet@@@VENet@@YAXPAPAUChangedVariablesList@VariableDeltaSerializer@0@PBDI@Z 00587d70 f i VariableDeltaSerializer.obj
 0002:000d0dd0       ??$OP_DELETE_ARRAY@PAURemoteSystemVariableHistory@VariableDeltaSerializer@VENet@@@VENet@@YAXPAPAURemoteSystemVariableHistory@VariableDeltaSerializer@0@PBDI@Z 00587dd0 f i VariableDeltaSerializer.obj
 0002:000d0e30       ??$OP_NEW_ARRAY@PAUChangedVariablesList@VariableDeltaSerializer@VENet@@@VENet@@YAPAPAUChangedVariablesList@VariableDeltaSerializer@0@HPBDI@Z 00587e30 f i VariableDeltaSerializer.obj
 0002:000d0eb0       ??$OP_NEW_ARRAY@PAURemoteSystemVariableHistory@VariableDeltaSerializer@VENet@@@VENet@@YAPAPAURemoteSystemVariableHistory@VariableDeltaSerializer@0@HPBDI@Z 00587eb0 f i VariableDeltaSerializer.obj
 0002:000d0f30       ??0?$List@PAUChangedVariablesList@VariableDeltaSerializer@VENet@@@DataStructures@@QAE@XZ 00587f30 f i VariableDeltaSerializer.obj
 0002:000d0f90       ??0?$List@PAURemoteSystemVariableHistory@VariableDeltaSerializer@VENet@@@DataStructures@@QAE@XZ 00587f90 f i VariableDeltaSerializer.obj
 0002:000d0ff0       ??0?$MemoryPool@UChangedVariablesList@VariableDeltaSerializer@VENet@@@DataStructures@@QAE@XZ 00587ff0 f i VariableDeltaSerializer.obj
 0002:000d1050       ??0?$OrderedList@IPAUChangedVariablesList@VariableDeltaSerializer@VENet@@$1?UpdatedVariablesListPtrComp@23@KAHABIABQAU123@@Z@DataStructures@@QAE@XZ 00588050 f i VariableDeltaSerializer.obj
 0002:000d10b0       ??0RemoteSystemVariableHistory@VariableDeltaSerializer@VENet@@QAE@XZ 005880b0 f i VariableDeltaSerializer.obj
 0002:000d1170       ??0SerializationContext@VariableDeltaSerializer@VENet@@QAE@XZ 00588170 f   VariableDeltaSerializer.obj
 0002:000d11e0       ??0VariableDeltaSerializer@VENet@@QAE@XZ 005881e0 f   VariableDeltaSerializer.obj
 0002:000d12b0       ??1?$List@PAUChangedVariablesList@VariableDeltaSerializer@VENet@@@DataStructures@@QAE@XZ 005882b0 f i VariableDeltaSerializer.obj
 0002:000d1320       ??1?$List@PAURemoteSystemVariableHistory@VariableDeltaSerializer@VENet@@@DataStructures@@QAE@XZ 00588320 f i VariableDeltaSerializer.obj
 0002:000d1390       ??1?$MemoryPool@UChangedVariablesList@VariableDeltaSerializer@VENet@@@DataStructures@@QAE@XZ 00588390 f i VariableDeltaSerializer.obj
 0002:000d13f0       ??1?$OrderedList@IPAUChangedVariablesList@VariableDeltaSerializer@VENet@@$1?UpdatedVariablesListPtrComp@23@KAHABIABQAU123@@Z@DataStructures@@QAE@XZ 005883f0 f i VariableDeltaSerializer.obj
 0002:000d14a0       ??1RemoteSystemVariableHistory@VariableDeltaSerializer@VENet@@QAE@XZ 005884a0 f i VariableDeltaSerializer.obj
 0002:000d1550       ??1SerializationContext@VariableDeltaSerializer@VENet@@QAE@XZ 00588550 f   VariableDeltaSerializer.obj
 0002:000d1590       ??1VariableDeltaSerializer@VENet@@QAE@XZ 00588590 f   VariableDeltaSerializer.obj
 0002:000d1660       ??A?$List@PAUChangedVariablesList@VariableDeltaSerializer@VENet@@@DataStructures@@QBEAAPAUChangedVariablesList@VariableDeltaSerializer@VENet@@I@Z 00588660 f i VariableDeltaSerializer.obj
 0002:000d1700       ??A?$List@PAURemoteSystemVariableHistory@VariableDeltaSerializer@VENet@@@DataStructures@@QBEAAPAURemoteSystemVariableHistory@VariableDeltaSerializer@VENet@@I@Z 00588700 f i VariableDeltaSerializer.obj
 0002:000d17a0       ??A?$OrderedList@IPAUChangedVariablesList@VariableDeltaSerializer@VENet@@$1?UpdatedVariablesListPtrComp@23@KAHABIABQAU123@@Z@DataStructures@@QBEAAPAUChangedVariablesList@VariableDeltaSerializer@VENet@@I@Z 005887a0 f i VariableDeltaSerializer.obj
 0002:000d1800       ??_GRemoteSystemVariableHistory@VariableDeltaSerializer@VENet@@QAEPAXI@Z 00588800 f i VariableDeltaSerializer.obj
 0002:000d1870       ?AddRemoteSystemVariableHistory@VariableDeltaSerializer@VENet@@QAEXUVENetGUID@2@@Z 00588870 f   VariableDeltaSerializer.obj
 0002:000d18b0       ?AllocChangedVariablesList@VariableDeltaSerializer@VENet@@IAEPAUChangedVariablesList@12@XZ 005888b0 f   VariableDeltaSerializer.obj
 0002:000d1940       ?Allocate@?$MemoryPool@UChangedVariablesList@VariableDeltaSerializer@VENet@@@DataStructures@@QAEPAUChangedVariablesList@VariableDeltaSerializer@VENet@@PBDI@Z 00588940 f i VariableDeltaSerializer.obj
 0002:000d1c60       ?BeginDeserialize@VariableDeltaSerializer@VENet@@QAEXPAUDeserializationContext@12@PAVBitStream@2@@Z 00588c60 f   VariableDeltaSerializer.obj
 0002:000d1cb0       ?BeginIdenticalSerialize@VariableDeltaSerializer@VENet@@QAEXPAUSerializationContext@12@_NPAVBitStream@2@@Z 00588cb0 f   VariableDeltaSerializer.obj
 0002:000d1da0       ?BeginUniqueSerialize@VariableDeltaSerializer@VENet@@QAEXPAUSerializationContext@12@UVENetGUID@2@PAVBitStream@2@@Z 00588da0 f   VariableDeltaSerializer.obj
 0002:000d1ec0       ?BeginUnreliableAckedSerialize@VariableDeltaSerializer@VENet@@QAEXPAUSerializationContext@12@UVENetGUID@2@PAVBitStream@2@I@Z 00588ec0 f   VariableDeltaSerializer.obj
 0002:000d2000       ?BlocksPerPage@?$MemoryPool@UChangedVariablesList@VariableDeltaSerializer@VENet@@@DataStructures@@IBEHXZ 00589000 f i VariableDeltaSerializer.obj
 0002:000d2050       ?Clear@?$List@PAUChangedVariablesList@VariableDeltaSerializer@VENet@@@DataStructures@@QAEX_NPBDI@Z 00589050 f i VariableDeltaSerializer.obj
 0002:000d2100       ?Clear@?$List@PAURemoteSystemVariableHistory@VariableDeltaSerializer@VENet@@@DataStructures@@QAEX_NPBDI@Z 00589100 f i VariableDeltaSerializer.obj
 0002:000d21b0       ?Clear@?$MemoryPool@UChangedVariablesList@VariableDeltaSerializer@VENet@@@DataStructures@@QAEXPBDI@Z 005891b0 f i VariableDeltaSerializer.obj
 0002:000d23f0       ?Clear@?$OrderedList@IPAUChangedVariablesList@VariableDeltaSerializer@VENet@@$1?UpdatedVariablesListPtrComp@23@KAHABIABQAU123@@Z@DataStructures@@QAEX_NPBDI@Z 005893f0 f i VariableDeltaSerializer.obj
 0002:000d2460       ?DirtyAndFreeVarsAssociatedWithReceipt@VariableDeltaSerializer@VENet@@IAEXUVENetGUID@2@I@Z 00589460 f   VariableDeltaSerializer.obj
 0002:000d25c0       ?EndDeserialize@VariableDeltaSerializer@VENet@@QAEXPAUDeserializationContext@12@@Z 005895c0 f   VariableDeltaSerializer.obj
 0002:000d2600       ?EndSerialize@VariableDeltaSerializer@VENet@@QAEXPAUSerializationContext@12@@Z 00589600 f   VariableDeltaSerializer.obj
 0002:000d2770       ?FreeChangedVariablesList@VariableDeltaSerializer@VENet@@IAEXPAUChangedVariablesList@12@@Z 00589770 f   VariableDeltaSerializer.obj
 0002:000d27e0       ?FreeVarsAssociatedWithReceipt@VariableDeltaSerializer@VENet@@IAEXUVENetGUID@2@I@Z 005897e0 f   VariableDeltaSerializer.obj
 0002:000d2920       ?GetIndexFromKey@?$OrderedList@IPAUChangedVariablesList@VariableDeltaSerializer@VENet@@$1?UpdatedVariablesListPtrComp@23@KAHABIABQAU123@@Z@DataStructures@@QBEIABIPA_NP6AH0ABQAUChangedVariablesList@VariableDeltaSerializer@VENet@@@Z@Z 00589920 f i VariableDeltaSerializer.obj
 0002:000d2a60       ?GetRemoteSystemHistoryListIndex@VariableDeltaSerializer@VENet@@IAEIUVENetGUID@2@@Z 00589a60 f   VariableDeltaSerializer.obj
 0002:000d2b00       ?GetRemoteSystemVariableHistory@VariableDeltaSerializer@VENet@@IAEPAURemoteSystemVariableHistory@12@UVENetGUID@2@@Z 00589b00 f   VariableDeltaSerializer.obj
 0002:000d2b90       ?GetVarsWrittenPerRemoteSystemListIndex@VariableDeltaSerializer@VENet@@IAEIUVENetGUID@2@@Z 00589b90 f   VariableDeltaSerializer.obj
 0002:000d2c30       ?InitPage@?$MemoryPool@UChangedVariablesList@VariableDeltaSerializer@VENet@@@DataStructures@@IAE_NPAUPage@12@0PBDI@Z 00589c30 f i VariableDeltaSerializer.obj
 0002:000d2dc0       ?Insert@?$List@PAUChangedVariablesList@VariableDeltaSerializer@VENet@@@DataStructures@@QAEXABQAUChangedVariablesList@VariableDeltaSerializer@VENet@@IPBDI@Z 00589dc0 f i VariableDeltaSerializer.obj
 0002:000d2f80       ?Insert@?$List@PAUChangedVariablesList@VariableDeltaSerializer@VENet@@@DataStructures@@QAEXABQAUChangedVariablesList@VariableDeltaSerializer@VENet@@PBDI@Z 00589f80 f i VariableDeltaSerializer.obj
 0002:000d30d0       ?Insert@?$List@PAURemoteSystemVariableHistory@VariableDeltaSerializer@VENet@@@DataStructures@@QAEXABQAURemoteSystemVariableHistory@VariableDeltaSerializer@VENet@@PBDI@Z 0058a0d0 f i VariableDeltaSerializer.obj
 0002:000d3220       ?Insert@?$OrderedList@IPAUChangedVariablesList@VariableDeltaSerializer@VENet@@$1?UpdatedVariablesListPtrComp@23@KAHABIABQAU123@@Z@DataStructures@@QAEIABIABQAUChangedVariablesList@VariableDeltaSerializer@VENet@@_NPBDIP6AH01@Z@Z 0058a220 f i VariableDeltaSerializer.obj
 0002:000d3370       ?OnMessageReceipt@VariableDeltaSerializer@VENet@@QAEXUVENetGUID@2@I_N@Z 0058a370 f   VariableDeltaSerializer.obj
 0002:000d3430       ?OnPreSerializeTick@VariableDeltaSerializer@VENet@@QAEXXZ 0058a430 f   VariableDeltaSerializer.obj
 0002:000d3470       ?Push@?$List@PAURemoteSystemVariableHistory@VariableDeltaSerializer@VENet@@@DataStructures@@QAEXABQAURemoteSystemVariableHistory@VariableDeltaSerializer@VENet@@PBDI@Z 0058a470 f i VariableDeltaSerializer.obj
 0002:000d34d0       ?Release@?$MemoryPool@UChangedVariablesList@VariableDeltaSerializer@VENet@@@DataStructures@@QAEXPAUChangedVariablesList@VariableDeltaSerializer@VENet@@PBDI@Z 0058a4d0 f i VariableDeltaSerializer.obj
 0002:000d37e0       ?RemoveAtIndex@?$List@PAUChangedVariablesList@VariableDeltaSerializer@VENet@@@DataStructures@@QAEXI@Z 0058a7e0 f i VariableDeltaSerializer.obj
 0002:000d38d0       ?RemoveAtIndex@?$OrderedList@IPAUChangedVariablesList@VariableDeltaSerializer@VENet@@$1?UpdatedVariablesListPtrComp@23@KAHABIABQAU123@@Z@DataStructures@@QAEXI@Z 0058a8d0 f i VariableDeltaSerializer.obj
 0002:000d3930       ?RemoveAtIndexFast@?$List@PAURemoteSystemVariableHistory@VariableDeltaSerializer@VENet@@@DataStructures@@QAEXI@Z 0058a930 f i VariableDeltaSerializer.obj
 0002:000d39f0       ?RemoveFromEnd@?$List@PAUChangedVariablesList@VariableDeltaSerializer@VENet@@@DataStructures@@QAEXI@Z 0058a9f0 f i VariableDeltaSerializer.obj
 0002:000d3a90       ?RemoveRemoteSystemVariableHistory@VariableDeltaSerializer@VENet@@IAEXXZ 0058aa90 f   VariableDeltaSerializer.obj
 0002:000d3bf0       ?RemoveRemoteSystemVariableHistory@VariableDeltaSerializer@VENet@@QAEXUVENetGUID@2@@Z 0058abf0 f   VariableDeltaSerializer.obj
 0002:000d3d80       ?Size@?$List@PAUChangedVariablesList@VariableDeltaSerializer@VENet@@@DataStructures@@QBEIXZ 0058ad80 f i VariableDeltaSerializer.obj
 0002:000d3dc0       ?Size@?$List@PAURemoteSystemVariableHistory@VariableDeltaSerializer@VENet@@@DataStructures@@QBEIXZ 0058adc0 f i VariableDeltaSerializer.obj
 0002:000d3e00       ?Size@?$OrderedList@IPAUChangedVariablesList@VariableDeltaSerializer@VENet@@$1?UpdatedVariablesListPtrComp@23@KAHABIABQAU123@@Z@DataStructures@@QBEIXZ 0058ae00 f i VariableDeltaSerializer.obj
 0002:000d3e50       ?StartVariableHistoryWrite@VariableDeltaSerializer@VENet@@IAEPAURemoteSystemVariableHistory@12@UVENetGUID@2@@Z 0058ae50 f   VariableDeltaSerializer.obj
 0002:000d4020       ?StoreChangedVariablesList@VariableDeltaSerializer@VENet@@IAEXPAURemoteSystemVariableHistory@12@PAUChangedVariablesList@12@I@Z 0058b020 f   VariableDeltaSerializer.obj
 0002:000d40b0       ?UpdatedVariablesListPtrComp@VariableDeltaSerializer@VENet@@KAHABIABQAUChangedVariablesList@12@@Z 0058b0b0 f   VariableDeltaSerializer.obj
 0002:000d4120       ??$OP_DELETE_ARRAY@UVariableLastValueNode@VariableListDeltaTracker@VENet@@@VENet@@YAXPAUVariableLastValueNode@VariableListDeltaTracker@0@PBDI@Z 0058b120 f i VariableListDeltaTracker.obj
 0002:000d41b0       ??0?$List@UVariableLastValueNode@VariableListDeltaTracker@VENet@@@DataStructures@@QAE@XZ 0058b1b0 f i VariableListDeltaTracker.obj
 0002:000d4210       ??0VariableLastValueNode@VariableListDeltaTracker@VENet@@QAE@PBEH@Z 0058b210 f   VariableListDeltaTracker.obj
 0002:000d42c0       ??0VariableLastValueNode@VariableListDeltaTracker@VENet@@QAE@XZ 0058b2c0 f   VariableListDeltaTracker.obj
 0002:000d4310       ??0VariableListDeltaTracker@VENet@@QAE@XZ 0058b310 f   VariableListDeltaTracker.obj
 0002:000d4370       ??1?$List@UVariableLastValueNode@VariableListDeltaTracker@VENet@@@DataStructures@@QAE@XZ 0058b370 f i VariableListDeltaTracker.obj
 0002:000d43e0       ??1VariableLastValueNode@VariableListDeltaTracker@VENet@@QAE@XZ 0058b3e0 f   VariableListDeltaTracker.obj
 0002:000d4420       ??1VariableListDeltaTracker@VENet@@QAE@XZ 0058b420 f   VariableListDeltaTracker.obj
 0002:000d4520       ??A?$List@UVariableLastValueNode@VariableListDeltaTracker@VENet@@@DataStructures@@QBEAAUVariableLastValueNode@VariableListDeltaTracker@VENet@@I@Z 0058b520 f i VariableListDeltaTracker.obj
 0002:000d45c0       ??_EVariableLastValueNode@VariableListDeltaTracker@VENet@@QAEPAXI@Z 0058b5c0 f i VariableListDeltaTracker.obj
 0002:000d4680       ?FlagDirtyFromBitArray@VariableListDeltaTracker@VENet@@QAEXPAE@Z 0058b680 f   VariableListDeltaTracker.obj
 0002:000d4770       ?Size@?$List@UVariableLastValueNode@VariableListDeltaTracker@VENet@@@DataStructures@@QBEIXZ 0058b770 f i VariableListDeltaTracker.obj
 0002:000d47b0       ?StartWrite@VariableListDeltaTracker@VENet@@QAEXXZ 0058b7b0 f   VariableListDeltaTracker.obj
 0002:000d4800       ??$OP_DELETE_ARRAY@H@VENet@@YAXPAHPBDI@Z 0058b800 f i VariadicSQLParser.obj
 0002:000d4860       ??$OP_DELETE_ARRAY@PAD@VENet@@YAXPAPADPBDI@Z 0058b860 f i VariadicSQLParser.obj
 0002:000d48c0       ??$OP_DELETE_ARRAY@UIndexAndType@VariadicSQLParser@@@VENet@@YAXPAUIndexAndType@VariadicSQLParser@@PBDI@Z 0058b8c0 f i VariadicSQLParser.obj
 0002:000d4920       ??$OP_NEW_ARRAY@H@VENet@@YAPAHHPBDI@Z 0058b920 f i VariadicSQLParser.obj
 0002:000d49a0       ??$OP_NEW_ARRAY@PAD@VENet@@YAPAPADHPBDI@Z 0058b9a0 f i VariadicSQLParser.obj
 0002:000d4a20       ??$OP_NEW_ARRAY@UIndexAndType@VariadicSQLParser@@@VENet@@YAPAUIndexAndType@VariadicSQLParser@@HPBDI@Z 0058ba20 f i VariadicSQLParser.obj
 0002:000d4aa0       ??A?$List@UIndexAndType@VariadicSQLParser@@@DataStructures@@QBEAAUIndexAndType@VariadicSQLParser@@I@Z 0058baa0 f i VariadicSQLParser.obj
 0002:000d4b40       ?Clear@?$List@UIndexAndType@VariadicSQLParser@@@DataStructures@@QAEX_NPBDI@Z 0058bb40 f i VariadicSQLParser.obj
 0002:000d4bf0       ?ExtractArguments@VariadicSQLParser@@YAXPADABV?$List@UIndexAndType@VariadicSQLParser@@@DataStructures@@PAPAPADPAPAH@Z 0058bbf0 f   VariadicSQLParser.obj
 0002:000d51b0       ?FreeArguments@VariadicSQLParser@@YAXABV?$List@UIndexAndType@VariadicSQLParser@@@DataStructures@@PAPADPAH@Z 0058c1b0 f   VariadicSQLParser.obj
 0002:000d52a0       ?GetTypeMappingAtIndex@VariadicSQLParser@@YAPBDH@Z 0058c2a0 f   VariadicSQLParser.obj
 0002:000d52e0       ?GetTypeMappingIndex@@YAID@Z 0058c2e0 f   VariadicSQLParser.obj
 0002:000d5350       ?GetTypeMappingIndices@VariadicSQLParser@@YAXPBDAAV?$List@UIndexAndType@VariadicSQLParser@@@DataStructures@@@Z 0058c350 f   VariadicSQLParser.obj
 0002:000d54c0       ?Insert@?$List@UIndexAndType@VariadicSQLParser@@@DataStructures@@QAEXABUIndexAndType@VariadicSQLParser@@PBDI@Z 0058c4c0 f i VariadicSQLParser.obj
 0002:000d5620       ?Size@?$List@UIndexAndType@VariadicSQLParser@@@DataStructures@@QBEIXZ 0058c620 f i VariadicSQLParser.obj
 0002:000d5660       ?_RakMalloc@VENet@@YAPAXI@Z 0058c660 f   VEMemoryOverride.obj
 0002:000d56c0       ?_RakRealloc@VENet@@YAPAXPAXI@Z 0058c6c0 f   VEMemoryOverride.obj
 0002:000d5720       ?_RakFree@VENet@@YAXPAX@Z  0058c720 f   VEMemoryOverride.obj
 0002:000d5780       ?_RakMalloc_Ex@VENet@@YAPAXIPBDI@Z 0058c780 f   VEMemoryOverride.obj
 0002:000d57e0       ?_RakRealloc_Ex@VENet@@YAPAXPAXIPBDI@Z 0058c7e0 f   VEMemoryOverride.obj
 0002:000d5840       ?_RakFree_Ex@VENet@@YAXPAXPBDI@Z 0058c840 f   VEMemoryOverride.obj
 0002:000d58a0       ?_DLMallocMMap@VENet@@YAPAXI@Z 0058c8a0 f   VEMemoryOverride.obj
 0002:000d58d0       ?_DLMallocDirectMMap@VENet@@YAPAXI@Z 0058c8d0 f   VEMemoryOverride.obj
 0002:000d5900       ?_DLMallocMUnmap@VENet@@YAHPAXI@Z 0058c900 f   VEMemoryOverride.obj
 0002:000d5930       ?DefaultOutOfMemoryHandler@@YAXPBDJ@Z 0058c930 f   VEMemoryOverride.obj
 0002:000d59b0       ?FreeVENetFixedHeap@@YAXXZ 0058c9b0 f   VEMemoryOverride.obj
 0002:000d59e0       ?GetDLMallocDirectMMap@@YAP6APAXI@ZXZ 0058c9e0 f   VEMemoryOverride.obj
 0002:000d5a20       ?GetDLMallocMMap@@YAP6APAXI@ZXZ 0058ca20 f   VEMemoryOverride.obj
 0002:000d5a60       ?GetDLMallocMUnmap@@YAP6AHPAXI@ZXZ 0058ca60 f   VEMemoryOverride.obj
 0002:000d5aa0       ?GetFree@@YAP6AXPAX@ZXZ    0058caa0 f   VEMemoryOverride.obj
 0002:000d5ae0       ?GetFree_Ex@@YAP6AXPAXPBDI@ZXZ 0058cae0 f   VEMemoryOverride.obj
 0002:000d5b20       ?GetMalloc@@YAP6APAXI@ZXZ  0058cb20 f   VEMemoryOverride.obj
 0002:000d5b60       ?GetMalloc_Ex@@YAP6APAXIPBDI@ZXZ 0058cb60 f   VEMemoryOverride.obj
 0002:000d5ba0       ?GetRealloc@@YAP6APAXPAXI@ZXZ 0058cba0 f   VEMemoryOverride.obj
 0002:000d5be0       ?GetRealloc_Ex@@YAP6APAXPAXIPBDI@ZXZ 0058cbe0 f   VEMemoryOverride.obj
 0002:000d5c20       ?SetDLMallocDirectMMap@@YAXP6APAXI@Z@Z 0058cc20 f   VEMemoryOverride.obj
 0002:000d5c60       ?SetDLMallocMMap@@YAXP6APAXI@Z@Z 0058cc60 f   VEMemoryOverride.obj
 0002:000d5ca0       ?SetDLMallocMUnmap@@YAXP6AHPAXI@Z@Z 0058cca0 f   VEMemoryOverride.obj
 0002:000d5ce0       ?SetFree@@YAXP6AXPAX@Z@Z   0058cce0 f   VEMemoryOverride.obj
 0002:000d5d20       ?SetFree_Ex@@YAXP6AXPAXPBDI@Z@Z 0058cd20 f   VEMemoryOverride.obj
 0002:000d5d60       ?SetMalloc@@YAXP6APAXI@Z@Z 0058cd60 f   VEMemoryOverride.obj
 0002:000d5da0       ?SetMalloc_Ex@@YAXP6APAXIPBDI@Z@Z 0058cda0 f   VEMemoryOverride.obj
 0002:000d5de0       ?SetNotifyOutOfMemory@@YAXP6AXPBDJ@Z@Z 0058cde0 f   VEMemoryOverride.obj
 0002:000d5e20       ?SetRealloc@@YAXP6APAXPAXI@Z@Z 0058ce20 f   VEMemoryOverride.obj
 0002:000d5e60       ?SetRealloc_Ex@@YAXP6APAXPAXIPBDI@Z@Z 0058ce60 f   VEMemoryOverride.obj
 0002:000d5ea0       ?UseVENetFixedHeap@@YAXIP6APAXI@Z0P6AHPAXI@Z@Z 0058cea0 f   VEMemoryOverride.obj
 0002:000d5ed0       ?_DLFree@@YAXPAX@Z         0058ced0 f   VEMemoryOverride.obj
 0002:000d5f00       ?_DLFree_Ex@@YAXPAXPBDI@Z  0058cf00 f   VEMemoryOverride.obj
 0002:000d5f30       ?_DLMalloc@@YAPAXI@Z       0058cf30 f   VEMemoryOverride.obj
 0002:000d5f60       ?_DLMalloc_Ex@@YAPAXIPBDI@Z 0058cf60 f   VEMemoryOverride.obj
 0002:000d5f90       ?_DLRealloc@@YAPAXPAXI@Z   0058cf90 f   VEMemoryOverride.obj
 0002:000d5fc0       ?_DLRealloc_Ex@@YAPAXPAXIPBDI@Z 0058cfc0 f   VEMemoryOverride.obj
 0002:000d5ff0       ??$OP_DELETE@VVENetCommandParser@VENet@@@VENet@@YAXPAVVENetCommandParser@0@PBDI@Z 0058cff0 f i VENetCommandParser.obj
 0002:000d6090       ??$OP_NEW@VVENetCommandParser@VENet@@@VENet@@YAPAVVENetCommandParser@0@PBDI@Z 0058d090 f i VENetCommandParser.obj
 0002:000d6170       ??0VENetCommandParser@VENet@@QAE@XZ 0058d170 f   VENetCommandParser.obj
 0002:000d65d0       ??1VENetCommandParser@VENet@@UAE@XZ 0058d5d0 f   VENetCommandParser.obj
 0002:000d6630       ??_EVENetCommandParser@VENet@@UAEPAXI@Z 0058d630 f i VENetCommandParser.obj
 0002:000d6630       ??_GVENetCommandParser@VENet@@UAEPAXI@Z 0058d630 f i VENetCommandParser.obj
 0002:000d66a0       ?DestroyInstance@VENetCommandParser@VENet@@SAXPAV12@@Z 0058d6a0 f   VENetCommandParser.obj
 0002:000d6700       ?GetInstance@VENetCommandParser@VENet@@SAPAV12@XZ 0058d700 f   VENetCommandParser.obj
 0002:000d6760       ?GetName@VENetCommandParser@VENet@@UBEPBDXZ 0058d760 f   VENetCommandParser.obj
 0002:000d67a0       ?OnCommand@VENetCommandParser@VENet@@UAE_NPBDIPAPADPAVTransportInterface@2@ABUSystemAddress@2@0@Z 0058d7a0 f   VENetCommandParser.obj
 0002:000d8430       ?SendHelp@VENetCommandParser@VENet@@UAEXPAVTransportInterface@2@ABUSystemAddress@2@@Z 0058f430 f   VENetCommandParser.obj
 0002:000d85e0       ?SetRakPeerInterface@VENetCommandParser@VENet@@QAEXPAVVEPeerInterface@2@@Z 0058f5e0 f   VENetCommandParser.obj
 0002:000d8630       ??0VENetSocket@VENet@@QAE@XZ 0058f630 f   VENetSocket.obj
 0002:000d86a0       ??1VENetSocket@VENet@@QAE@XZ 0058f6a0 f   VENetSocket.obj
 0002:000d8740       ?StatisticsToString@VENet@@YAXPAUVENetStatistics@1@PADH@Z 0058f740 f   VENetStatistics.obj
 0002:000d94b0       ??$OP_DELETE@VVENetTransport2@VENet@@@VENet@@YAXPAVVENetTransport2@0@PBDI@Z 005904b0 f i VENetTransport2.obj
 0002:000d9550       ??$OP_NEW@VVENetTransport2@VENet@@@VENet@@YAPAVVENetTransport2@0@PBDI@Z 00590550 f i VENetTransport2.obj
 0002:000d9630       ??0TransportInterface@VENet@@QAE@XZ 00590630 f i VENetTransport2.obj
 0002:000d9680       ??0VENetTransport2@VENet@@QAE@XZ 00590680 f   VENetTransport2.obj
 0002:000d9780       ??1TransportInterface@VENet@@UAE@XZ 00590780 f i VENetTransport2.obj
 0002:000d97c0       ??1VENetTransport2@VENet@@UAE@XZ 005907c0 f   VENetTransport2.obj
 0002:000d98d0       ??4Packet@VENet@@QAEAAU01@ABU01@@Z 005908d0 f i VENetTransport2.obj
 0002:000d998b       ??_EVENetTransport2@VENet@@W3AEPAXI@Z 0059098b f i VENetTransport2.obj
 0002:000d99a0       ??_GTransportInterface@VENet@@UAEPAXI@Z 005909a0 f i VENetTransport2.obj
 0002:000d99a0       ??_ETransportInterface@VENet@@UAEPAXI@Z 005909a0 f i VENetTransport2.obj
 0002:000d9a10       ??_EVENetTransport2@VENet@@UAEPAXI@Z 00590a10 f i VENetTransport2.obj
 0002:000d9a10       ??_GVENetTransport2@VENet@@UAEPAXI@Z 00590a10 f i VENetTransport2.obj
 0002:000d9a80       ?CloseConnection@VENetTransport2@VENet@@UAEXUSystemAddress@2@@Z 00590a80 f   VENetTransport2.obj
 0002:000d9b00       ?DeallocatePacket@VENetTransport2@VENet@@UAEXPAUPacket@2@@Z 00590b00 f   VENetTransport2.obj
 0002:000d9ba0       ?DestroyInstance@VENetTransport2@VENet@@SAXPAV12@@Z 00590ba0 f   VENetTransport2.obj
 0002:000d9c00       ?GetCommandParser@VENetTransport2@VENet@@UAEPAVCommandParserInterface@2@XZ 00590c00 f i VENetTransport2.obj
 0002:000d9c40       ?GetInstance@VENetTransport2@VENet@@SAPAV12@XZ 00590c40 f   VENetTransport2.obj
 0002:000d9ca0       ?HasLostConnection@VENetTransport2@VENet@@UAE?AUSystemAddress@2@XZ 00590ca0 f   VENetTransport2.obj
 0002:000d9d60       ?HasNewIncomingConnection@VENetTransport2@VENet@@UAE?AUSystemAddress@2@XZ 00590d60 f   VENetTransport2.obj
 0002:000d9e20       ?OnClosedConnection@VENetTransport2@VENet@@UAEXABUSystemAddress@2@UVENetGUID@2@W4PI2_LostConnectionReason@2@@Z 00590e20 f   VENetTransport2.obj
 0002:000d9e90       ?OnNewConnection@VENetTransport2@VENet@@UAEXABUSystemAddress@2@UVENetGUID@2@_N@Z 00590e90 f   VENetTransport2.obj
 0002:000d9f00       ?OnReceive@VENetTransport2@VENet@@UAE?AW4PluginReceiveResult@2@PAUPacket@2@@Z 00590f00 f   VENetTransport2.obj
 0002:000da0b0       ?Receive@VENetTransport2@VENet@@UAEPAUPacket@2@XZ 005910b0 f   VENetTransport2.obj
 0002:000da120       ?Send@VENetTransport2@VENet@@UAAXUSystemAddress@2@PBDZZ 00591120 f   VENetTransport2.obj
 0002:000da3b0       ?Start@VENetTransport2@VENet@@UAE_NG_N@Z 005913b0 f   VENetTransport2.obj
 0002:000da3f0       ?Stop@VENetTransport2@VENet@@UAEXXZ 005913f0 f   VENetTransport2.obj
 0002:000da540       ??0AddressOrGUID@VENet@@QAE@PAUPacket@1@@Z 00591540 f   VENetTypes.obj
 0002:000da5d0       ??0SocketDescriptor@VENet@@QAE@GPBD@Z 005915d0 f   VENetTypes.obj
 0002:000da690       ??0SocketDescriptor@VENet@@QAE@XZ 00591690 f   VENetTypes.obj
 0002:000da720       ??0SystemAddress@VENet@@QAE@PBD@Z 00591720 f   VENetTypes.obj
 0002:000da7b0       ??0SystemAddress@VENet@@QAE@PBDG@Z 005917b0 f   VENetTypes.obj
 0002:000da830       ??0SystemAddress@VENet@@QAE@XZ 00591830 f   VENetTypes.obj
 0002:000da8d0       ??0VENetGUID@VENet@@QAE@XZ 005918d0 f   VENetTypes.obj
 0002:000da940       ??4SystemAddress@VENet@@QAEAAU01@ABU01@@Z 00591940 f   VENetTypes.obj
 0002:000da9d0       ??8SystemAddress@VENet@@QBE_NABU01@@Z 005919d0 f   VENetTypes.obj
 0002:000daa70       ??8VENetGUID@VENet@@QBE_NABU01@@Z 00591a70 f   VENetTypes.obj
 0002:000dab10       ??9SystemAddress@VENet@@QBE_NABU01@@Z 00591b10 f   VENetTypes.obj
 0002:000daba0       ??9VENetGUID@VENet@@QBE_NABU01@@Z 00591ba0 f   VENetTypes.obj
 0002:000dac40       ??MSystemAddress@VENet@@QBE_NABU01@@Z 00591c40 f   VENetTypes.obj
 0002:000dad00       ??MVENetGUID@VENet@@QBE_NABU01@@Z 00591d00 f   VENetTypes.obj
 0002:000dadb0       ??OSystemAddress@VENet@@QBE_NABU01@@Z 00591db0 f   VENetTypes.obj
 0002:000dae70       ??OVENetGUID@VENet@@QBE_NABU01@@Z 00591e70 f   VENetTypes.obj
 0002:000daf20       ?CopyPort@SystemAddress@VENet@@QAEXABU12@@Z 00591f20 f   VENetTypes.obj
 0002:000daf80       ?EqualsExcludingPort@SystemAddress@VENet@@QBE_NABU12@@Z 00591f80 f   VENetTypes.obj
 0002:000db000       ?FixForIPVersion@SystemAddress@VENet@@QAEXABU12@@Z 00592000 f   VENetTypes.obj
 0002:000db120       ?FromString@SystemAddress@VENet@@QAE_NPBDDH@Z 00592120 f   VENetTypes.obj
 0002:000db190       ?FromString@VENetGUID@VENet@@QAE_NPBD@Z 00592190 f   VENetTypes.obj
 0002:000db210       ?FromStringExplicitPort@SystemAddress@VENet@@QAE_NPBDGH@Z 00592210 f   VENetTypes.obj
 0002:000db2e0       ?GetIPPROTO@SystemAddress@VENet@@QBEIXZ 005922e0 f   VENetTypes.obj
 0002:000db320       ?GetIPVersion@SystemAddress@VENet@@QBEEXZ 00592320 f   VENetTypes.obj
 0002:000db370       ?GetPort@SystemAddress@VENet@@QBEGXZ 00592370 f   VENetTypes.obj
 0002:000db3e0       ?GetPortNetworkOrder@SystemAddress@VENet@@QBEGXZ 005923e0 f   VENetTypes.obj
 0002:000db420       ?IsLoopback@SystemAddress@VENet@@QBE_NXZ 00592420 f   VENetTypes.obj
 0002:000db4b0       ?NonNumericHostString@VENet@@YA_NPBD@Z 005924b0 f   VENetTypes.obj
 0002:000db5b0       ?SetBinaryAddress@SystemAddress@VENet@@QAEXPBDD@Z 005925b0 f   VENetTypes.obj
 0002:000db9d0       ?SetPortA@SystemAddress@VENet@@QAEXG@Z 005929d0 f   VENetTypes.obj
 0002:000dba50       ?SetPortNetworkOrder@SystemAddress@VENet@@QAEXG@Z 00592a50 f   VENetTypes.obj
 0002:000dbad0       ?SetToLoopback@SystemAddress@VENet@@QAEXE@Z 00592ad0 f   VENetTypes.obj
 0002:000dbb60       ?SetToLoopback@SystemAddress@VENet@@QAEXXZ 00592b60 f   VENetTypes.obj
 0002:000dbbc0       ?ToInteger@AddressOrGUID@VENet@@SAKABU12@@Z 00592bc0 f   VENetTypes.obj
 0002:000dbc40       ?ToInteger@SystemAddress@VENet@@SAKABU12@@Z 00592c40 f   VENetTypes.obj
 0002:000dbcc0       ?ToString@AddressOrGUID@VENet@@QBEPBD_N@Z 00592cc0 f   VENetTypes.obj
 0002:000dbd50       ?ToString@AddressOrGUID@VENet@@QBEX_NPAD@Z 00592d50 f   VENetTypes.obj
 0002:000dbde0       ?ToString@SystemAddress@VENet@@QBEPBD_ND@Z 00592de0 f   VENetTypes.obj
 0002:000dbe80       ?ToString@SystemAddress@VENet@@QBEX_NPADD@Z 00592e80 f   VENetTypes.obj
 0002:000dbef0       ?ToString@VENetGUID@VENet@@QBEPBDXZ 00592ef0 f   VENetTypes.obj
 0002:000dbf80       ?ToString@VENetGUID@VENet@@QBEXPAD@Z 00592f80 f   VENetTypes.obj
 0002:000dc030       ?ToString_Old@SystemAddress@VENet@@QBEX_NPADD@Z 00593030 f   VENetTypes.obj
 0002:000dc1d0       ?ToUint32@VENetGUID@VENet@@SAKABU12@@Z 005931d0 f   VENetTypes.obj
 0002:000dc240       ?size@SystemAddress@VENet@@SAHXZ 00593240 f   VENetTypes.obj
 0002:000dc280       ??$OP_DELETE@UBanStruct@VEPeer@VENet@@@VENet@@YAXPAUBanStruct@VEPeer@0@PBDI@Z 00593280 f i VEPeer.obj
 0002:000dc2e0       ??$OP_DELETE@URakPeerAndIndex@@@VENet@@YAXPAURakPeerAndIndex@@PBDI@Z 005932e0 f i VEPeer.obj
 0002:000dc340       ??$OP_DELETE@URequestedConnectionStruct@VEPeer@VENet@@@VENet@@YAXPAURequestedConnectionStruct@VEPeer@0@PBDI@Z 00593340 f i VEPeer.obj
 0002:000dc3d0       ??$OP_DELETE@UVENetSocket@VENet@@@VENet@@YAXPAUVENetSocket@0@PBDI@Z 005933d0 f i VEPeer.obj
 0002:000dc460       ??$OP_DELETE@VReferenceCounter@VENet@@@VENet@@YAXPAVReferenceCounter@0@PBDI@Z 00593460 f i VEPeer.obj
 0002:000dc4f0       ??$OP_DELETE@VVEPeer@VENet@@@VENet@@YAXPAVVEPeer@0@PBDI@Z 005934f0 f i VEPeer.obj
 0002:000dc590       ??$OP_DELETE_ARRAY@PAUBanStruct@VEPeer@VENet@@@VENet@@YAXPAPAUBanStruct@VEPeer@0@PBDI@Z 00593590 f i VEPeer.obj
 0002:000dc5f0       ??$OP_DELETE_ARRAY@PAUBufferedCommandStruct@VEPeer@VENet@@@VENet@@YAXPAPAUBufferedCommandStruct@VEPeer@0@PBDI@Z 005935f0 f i VEPeer.obj
 0002:000dc650       ??$OP_DELETE_ARRAY@PAURecvFromStruct@VEPeer@VENet@@@VENet@@YAXPAPAURecvFromStruct@VEPeer@0@PBDI@Z 00593650 f i VEPeer.obj
 0002:000dc6b0       ??$OP_DELETE_ARRAY@PAURemoteSystemIndex@VENet@@@VENet@@YAXPAPAURemoteSystemIndex@0@PBDI@Z 005936b0 f i VEPeer.obj
 0002:000dc710       ??$OP_DELETE_ARRAY@PAURemoteSystemStruct@VEPeer@VENet@@@VENet@@YAXPAPAURemoteSystemStruct@VEPeer@0@PBDI@Z 00593710 f i VEPeer.obj
 0002:000dc770       ??$OP_DELETE_ARRAY@PAURequestedConnectionStruct@VEPeer@VENet@@@VENet@@YAXPAPAURequestedConnectionStruct@VEPeer@0@PBDI@Z 00593770 f i VEPeer.obj
 0002:000dc7d0       ??$OP_DELETE_ARRAY@PAUSocketQueryOutput@VEPeer@VENet@@@VENet@@YAXPAPAUSocketQueryOutput@VEPeer@0@PBDI@Z 005937d0 f i VEPeer.obj
 0002:000dc830       ??$OP_DELETE_ARRAY@URemoteSystemStruct@VEPeer@VENet@@@VENet@@YAXPAURemoteSystemStruct@VEPeer@0@PBDI@Z 00593830 f i VEPeer.obj
 0002:000dc8c0       ??$OP_DELETE_ARRAY@V?$VENetSmartPtr@UVENetSocket@VENet@@@VENet@@@VENet@@YAXPAV?$VENetSmartPtr@UVENetSocket@VENet@@@0@PBDI@Z 005938c0 f i VEPeer.obj
 0002:000dc950       ??$OP_NEW@UBanStruct@VEPeer@VENet@@@VENet@@YAPAUBanStruct@VEPeer@0@PBDI@Z 00593950 f i VEPeer.obj
 0002:000dc9b0       ??$OP_NEW@URakPeerAndIndex@@@VENet@@YAPAURakPeerAndIndex@@PBDI@Z 005939b0 f i VEPeer.obj
 0002:000dca10       ??$OP_NEW@URequestedConnectionStruct@VEPeer@VENet@@@VENet@@YAPAURequestedConnectionStruct@VEPeer@0@PBDI@Z 00593a10 f i VEPeer.obj
 0002:000dcb00       ??$OP_NEW@UVENetSocket@VENet@@@VENet@@YAPAUVENetSocket@0@PBDI@Z 00593b00 f i VEPeer.obj
 0002:000dcbe0       ??$OP_NEW@VReferenceCounter@VENet@@@VENet@@YAPAVReferenceCounter@0@PBDI@Z 00593be0 f i VEPeer.obj
 0002:000dccc0       ??$OP_NEW@VVEPeer@VENet@@@VENet@@YAPAVVEPeer@0@PBDI@Z 00593cc0 f i VEPeer.obj
 0002:000dcdb0       ??$OP_NEW_ARRAY@PAUBanStruct@VEPeer@VENet@@@VENet@@YAPAPAUBanStruct@VEPeer@0@HPBDI@Z 00593db0 f i VEPeer.obj
 0002:000dce30       ??$OP_NEW_ARRAY@PAUBufferedCommandStruct@VEPeer@VENet@@@VENet@@YAPAPAUBufferedCommandStruct@VEPeer@0@HPBDI@Z 00593e30 f i VEPeer.obj
 0002:000dceb0       ??$OP_NEW_ARRAY@PAURecvFromStruct@VEPeer@VENet@@@VENet@@YAPAPAURecvFromStruct@VEPeer@0@HPBDI@Z 00593eb0 f i VEPeer.obj
 0002:000dcf30       ??$OP_NEW_ARRAY@PAURemoteSystemIndex@VENet@@@VENet@@YAPAPAURemoteSystemIndex@0@HPBDI@Z 00593f30 f i VEPeer.obj
 0002:000dcfb0       ??$OP_NEW_ARRAY@PAURemoteSystemStruct@VEPeer@VENet@@@VENet@@YAPAPAURemoteSystemStruct@VEPeer@0@HPBDI@Z 00593fb0 f i VEPeer.obj
 0002:000dd030       ??$OP_NEW_ARRAY@PAURequestedConnectionStruct@VEPeer@VENet@@@VENet@@YAPAPAURequestedConnectionStruct@VEPeer@0@HPBDI@Z 00594030 f i VEPeer.obj
 0002:000dd0b0       ??$OP_NEW_ARRAY@PAUSocketQueryOutput@VEPeer@VENet@@@VENet@@YAPAPAUSocketQueryOutput@VEPeer@0@HPBDI@Z 005940b0 f i VEPeer.obj
 0002:000dd130       ??$OP_NEW_ARRAY@URemoteSystemStruct@VEPeer@VENet@@@VENet@@YAPAURemoteSystemStruct@VEPeer@0@HPBDI@Z 00594130 f i VEPeer.obj
 0002:000dd290       ??$OP_NEW_ARRAY@UVENetStatistics@VENet@@@VENet@@YAPAUVENetStatistics@0@HPBDI@Z 00594290 f i VEPeer.obj
 0002:000dd310       ??$OP_NEW_ARRAY@V?$VENetSmartPtr@UVENetSocket@VENet@@@VENet@@@VENet@@YAPAV?$VENetSmartPtr@UVENetSocket@VENet@@@0@HPBDI@Z 00594310 f i VEPeer.obj
 0002:000dd470       ??0?$List@PAUBanStruct@VEPeer@VENet@@@DataStructures@@QAE@XZ 00594470 f i VEPeer.obj
 0002:000dd4d0       ??0?$List@V?$VENetSmartPtr@UVENetSocket@VENet@@@VENet@@@DataStructures@@QAE@XZ 005944d0 f i VEPeer.obj
 0002:000dd530       ??0?$MemoryPool@UBufferedCommandStruct@VEPeer@VENet@@@DataStructures@@QAE@XZ 00594530 f i VEPeer.obj
 0002:000dd590       ??0?$MemoryPool@URecvFromStruct@VEPeer@VENet@@@DataStructures@@QAE@XZ 00594590 f i VEPeer.obj
 0002:000dd5f0       ??0?$MemoryPool@URemoteSystemIndex@VENet@@@DataStructures@@QAE@XZ 005945f0 f i VEPeer.obj
 0002:000dd650       ??0?$MemoryPool@USocketQueryOutput@VEPeer@VENet@@@DataStructures@@QAE@XZ 00594650 f i VEPeer.obj
 0002:000dd6b0       ??0?$Queue@PAUBufferedCommandStruct@VEPeer@VENet@@@DataStructures@@QAE@XZ 005946b0 f i VEPeer.obj
 0002:000dd720       ??0?$Queue@PAURecvFromStruct@VEPeer@VENet@@@DataStructures@@QAE@XZ 00594720 f i VEPeer.obj
 0002:000dd790       ??0?$Queue@PAURequestedConnectionStruct@VEPeer@VENet@@@DataStructures@@QAE@XZ 00594790 f i VEPeer.obj
 0002:000dd800       ??0?$Queue@PAUSocketQueryOutput@VEPeer@VENet@@@DataStructures@@QAE@XZ 00594800 f i VEPeer.obj
 0002:000dd870       ??0?$ThreadsafeAllocatingQueue@UBufferedCommandStruct@VEPeer@VENet@@@DataStructures@@QAE@XZ 00594870 f i VEPeer.obj
 0002:000dd940       ??0?$ThreadsafeAllocatingQueue@URecvFromStruct@VEPeer@VENet@@@DataStructures@@QAE@XZ 00594940 f i VEPeer.obj
 0002:000dda10       ??0?$ThreadsafeAllocatingQueue@USocketQueryOutput@VEPeer@VENet@@@DataStructures@@QAE@XZ 00594a10 f i VEPeer.obj
 0002:000ddae0       ??0?$VENetSmartPtr@UVENetSocket@VENet@@@VENet@@QAE@ABV01@@Z 00594ae0 f i VEPeer.obj
 0002:000ddb60       ??0?$VENetSmartPtr@UVENetSocket@VENet@@@VENet@@QAE@PAUVENetSocket@1@@Z 00594b60 f i VEPeer.obj
 0002:000ddbe0       ??0?$VENetSmartPtr@UVENetSocket@VENet@@@VENet@@QAE@XZ 00594be0 f i VEPeer.obj
 0002:000ddc30       ??0BufferedCommandStruct@VEPeer@VENet@@QAE@XZ 00594c30 f i VEPeer.obj
 0002:000ddc90       ??0RecvFromStruct@VEPeer@VENet@@QAE@XZ 00594c90 f i VEPeer.obj
 0002:000ddcf0       ??0ReferenceCounter@VENet@@QAE@XZ 00594cf0 f i VEPeer.obj
 0002:000ddd40       ??0RemoteSystemStruct@VEPeer@VENet@@QAE@XZ 00594d40 f i VEPeer.obj
 0002:000dde40       ??0RequestedConnectionStruct@VEPeer@VENet@@QAE@XZ 00594e40 f i VEPeer.obj
 0002:000ddeb0       ??0SocketQueryOutput@VEPeer@VENet@@QAE@XZ 00594eb0 f i VEPeer.obj
 0002:000ddf10       ??0VEPeer@VENet@@QAE@XZ    00594f10 f   VEPeer.obj
 0002:000de4e0       ??0VEPeerInterface@VENet@@QAE@XZ 005954e0 f i VEPeer.obj
 0002:000de530       ??1?$List@PAUBanStruct@VEPeer@VENet@@@DataStructures@@QAE@XZ 00595530 f i VEPeer.obj
 0002:000de5a0       ??1?$List@V?$VENetSmartPtr@UVENetSocket@VENet@@@VENet@@@DataStructures@@QAE@XZ 005955a0 f i VEPeer.obj
 0002:000de610       ??1?$MemoryPool@UBufferedCommandStruct@VEPeer@VENet@@@DataStructures@@QAE@XZ 00595610 f i VEPeer.obj
 0002:000de670       ??1?$MemoryPool@URecvFromStruct@VEPeer@VENet@@@DataStructures@@QAE@XZ 00595670 f i VEPeer.obj
 0002:000de6d0       ??1?$MemoryPool@URemoteSystemIndex@VENet@@@DataStructures@@QAE@XZ 005956d0 f i VEPeer.obj
 0002:000de730       ??1?$MemoryPool@USocketQueryOutput@VEPeer@VENet@@@DataStructures@@QAE@XZ 00595730 f i VEPeer.obj
 0002:000de790       ??1?$Queue@PAUBufferedCommandStruct@VEPeer@VENet@@@DataStructures@@QAE@XZ 00595790 f i VEPeer.obj
 0002:000de800       ??1?$Queue@PAURecvFromStruct@VEPeer@VENet@@@DataStructures@@QAE@XZ 00595800 f i VEPeer.obj
 0002:000de870       ??1?$Queue@PAURequestedConnectionStruct@VEPeer@VENet@@@DataStructures@@QAE@XZ 00595870 f i VEPeer.obj
 0002:000de8e0       ??1?$Queue@PAUSocketQueryOutput@VEPeer@VENet@@@DataStructures@@QAE@XZ 005958e0 f i VEPeer.obj
 0002:000de950       ??1?$ThreadsafeAllocatingQueue@UBufferedCommandStruct@VEPeer@VENet@@@DataStructures@@QAE@XZ 00595950 f i VEPeer.obj
 0002:000dea20       ??1?$ThreadsafeAllocatingQueue@URecvFromStruct@VEPeer@VENet@@@DataStructures@@QAE@XZ 00595a20 f i VEPeer.obj
 0002:000deaf0       ??1?$ThreadsafeAllocatingQueue@USocketQueryOutput@VEPeer@VENet@@@DataStructures@@QAE@XZ 00595af0 f i VEPeer.obj
 0002:000debc0       ??1?$VENetSmartPtr@UVENetSocket@VENet@@@VENet@@QAE@XZ 00595bc0 f i VEPeer.obj
 0002:000dec60       ??1ReferenceCounter@VENet@@QAE@XZ 00595c60 f i VEPeer.obj
 0002:000deca0       ??1RemoteSystemStruct@VEPeer@VENet@@QAE@XZ 00595ca0 f i VEPeer.obj
 0002:000ded50       ??1RequestedConnectionStruct@VEPeer@VENet@@QAE@XZ 00595d50 f i VEPeer.obj
 0002:000dedb0       ??1SocketQueryOutput@VEPeer@VENet@@QAE@XZ 00595db0 f i VEPeer.obj
 0002:000dee00       ??1VEPeer@VENet@@UAE@XZ    00595e00 f   VEPeer.obj
 0002:000df0e0       ??1VEPeerInterface@VENet@@UAE@XZ 005960e0 f i VEPeer.obj
 0002:000df120       ??4?$List@V?$VENetSmartPtr@UVENetSocket@VENet@@@VENet@@@DataStructures@@QAEAAV01@ABV01@@Z 00596120 f i VEPeer.obj
 0002:000df240       ??4?$VENetSmartPtr@UVENetSocket@VENet@@@VENet@@QAEAAV01@ABV01@@Z 00596240 f i VEPeer.obj
 0002:000df330       ??4AddressOrGUID@VENet@@QAEAAU01@ABUSystemAddress@1@@Z 00596330 f i VEPeer.obj
 0002:000df3a0       ??A?$List@PAUBanStruct@VEPeer@VENet@@@DataStructures@@QBEAAPAUBanStruct@VEPeer@VENet@@I@Z 005963a0 f i VEPeer.obj
 0002:000df440       ??A?$List@V?$VENetSmartPtr@UVENetSocket@VENet@@@VENet@@@DataStructures@@QBEAAV?$VENetSmartPtr@UVENetSocket@VENet@@@VENet@@I@Z 00596440 f i VEPeer.obj
 0002:000df4e0       ??A?$Queue@PAUBufferedCommandStruct@VEPeer@VENet@@@DataStructures@@QBEAAPAUBufferedCommandStruct@VEPeer@VENet@@I@Z 005964e0 f i VEPeer.obj
 0002:000df5b0       ??A?$Queue@PAURecvFromStruct@VEPeer@VENet@@@DataStructures@@QBEAAPAURecvFromStruct@VEPeer@VENet@@I@Z 005965b0 f i VEPeer.obj
 0002:000df680       ??A?$Queue@PAURequestedConnectionStruct@VEPeer@VENet@@@DataStructures@@QBEAAPAURequestedConnectionStruct@VEPeer@VENet@@I@Z 00596680 f i VEPeer.obj
 0002:000df750       ??A?$Queue@PAUSocketQueryOutput@VEPeer@VENet@@@DataStructures@@QBEAAPAUSocketQueryOutput@VEPeer@VENet@@I@Z 00596750 f i VEPeer.obj
 0002:000df820       ??C?$VENetSmartPtr@UVENetSocket@VENet@@@VENet@@QAEPAUVENetSocket@1@XZ 00596820 f i VEPeer.obj
 0002:000df860       ??YVENetStatistics@VENet@@QAEAAU01@ABU01@@Z 00596860 f i VEPeer.obj
 0002:000df9b0       ??_E?$VENetSmartPtr@UVENetSocket@VENet@@@VENet@@QAEPAXI@Z 005969b0 f i VEPeer.obj
 0002:000dfa70       ??_ERemoteSystemStruct@VEPeer@VENet@@QAEPAXI@Z 00596a70 f i VEPeer.obj
 0002:000dfb30       ??_GReferenceCounter@VENet@@QAEPAXI@Z 00596b30 f i VEPeer.obj
 0002:000dfba0       ??_GRequestedConnectionStruct@VEPeer@VENet@@QAEPAXI@Z 00596ba0 f i VEPeer.obj
 0002:000dfc10       ??_GSocketQueryOutput@VEPeer@VENet@@QAEPAXI@Z 00596c10 f i VEPeer.obj
 0002:000dfc80       ??_GVENetSocket@VENet@@QAEPAXI@Z 00596c80 f i VEPeer.obj
 0002:000dfcf0       ??_GVEPeer@VENet@@UAEPAXI@Z 00596cf0 f i VEPeer.obj
 0002:000dfcf0       ??_EVEPeer@VENet@@UAEPAXI@Z 00596cf0 f i VEPeer.obj
 0002:000dfd60       ??_EVEPeerInterface@VENet@@UAEPAXI@Z 00596d60 f i VEPeer.obj
 0002:000dfd60       ??_GVEPeerInterface@VENet@@UAEPAXI@Z 00596d60 f i VEPeer.obj
 0002:000dfdd0       ?AddPacketToProducer@VEPeer@VENet@@IAEXPAUPacket@2@@Z 00596dd0 f i VEPeer.obj
 0002:000dfe70       ?AddRef@ReferenceCounter@VENet@@QAEXXZ 00596e70 f i VEPeer.obj
 0002:000dfec0       ?AddToActiveSystemList@VEPeer@VENet@@IAEXI@Z 00596ec0 f   VEPeer.obj
 0002:000dff50       ?AddToBanList@VEPeer@VENet@@UAEXPBDI@Z 00596f50 f   VEPeer.obj
 0002:000e01f0       ?AddToSecurityExceptionList@VEPeer@VENet@@UAEXPBD@Z 005971f0 f   VEPeer.obj
 0002:000e0310       ?AdvertiseSystem@VEPeer@VENet@@UAE_NPBDG0HI@Z 00597310 f   VEPeer.obj
 0002:000e0490       ?AllocPacket@VEPeer@VENet@@IAEPAUPacket@2@IPAEPBDI@Z 00597490 f   VEPeer.obj
 0002:000e0650       ?AllocPacket@VEPeer@VENet@@IAEPAUPacket@2@IPBDI@Z 00597650 f   VEPeer.obj
 0002:000e0800       ?Allocate@?$MemoryPool@UBufferedCommandStruct@VEPeer@VENet@@@DataStructures@@QAEPAUBufferedCommandStruct@VEPeer@VENet@@PBDI@Z 00597800 f i VEPeer.obj
 0002:000e0b20       ?Allocate@?$MemoryPool@URecvFromStruct@VEPeer@VENet@@@DataStructures@@QAEPAURecvFromStruct@VEPeer@VENet@@PBDI@Z 00597b20 f i VEPeer.obj
 0002:000e0e40       ?Allocate@?$MemoryPool@URemoteSystemIndex@VENet@@@DataStructures@@QAEPAURemoteSystemIndex@VENet@@PBDI@Z 00597e40 f i VEPeer.obj
 0002:000e1160       ?Allocate@?$MemoryPool@USocketQueryOutput@VEPeer@VENet@@@DataStructures@@QAEPAUSocketQueryOutput@VEPeer@VENet@@PBDI@Z 00598160 f i VEPeer.obj
 0002:000e1480       ?Allocate@?$ThreadsafeAllocatingQueue@UBufferedCommandStruct@VEPeer@VENet@@@DataStructures@@QAEPAUBufferedCommandStruct@VEPeer@VENet@@PBDI@Z 00598480 f i VEPeer.obj
 0002:000e15b0       ?Allocate@?$ThreadsafeAllocatingQueue@URecvFromStruct@VEPeer@VENet@@@DataStructures@@QAEPAURecvFromStruct@VEPeer@VENet@@PBDI@Z 005985b0 f i VEPeer.obj
 0002:000e16e0       ?Allocate@?$ThreadsafeAllocatingQueue@USocketQueryOutput@VEPeer@VENet@@@DataStructures@@QAEPAUSocketQueryOutput@VEPeer@VENet@@PBDI@Z 005986e0 f i VEPeer.obj
 0002:000e1810       ?AllocatePacket@VEPeer@VENet@@UAEPAUPacket@2@I@Z 00598810 f   VEPeer.obj
 0002:000e1880       ?AllowConnectionResponseIPMigration@VEPeer@VENet@@UAEX_N@Z 00598880 f   VEPeer.obj
 0002:000e18d0       ?AllowIncomingConnections@VEPeer@VENet@@IBE_NXZ 005988d0 f   VEPeer.obj
 0002:000e1970       ?ApplyNetworkSimulator@VEPeer@VENet@@UAEXMGG@Z 00598970 f   VEPeer.obj
 0002:000e1a70       ?AssignSystemAddressToRemoteSystemList@VEPeer@VENet@@IAEPAURemoteSystemStruct@12@USystemAddress@2@W4ConnectMode@312@V?$VENetSmartPtr@UVENetSocket@VENet@@@2@PA_NU42@HUVENetGUID@2@_N@Z 00598a70 f   VEPeer.obj
 0002:000e2680       ?AttachPlugin@VEPeer@VENet@@UAEXPAVPluginInterface2@2@@Z 00599680 f   VEPeer.obj
 0002:000e27e0       ?BlocksPerPage@?$MemoryPool@UBufferedCommandStruct@VEPeer@VENet@@@DataStructures@@IBEHXZ 005997e0 f i VEPeer.obj
 0002:000e2830       ?BlocksPerPage@?$MemoryPool@URecvFromStruct@VEPeer@VENet@@@DataStructures@@IBEHXZ 00599830 f i VEPeer.obj
 0002:000e2880       ?BlocksPerPage@?$MemoryPool@URemoteSystemIndex@VENet@@@DataStructures@@IBEHXZ 00599880 f i VEPeer.obj
 0002:000e28d0       ?BlocksPerPage@?$MemoryPool@USocketQueryOutput@VEPeer@VENet@@@DataStructures@@IBEHXZ 005998d0 f i VEPeer.obj
 0002:000e2910       ?CallPluginCallbacks@VEPeer@VENet@@IAEXAAV?$List@PAVPluginInterface2@VENet@@@DataStructures@@PAUPacket@2@@Z 00599910 f   VEPeer.obj
 0002:000e2ee0       ?CancelConnectionAttempt@VEPeer@VENet@@UAEXUSystemAddress@2@@Z 00599ee0 f   VEPeer.obj
 0002:000e3000       ?ChangeSystemAddress@VEPeer@VENet@@UAEXUVENetGUID@2@ABUSystemAddress@2@@Z 0059a000 f   VEPeer.obj
 0002:000e30d0       ?Clear@?$List@PAUBanStruct@VEPeer@VENet@@@DataStructures@@QAEX_NPBDI@Z 0059a0d0 f i VEPeer.obj
 0002:000e3180       ?Clear@?$List@UVENetStatistics@VENet@@@DataStructures@@QAEX_NPBDI@Z 0059a180 f i VEPeer.obj
 0002:000e3230       ?Clear@?$List@V?$VENetSmartPtr@UVENetSocket@VENet@@@VENet@@@DataStructures@@QAEX_NPBDI@Z 0059a230 f i VEPeer.obj
 0002:000e32e0       ?Clear@?$MemoryPool@UBufferedCommandStruct@VEPeer@VENet@@@DataStructures@@QAEXPBDI@Z 0059a2e0 f i VEPeer.obj
 0002:000e3520       ?Clear@?$MemoryPool@URecvFromStruct@VEPeer@VENet@@@DataStructures@@QAEXPBDI@Z 0059a520 f i VEPeer.obj
 0002:000e3760       ?Clear@?$MemoryPool@URemoteSystemIndex@VENet@@@DataStructures@@QAEXPBDI@Z 0059a760 f i VEPeer.obj
 0002:000e39a0       ?Clear@?$MemoryPool@USocketQueryOutput@VEPeer@VENet@@@DataStructures@@QAEXPBDI@Z 0059a9a0 f i VEPeer.obj
 0002:000e3be0       ?Clear@?$Queue@PAUBufferedCommandStruct@VEPeer@VENet@@@DataStructures@@QAEXPBDI@Z 0059abe0 f i VEPeer.obj
 0002:000e3c90       ?Clear@?$Queue@PAURecvFromStruct@VEPeer@VENet@@@DataStructures@@QAEXPBDI@Z 0059ac90 f i VEPeer.obj
 0002:000e3d40       ?Clear@?$Queue@PAUSocketQueryOutput@VEPeer@VENet@@@DataStructures@@QAEXPBDI@Z 0059ad40 f i VEPeer.obj
 0002:000e3df0       ?Clear@?$ThreadsafeAllocatingQueue@UBufferedCommandStruct@VEPeer@VENet@@@DataStructures@@QAEXPBDI@Z 0059adf0 f i VEPeer.obj
 0002:000e3f10       ?Clear@?$ThreadsafeAllocatingQueue@URecvFromStruct@VEPeer@VENet@@@DataStructures@@QAEXPBDI@Z 0059af10 f i VEPeer.obj
 0002:000e4030       ?Clear@?$ThreadsafeAllocatingQueue@USocketQueryOutput@VEPeer@VENet@@@DataStructures@@QAEXPBDI@Z 0059b030 f i VEPeer.obj
 0002:000e4150       ?ClearBanList@VEPeer@VENet@@UAEXXZ 0059b150 f   VEPeer.obj
 0002:000e4290       ?ClearBufferedCommands@VEPeer@VENet@@IAEXXZ 0059b290 f   VEPeer.obj
 0002:000e4380       ?ClearBufferedPackets@VEPeer@VENet@@IAEXXZ 0059b380 f   VEPeer.obj
 0002:000e4430       ?ClearRemoteSystemLookup@VEPeer@VENet@@IAEXXZ 0059b430 f   VEPeer.obj
 0002:000e44d0       ?ClearRequestedConnectionList@VEPeer@VENet@@IAEXXZ 0059b4d0 f   VEPeer.obj
 0002:000e4680       ?ClearSocketQueryOutput@VEPeer@VENet@@IAEXXZ 0059b680 f   VEPeer.obj
 0002:000e46f0       ?CloseConnection@VEPeer@VENet@@UAEXUAddressOrGUID@2@_NEW4PacketPriority@@@Z 0059b6f0 f   VEPeer.obj
 0002:000e49e0       ?CloseConnectionInternal@VEPeer@VENet@@IAEXABUAddressOrGUID@2@_N1EW4PacketPriority@@@Z 0059b9e0 f   VEPeer.obj
 0002:000e4dd0       ?Connect@VEPeer@VENet@@UAE?AW4ConnectionAttemptResult@2@PBDG0HPAUPublicKey@2@IIII@Z 0059bdd0 f   VEPeer.obj
 0002:000e4f00       ?ConnectWithSocket@VEPeer@VENet@@UAE?AW4ConnectionAttemptResult@2@PBDG0HV?$VENetSmartPtr@UVENetSocket@VENet@@@2@PAUPublicKey@2@III@Z 0059bf00 f   VEPeer.obj
 0002:000e5090       ?Deallocate@?$ThreadsafeAllocatingQueue@UBufferedCommandStruct@VEPeer@VENet@@@DataStructures@@QAEXPAUBufferedCommandStruct@VEPeer@VENet@@PBDI@Z 0059c090 f i VEPeer.obj
 0002:000e5110       ?Deallocate@?$ThreadsafeAllocatingQueue@URecvFromStruct@VEPeer@VENet@@@DataStructures@@QAEXPAURecvFromStruct@VEPeer@VENet@@PBDI@Z 0059c110 f i VEPeer.obj
 0002:000e5190       ?Deallocate@?$ThreadsafeAllocatingQueue@USocketQueryOutput@VEPeer@VENet@@@DataStructures@@QAEXPAUSocketQueryOutput@VEPeer@VENet@@PBDI@Z 0059c190 f i VEPeer.obj
 0002:000e5220       ?DeallocatePacket@VEPeer@VENet@@UAEXPAUPacket@2@@Z 0059c220 f   VEPeer.obj
 0002:000e5330       ?DerefAllSockets@VEPeer@VENet@@IAEXXZ 0059c330 f   VEPeer.obj
 0002:000e53f0       ?DereferenceRemoteSystem@VEPeer@VENet@@IAEXABUSystemAddress@2@@Z 0059c3f0 f   VEPeer.obj
 0002:000e5520       ?DestroyInstance@VEPeerInterface@VENet@@SAXPAV12@@Z 0059c520 f   VEPeer.obj
 0002:000e5580       ?DetachPlugin@VEPeer@VENet@@UAEXPAVPluginInterface2@2@@Z 0059c580 f   VEPeer.obj
 0002:000e5720       ?DisableSecurity@VEPeer@VENet@@UAEXXZ 0059c720 f   VEPeer.obj
 0002:000e5760       ?GenerateGUID@VEPeer@VENet@@IAEXXZ 0059c760 f   VEPeer.obj
 0002:000e57c0       ?GenerateSeedFromGuid@VEPeer@VENet@@IAEIXZ 0059c7c0 f   VEPeer.obj
 0002:000e5840       ?Get64BitUniqueRandomNumber@VEPeerInterface@VENet@@SA_KXZ 0059c840 f   VEPeer.obj
 0002:000e5980       ?GetAveragePing@VEPeer@VENet@@UAEHUAddressOrGUID@2@@Z 0059c980 f   VEPeer.obj
 0002:000e5a80       ?GetBestClockDifferential@VEPeer@VENet@@IBE_KUSystemAddress@2@@Z 0059ca80 f   VEPeer.obj
 0002:000e5bd0       ?GetClientPublicKeyFromSystemAddress@VEPeer@VENet@@UBE_NUSystemAddress@2@PAD@Z 0059cbd0 f   VEPeer.obj
 0002:000e5c10       ?GetConnectionList@VEPeer@VENet@@UBE_NPAUSystemAddress@2@PAG@Z 0059cc10 f   VEPeer.obj
 0002:000e5e40       ?GetConnectionState@VEPeer@VENet@@UAE?AW4ConnectionState@2@UAddressOrGUID@2@@Z 0059ce40 f   VEPeer.obj
 0002:000e60d0       ?GetExternalID@VEPeer@VENet@@UBE?AUSystemAddress@2@U32@@Z 0059d0d0 f   VEPeer.obj
 0002:000e6340       ?GetGUIDFromIndex@VEPeer@VENet@@UAE?AUVENetGUID@2@H@Z 0059d340 f   VEPeer.obj
 0002:000e6450       ?GetGuidFromSystemAddress@VEPeer@VENet@@UBEABUVENetGUID@2@USystemAddress@2@@Z 0059d450 f   VEPeer.obj
 0002:000e65e0       ?GetIncomingPassword@VEPeer@VENet@@UAEXPADPAH@Z 0059d5e0 f   VEPeer.obj
 0002:000e66a0       ?GetIndexFromGuid@VEPeer@VENet@@IAEHUVENetGUID@2@@Z 0059d6a0 f   VEPeer.obj
 0002:000e6880       ?GetIndexFromSystemAddress@VEPeer@VENet@@IBEHUSystemAddress@2@_N@Z 0059d880 f   VEPeer.obj
 0002:000e6a70       ?GetIndexFromSystemAddress@VEPeer@VENet@@UBEHUSystemAddress@2@@Z 0059da70 f   VEPeer.obj
 0002:000e6af0       ?GetInstance@VEPeerInterface@VENet@@SAPAV12@XZ 0059daf0 f   VEPeer.obj
 0002:000e6b50       ?GetInternalID@VEPeer@VENet@@UBE?AUSystemAddress@2@U32@H@Z 0059db50 f   VEPeer.obj
 0002:000e6cc0       ?GetLastPing@VEPeer@VENet@@UBEHUAddressOrGUID@2@@Z 0059dcc0 f   VEPeer.obj
 0002:000e6dc0       ?GetLocalIP@VEPeer@VENet@@UAEPBDI@Z 0059ddc0 f   VEPeer.obj
 0002:000e6e70       ?GetLoopbackAddress@VEPeer@VENet@@IBE?AUSystemAddress@2@XZ 0059de70 f   VEPeer.obj
 0002:000e6ef0       ?GetLowestPing@VEPeer@VENet@@UBEHUAddressOrGUID@2@@Z 0059def0 f   VEPeer.obj
 0002:000e6f80       ?GetMTUSize@VEPeer@VENet@@UBEHUSystemAddress@2@@Z 0059df80 f   VEPeer.obj
 0002:000e7040       ?GetMaximumIncomingConnections@VEPeer@VENet@@UBEGXZ 0059e040 f   VEPeer.obj
 0002:000e7080       ?GetMaximumNumberOfPeers@VEPeer@VENet@@UBEGXZ 0059e080 f   VEPeer.obj
 0002:000e70c0       ?GetMyBoundAddress@VEPeer@VENet@@UAE?AUSystemAddress@2@H@Z 0059e0c0 f   VEPeer.obj
 0002:000e7290       ?GetMyGUID@VEPeer@VENet@@UBE?BUVENetGUID@2@XZ 0059e290 f   VEPeer.obj
 0002:000e7300       ?GetNextSendReceipt@VEPeer@VENet@@UAEIXZ 0059e300 f   VEPeer.obj
 0002:000e7380       ?GetNumberOfAddresses@VEPeer@VENet@@UAEIXZ 0059e380 f   VEPeer.obj
 0002:000e7410       ?GetNumberOfRemoteInitiatedConnections@VEPeer@VENet@@IBEGXZ 0059e410 f   VEPeer.obj
 0002:000e7510       ?GetOfflinePingResponse@VEPeer@VENet@@UAEXPAPADPAI@Z 0059e510 f   VEPeer.obj
 0002:000e75c0       ?GetReceiveBufferSize@VEPeer@VENet@@UAEIXZ 0059e5c0 f   VEPeer.obj
 0002:000e7640       ?GetRemoteSystem@VEPeer@VENet@@IBEPAURemoteSystemStruct@12@ABUSystemAddress@2@@Z 0059e640 f   VEPeer.obj
 0002:000e76c0       ?GetRemoteSystem@VEPeer@VENet@@IBEPAURemoteSystemStruct@12@UAddressOrGUID@2@_N1@Z 0059e6c0 f   VEPeer.obj
 0002:000e77a0       ?GetRemoteSystemFromGUID@VEPeer@VENet@@IBEPAURemoteSystemStruct@12@UVENetGUID@2@_N@Z 0059e7a0 f   VEPeer.obj
 0002:000e78b0       ?GetRemoteSystemFromSystemAddress@VEPeer@VENet@@IBEPAURemoteSystemStruct@12@USystemAddress@2@_N1@Z 0059e8b0 f   VEPeer.obj
 0002:000e7ad0       ?GetRemoteSystemIndex@VEPeer@VENet@@IBEIABUSystemAddress@2@@Z 0059ead0 f   VEPeer.obj
 0002:000e7ba0       ?GetSocket@VEPeer@VENet@@UAE?AV?$VENetSmartPtr@UVENetSocket@VENet@@@2@USystemAddress@2@@Z 0059eba0 f   VEPeer.obj
 0002:000e7e50       ?GetSocketLayerOverride@SocketLayer@VENet@@SAPAVSocketLayerOverride@2@XZ 0059ee50 f i VEPeer.obj
 0002:000e7e90       ?GetSockets@VEPeer@VENet@@UAEXAAV?$List@V?$VENetSmartPtr@UVENetSocket@VENet@@@VENet@@@DataStructures@@@Z 0059ee90 f   VEPeer.obj
 0002:000e80d0       ?GetSplitMessageProgressInterval@VEPeer@VENet@@UBEHXZ 0059f0d0 f   VEPeer.obj
 0002:000e8110       ?GetStatistics@VEPeer@VENet@@UAEPAUVENetStatistics@2@USystemAddress@2@PAU32@@Z 0059f110 f   VEPeer.obj
 0002:000e8340       ?GetStatistics@VEPeer@VENet@@UAE_NHPAUVENetStatistics@2@@Z 0059f340 f   VEPeer.obj
 0002:000e83f0       ?GetStatisticsList@VEPeer@VENet@@UAEXAAV?$List@USystemAddress@VENet@@@DataStructures@@AAV?$List@UVENetGUID@VENet@@@4@AAV?$List@UVENetStatistics@VENet@@@4@@Z 0059f3f0 f   VEPeer.obj
 0002:000e8640       ?GetSystemAddressFromGuid@VEPeer@VENet@@UBE?AUSystemAddress@2@UVENetGUID@2@@Z 0059f640 f   VEPeer.obj
 0002:000e8930       ?GetSystemAddressFromIndex@VEPeer@VENet@@UAE?AUSystemAddress@2@H@Z 0059f930 f   VEPeer.obj
 0002:000e8a50       ?GetSystemIndexFromGuid@VEPeer@VENet@@IBEIUVENetGUID@2@@Z 0059fa50 f   VEPeer.obj
 0002:000e8bd0       ?GetSystemList@VEPeer@VENet@@UBEXAAV?$List@USystemAddress@VENet@@@DataStructures@@AAV?$List@UVENetGUID@VENet@@@4@@Z 0059fbd0 f   VEPeer.obj
 0002:000e8d50       ?GetTimeoutTime@VEPeer@VENet@@UAEIUSystemAddress@2@@Z 0059fd50 f   VEPeer.obj
 0002:000e8e30       ?GetVENetSocketFromUserConnectionSocketIndex@VEPeer@VENet@@IBEII@Z 0059fe30 f   VEPeer.obj
 0002:000e8f20       ?IncrementNextSendReceipt@VEPeer@VENet@@UAEIXZ 0059ff20 f   VEPeer.obj
 0002:000e8fe0       ?InitPage@?$MemoryPool@UBufferedCommandStruct@VEPeer@VENet@@@DataStructures@@IAE_NPAUPage@12@0PBDI@Z 0059ffe0 f i VEPeer.obj
 0002:000e9170       ?InitPage@?$MemoryPool@URecvFromStruct@VEPeer@VENet@@@DataStructures@@IAE_NPAUPage@12@0PBDI@Z 005a0170 f i VEPeer.obj
 0002:000e9300       ?InitPage@?$MemoryPool@URemoteSystemIndex@VENet@@@DataStructures@@IAE_NPAUPage@12@0PBDI@Z 005a0300 f i VEPeer.obj
 0002:000e9490       ?InitPage@?$MemoryPool@USocketQueryOutput@VEPeer@VENet@@@DataStructures@@IAE_NPAUPage@12@0PBDI@Z 005a0490 f i VEPeer.obj
 0002:000e9620       ?InitializeSecurity@VEPeer@VENet@@UAE_NPBD0_N@Z 005a0620 f   VEPeer.obj
 0002:000e9660       ?Insert@?$List@PAUBanStruct@VEPeer@VENet@@@DataStructures@@QAEXABQAUBanStruct@VEPeer@VENet@@PBDI@Z 005a0660 f i VEPeer.obj
 0002:000e97b0       ?Insert@?$List@UVENetStatistics@VENet@@@DataStructures@@QAEXABUVENetStatistics@VENet@@PBDI@Z 005a07b0 f i VEPeer.obj
 0002:000e9920       ?Insert@?$List@V?$VENetSmartPtr@UVENetSocket@VENet@@@VENet@@@DataStructures@@QAEXABV?$VENetSmartPtr@UVENetSocket@VENet@@@VENet@@PBDI@Z 005a0920 f i VEPeer.obj
 0002:000e9a70       ?IsActive@VEPeer@VENet@@UBE_NXZ 005a0a70 f i VEPeer.obj
 0002:000e9ae0       ?IsBanned@VEPeer@VENet@@UAE_NPBD@Z 005a0ae0 f   VEPeer.obj
 0002:000e9e30       ?IsEmpty@?$Queue@PAUBufferedCommandStruct@VEPeer@VENet@@@DataStructures@@QBE_NXZ 005a0e30 f i VEPeer.obj
 0002:000e9ea0       ?IsEmpty@?$Queue@PAURecvFromStruct@VEPeer@VENet@@@DataStructures@@QBE_NXZ 005a0ea0 f i VEPeer.obj
 0002:000e9f10       ?IsEmpty@?$Queue@PAURequestedConnectionStruct@VEPeer@VENet@@@DataStructures@@QBE_NXZ 005a0f10 f i VEPeer.obj
 0002:000e9f80       ?IsEmpty@?$Queue@PAUSocketQueryOutput@VEPeer@VENet@@@DataStructures@@QBE_NXZ 005a0f80 f i VEPeer.obj
 0002:000e9ff0       ?IsInSecurityExceptionList@VEPeer@VENet@@UAE_NPBD@Z 005a0ff0 f   VEPeer.obj
 0002:000ea0f0       ?IsLocalIP@VEPeer@VENet@@UAE_NPBD@Z 005a10f0 f   VEPeer.obj
 0002:000ea220       ?IsLoopbackAddress@VEPeer@VENet@@IBE_NABUAddressOrGUID@2@_N@Z 005a1220 f   VEPeer.obj
 0002:000ea3e0       ?IsNetworkSimulatorActive@VEPeer@VENet@@UAE_NXZ 005a13e0 f   VEPeer.obj
 0002:000ea480       ?IsNull@?$VENetSmartPtr@UVENetSocket@VENet@@@VENet@@QBE_NXZ 005a1480 f i VEPeer.obj
 0002:000ea4f0       ?NotifyAndFlagForShutdown@VEPeer@VENet@@IAEXUSystemAddress@2@_NEW4PacketPriority@@@Z 005a14f0 f   VEPeer.obj
 0002:000ea720       ?NumberOfConnections@VEPeer@VENet@@UBEGXZ 005a1720 f   VEPeer.obj
 0002:000ea880       ?OnConnectedPong@VEPeer@VENet@@IAEX_K0PAURemoteSystemStruct@12@@Z 005a1880 f   VEPeer.obj
 0002:000eaa80       ?OnConnectionRequest@VEPeer@VENet@@IAEXPAURemoteSystemStruct@12@_K@Z 005a1a80 f   VEPeer.obj
 0002:000ead60       ?ParseConnectionRequestPacket@VEPeer@VENet@@IAEXPAURemoteSystemStruct@12@ABUSystemAddress@2@PBDH@Z 005a1d60 f   VEPeer.obj
 0002:000eb140       ?Ping@VEPeer@VENet@@UAEXUSystemAddress@2@@Z 005a2140 f   VEPeer.obj
 0002:000eb1c0       ?Ping@VEPeer@VENet@@UAE_NPBDG_NI@Z 005a21c0 f   VEPeer.obj
 0002:000eb620       ?PingInternal@VEPeer@VENet@@IAEXUSystemAddress@2@_NW4PacketReliability@@@Z 005a2620 f   VEPeer.obj
 0002:000eb840       ?Pop@?$Queue@PAUBufferedCommandStruct@VEPeer@VENet@@@DataStructures@@QAEPAUBufferedCommandStruct@VEPeer@VENet@@XZ 005a2840 f i VEPeer.obj
 0002:000eb930       ?Pop@?$Queue@PAURecvFromStruct@VEPeer@VENet@@@DataStructures@@QAEPAURecvFromStruct@VEPeer@VENet@@XZ 005a2930 f i VEPeer.obj
 0002:000eba20       ?Pop@?$Queue@PAURequestedConnectionStruct@VEPeer@VENet@@@DataStructures@@QAEPAURequestedConnectionStruct@VEPeer@VENet@@XZ 005a2a20 f i VEPeer.obj
 0002:000ebb10       ?Pop@?$Queue@PAUSocketQueryOutput@VEPeer@VENet@@@DataStructures@@QAEPAUSocketQueryOutput@VEPeer@VENet@@XZ 005a2b10 f i VEPeer.obj
 0002:000ebc00       ?Pop@?$ThreadsafeAllocatingQueue@UBufferedCommandStruct@VEPeer@VENet@@@DataStructures@@QAEPAUBufferedCommandStruct@VEPeer@VENet@@XZ 005a2c00 f i VEPeer.obj
 0002:000ebca0       ?Pop@?$ThreadsafeAllocatingQueue@URecvFromStruct@VEPeer@VENet@@@DataStructures@@QAEPAURecvFromStruct@VEPeer@VENet@@XZ 005a2ca0 f i VEPeer.obj
 0002:000ebd40       ?Pop@?$ThreadsafeAllocatingQueue@USocketQueryOutput@VEPeer@VENet@@@DataStructures@@QAEPAUSocketQueryOutput@VEPeer@VENet@@XZ 005a2d40 f i VEPeer.obj
 0002:000ebde0       ?PopInaccurate@?$ThreadsafeAllocatingQueue@UBufferedCommandStruct@VEPeer@VENet@@@DataStructures@@QAEPAUBufferedCommandStruct@VEPeer@VENet@@XZ 005a2de0 f i VEPeer.obj
 0002:000ebea0       ?PopInaccurate@?$ThreadsafeAllocatingQueue@URecvFromStruct@VEPeer@VENet@@@DataStructures@@QAEPAURecvFromStruct@VEPeer@VENet@@XZ 005a2ea0 f i VEPeer.obj
 0002:000ebf60       ?ProcessChromePacket@VEPeer@VENet@@QAEXIPBDHABUSystemAddress@2@_K@Z 005a2f60 f   VEPeer.obj
 0002:000ec160       ?ProcessNetworkPacket@VENet@@YAXUSystemAddress@1@PBDHPAVVEPeer@1@V?$VENetSmartPtr@UVENetSocket@VENet@@@1@_KAAVBitStream@1@@Z 005a3160 f   VEPeer.obj
 0002:000ec3f0       ?ProcessNetworkPacket@VENet@@YAXUSystemAddress@1@PBDHPAVVEPeer@1@_KAAVBitStream@1@@Z 005a33f0 f   VEPeer.obj
 0002:000ec4c0       ?ProcessOfflineNetworkPacket@VENet@@YA_NUSystemAddress@1@PBDHPAVVEPeer@1@V?$VENetSmartPtr@UVENetSocket@VENet@@@1@PA_N_K@Z 005a34c0 f   VEPeer.obj
 0002:000efec0       ?Push@?$List@UVENetStatistics@VENet@@@DataStructures@@QAEXABUVENetStatistics@VENet@@PBDI@Z 005a6ec0 f i VEPeer.obj
 0002:000eff20       ?Push@?$List@V?$VENetSmartPtr@UVENetSocket@VENet@@@VENet@@@DataStructures@@QAEXABV?$VENetSmartPtr@UVENetSocket@VENet@@@VENet@@PBDI@Z 005a6f20 f i VEPeer.obj
 0002:000eff80       ?Push@?$Queue@PAUBufferedCommandStruct@VEPeer@VENet@@@DataStructures@@QAEXABQAUBufferedCommandStruct@VEPeer@VENet@@PBDI@Z 005a6f80 f i VEPeer.obj
 0002:000f01a0       ?Push@?$Queue@PAURecvFromStruct@VEPeer@VENet@@@DataStructures@@QAEXABQAURecvFromStruct@VEPeer@VENet@@PBDI@Z 005a71a0 f i VEPeer.obj
 0002:000f03c0       ?Push@?$Queue@PAURequestedConnectionStruct@VEPeer@VENet@@@DataStructures@@QAEXABQAURequestedConnectionStruct@VEPeer@VENet@@PBDI@Z 005a73c0 f i VEPeer.obj
 0002:000f05e0       ?Push@?$Queue@PAUSocketQueryOutput@VEPeer@VENet@@@DataStructures@@QAEXABQAUSocketQueryOutput@VEPeer@VENet@@PBDI@Z 005a75e0 f i VEPeer.obj
 0002:000f0800       ?Push@?$ThreadsafeAllocatingQueue@UBufferedCommandStruct@VEPeer@VENet@@@DataStructures@@QAEXPAUBufferedCommandStruct@VEPeer@VENet@@@Z 005a7800 f i VEPeer.obj
 0002:000f0880       ?Push@?$ThreadsafeAllocatingQueue@URecvFromStruct@VEPeer@VENet@@@DataStructures@@QAEXPAURecvFromStruct@VEPeer@VENet@@@Z 005a7880 f i VEPeer.obj
 0002:000f0900       ?Push@?$ThreadsafeAllocatingQueue@USocketQueryOutput@VEPeer@VENet@@@DataStructures@@QAEXPAUSocketQueryOutput@VEPeer@VENet@@@Z 005a7900 f i VEPeer.obj
 0002:000f0980       ?PushBackPacket@VEPeer@VENet@@UAEXPAUPacket@2@_N@Z 005a7980 f   VEPeer.obj
 0002:000f0bd0       ?Receive@VEPeer@VENet@@UAEPAUPacket@2@XZ 005a7bd0 f   VEPeer.obj
 0002:000f1000       ?RecvFromLoop@VENet@@YGIPAX@Z 005a8000 f   VEPeer.obj
 0002:000f1120       ?ReferenceRemoteSystem@VEPeer@VENet@@IAEXABUSystemAddress@2@I@Z 005a8120 f   VEPeer.obj
 0002:000f13d0       ?Release@?$MemoryPool@UBufferedCommandStruct@VEPeer@VENet@@@DataStructures@@QAEXPAUBufferedCommandStruct@VEPeer@VENet@@PBDI@Z 005a83d0 f i VEPeer.obj
 0002:000f16e0       ?Release@?$MemoryPool@URecvFromStruct@VEPeer@VENet@@@DataStructures@@QAEXPAURecvFromStruct@VEPeer@VENet@@PBDI@Z 005a86e0 f i VEPeer.obj
 0002:000f19f0       ?Release@?$MemoryPool@URemoteSystemIndex@VENet@@@DataStructures@@QAEXPAURemoteSystemIndex@VENet@@PBDI@Z 005a89f0 f i VEPeer.obj
 0002:000f1d00       ?Release@?$MemoryPool@USocketQueryOutput@VEPeer@VENet@@@DataStructures@@QAEXPAUSocketQueryOutput@VEPeer@VENet@@PBDI@Z 005a8d00 f i VEPeer.obj
 0002:000f2010       ?Release@ReferenceCounter@VENet@@QAEHXZ 005a9010 f i VEPeer.obj
 0002:000f2070       ?ReleaseSockets@VEPeer@VENet@@UAEXAAV?$List@V?$VENetSmartPtr@UVENetSocket@VENet@@@VENet@@@DataStructures@@@Z 005a9070 f   VEPeer.obj
 0002:000f20e0       ?RemoteSystemLookupHashIndex@VEPeer@VENet@@IBEIABUSystemAddress@2@@Z 005a90e0 f   VEPeer.obj
 0002:000f2150       ?RemoveAtIndex@?$List@PAUBanStruct@VEPeer@VENet@@@DataStructures@@QAEXI@Z 005a9150 f i VEPeer.obj
 0002:000f2240       ?RemoveAtIndex@?$Queue@PAURequestedConnectionStruct@VEPeer@VENet@@@DataStructures@@QAEXI@Z 005a9240 f i VEPeer.obj
 0002:000f2410       ?RemoveFromActiveSystemList@VEPeer@VENet@@IAEXABUSystemAddress@2@@Z 005a9410 f   VEPeer.obj
 0002:000f2540       ?RemoveFromBanList@VEPeer@VENet@@UAEXPBD@Z 005a9540 f   VEPeer.obj
 0002:000f2740       ?RemoveFromEnd@?$List@PAUBanStruct@VEPeer@VENet@@@DataStructures@@QAEXI@Z 005a9740 f i VEPeer.obj
 0002:000f27e0       ?RemoveFromSecurityExceptionList@VEPeer@VENet@@UAEXPBD@Z 005a97e0 f   VEPeer.obj
 0002:000f29a0       ?ResetSendReceipt@VEPeer@VENet@@IAEXXZ 005a99a0 f   VEPeer.obj
 0002:000f2a20       ?RunRecvFromOnce@VEPeer@VENet@@UAE_NIGI@Z 005a9a20 f   VEPeer.obj
 0002:000f2bd0       ?RunUpdateCycle@VEPeer@VENet@@UAE_NAAVBitStream@2@@Z 005a9bd0 f   VEPeer.obj
 0002:000f5b90       ?Send@VEPeer@VENet@@UAEIPBDHW4PacketPriority@@W4PacketReliability@@DUAddressOrGUID@2@_NI@Z 005acb90 f   VEPeer.obj
 0002:000f5ed0       ?Send@VEPeer@VENet@@UAEIPBVBitStream@2@W4PacketPriority@@W4PacketReliability@@DUAddressOrGUID@2@_NI@Z 005aced0 f   VEPeer.obj
 0002:000f6230       ?SendBuffered@VEPeer@VENet@@IAEXPBDIW4PacketPriority@@W4PacketReliability@@DUAddressOrGUID@2@_NW4ConnectMode@RemoteSystemStruct@12@I@Z 005ad230 f   VEPeer.obj
 0002:000f64c0       ?SendBufferedList@VEPeer@VENet@@IAEXPAPBDPBHHW4PacketPriority@@W4PacketReliability@@DUAddressOrGUID@2@_NW4ConnectMode@RemoteSystemStruct@12@I@Z 005ad4c0 f   VEPeer.obj
 0002:000f6850       ?SendConnectionRequest@VEPeer@VENet@@IAE?AW4ConnectionAttemptResult@2@PBDG0HPAUPublicKey@2@IIIII@Z 005ad850 f   VEPeer.obj
 0002:000f6bf0       ?SendConnectionRequest@VEPeer@VENet@@IAE?AW4ConnectionAttemptResult@2@PBDG0HPAUPublicKey@2@IIIIIV?$VENetSmartPtr@UVENetSocket@VENet@@@2@@Z 005adbf0 f   VEPeer.obj
 0002:000f6fd0       ?SendImmediate@VEPeer@VENet@@IAE_NPADIW4PacketPriority@@W4PacketReliability@@DUAddressOrGUID@2@_N4_KI@Z 005adfd0 f   VEPeer.obj
 0002:000f7500       ?SendList@VEPeer@VENet@@UAEIPAPBDPBHHW4PacketPriority@@W4PacketReliability@@DUAddressOrGUID@2@_NI@Z 005ae500 f   VEPeer.obj
 0002:000f7680       ?SendLoopback@VEPeer@VENet@@UAEXPBDH@Z 005ae680 f   VEPeer.obj
 0002:000f7790       ?SendOutOfBand@VEPeer@VENet@@UAE_NPBDG0II@Z 005ae790 f   VEPeer.obj
 0002:000f7c40       ?SendTTL@VEPeer@VENet@@UAEXPBDGHI@Z 005aec40 f   VEPeer.obj
 0002:000f7e00       ?SetIncomingPassword@VEPeer@VENet@@UAEXPBDH@Z 005aee00 f   VEPeer.obj
 0002:000f7eb0       ?SetLimitIPConnectionFrequency@VEPeer@VENet@@UAEX_N@Z 005aeeb0 f   VEPeer.obj
 0002:000f7f00       ?SetMaximumIncomingConnections@VEPeer@VENet@@UAEXG@Z 005aef00 f   VEPeer.obj
 0002:000f7f50       ?SetNull@?$VENetSmartPtr@UVENetSocket@VENet@@@VENet@@QAEXXZ 005aef50 f i VEPeer.obj
 0002:000f8000       ?SetOccasionalPing@VEPeer@VENet@@UAEX_N@Z 005af000 f   VEPeer.obj
 0002:000f8050       ?SetOfflinePingResponse@VEPeer@VENet@@UAEXPBDI@Z 005af050 f   VEPeer.obj
 0002:000f8140       ?SetPageSize@?$MemoryPool@UBufferedCommandStruct@VEPeer@VENet@@@DataStructures@@QAEXH@Z 005af140 f i VEPeer.obj
 0002:000f8190       ?SetPageSize@?$MemoryPool@UPacket@VENet@@@DataStructures@@QAEXH@Z 005af190 f i VEPeer.obj
 0002:000f81e0       ?SetPageSize@?$MemoryPool@URecvFromStruct@VEPeer@VENet@@@DataStructures@@QAEXH@Z 005af1e0 f i VEPeer.obj
 0002:000f8230       ?SetPageSize@?$MemoryPool@URemoteSystemIndex@VENet@@@DataStructures@@QAEXH@Z 005af230 f i VEPeer.obj
 0002:000f8280       ?SetPageSize@?$MemoryPool@USocketQueryOutput@VEPeer@VENet@@@DataStructures@@QAEXH@Z 005af280 f i VEPeer.obj
 0002:000f82d0       ?SetPageSize@?$ThreadsafeAllocatingQueue@UBufferedCommandStruct@VEPeer@VENet@@@DataStructures@@QAEXH@Z 005af2d0 f i VEPeer.obj
 0002:000f8330       ?SetPageSize@?$ThreadsafeAllocatingQueue@URecvFromStruct@VEPeer@VENet@@@DataStructures@@QAEXH@Z 005af330 f i VEPeer.obj
 0002:000f8390       ?SetPageSize@?$ThreadsafeAllocatingQueue@USocketQueryOutput@VEPeer@VENet@@@DataStructures@@QAEXH@Z 005af390 f i VEPeer.obj
 0002:000f83f0       ?SetPerConnectionOutgoingBandwidthLimit@VEPeer@VENet@@UAEXI@Z 005af3f0 f   VEPeer.obj
 0002:000f8440       ?SetSplitMessageProgressInterval@VEPeer@VENet@@UAEXH@Z 005af440 f   VEPeer.obj
 0002:000f8530       ?SetTimeoutTime@VEPeer@VENet@@UAEXIUSystemAddress@2@@Z 005af530 f   VEPeer.obj
 0002:000f86a0       ?SetUnreliableTimeout@VEPeer@VENet@@UAEXI@Z 005af6a0 f   VEPeer.obj
 0002:000f8760       ?SetUserUpdateThread@VEPeer@VENet@@UAEXP6AXPAVVEPeerInterface@2@PAX@Z1@Z 005af760 f   VEPeer.obj
 0002:000f87c0       ?ShiftIncomingTimestamp@VEPeer@VENet@@IBEXPAEABUSystemAddress@2@@Z 005af7c0 f   VEPeer.obj
 0002:000f8a00       ?Shutdown@VEPeer@VENet@@UAEXIEW4PacketPriority@@@Z 005afa00 f   VEPeer.obj
 0002:000f92d0       ?Size@?$List@PAUBanStruct@VEPeer@VENet@@@DataStructures@@QBEIXZ 005b02d0 f i VEPeer.obj
 0002:000f9310       ?Size@?$List@V?$VENetSmartPtr@UVENetSocket@VENet@@@VENet@@@DataStructures@@QBEIXZ 005b0310 f i VEPeer.obj
 0002:000f9350       ?Size@?$Queue@PAUBufferedCommandStruct@VEPeer@VENet@@@DataStructures@@QBEIXZ 005b0350 f i VEPeer.obj
 0002:000f93c0       ?Size@?$Queue@PAURecvFromStruct@VEPeer@VENet@@@DataStructures@@QBEIXZ 005b03c0 f i VEPeer.obj
 0002:000f9430       ?Size@?$Queue@PAURequestedConnectionStruct@VEPeer@VENet@@@DataStructures@@QBEIXZ 005b0430 f i VEPeer.obj
 0002:000f94a0       ?Size@?$Queue@PAUSocketQueryOutput@VEPeer@VENet@@@DataStructures@@QBEIXZ 005b04a0 f i VEPeer.obj
 0002:000f9510       ?Startup@VEPeer@VENet@@UAE?AW4StartupResult@2@GPAUSocketDescriptor@2@IH@Z 005b0510 f   VEPeer.obj
 0002:000fa180       ?UpdateNetworkLoop@VENet@@YGIPAX@Z 005b1180 f   VEPeer.obj
 0002:000fa340       ?ValidateRemoteSystemLookup@VEPeer@VENet@@IBEXXZ 005b1340 f   VEPeer.obj
 0002:000fa380       ?WriteOutOfBandHeader@VEPeer@VENet@@UAEXPAVBitStream@2@@Z 005b1380 f   VEPeer.obj
 0002:000fa410       ?VESleep@@YAXI@Z           005b1410 f   VESleep.obj
 0002:000fa470       ??$OP_DELETE@VSimpleMutex@VENet@@@VENet@@YAXPAVSimpleMutex@0@PBDI@Z 005b1470 f i VEString.obj
 0002:000fa500       ??$OP_DELETE_ARRAY@PAUSharedString@VEString@VENet@@@VENet@@YAXPAPAUSharedString@VEString@0@PBDI@Z 005b1500 f i VEString.obj
 0002:000fa560       ??$OP_DELETE_ARRAY@_W@VENet@@YAXPA_WPBDI@Z 005b1560 f i VEString.obj
 0002:000fa5c0       ??$OP_NEW@VSimpleMutex@VENet@@@VENet@@YAPAVSimpleMutex@0@PBDI@Z 005b15c0 f i VEString.obj
 0002:000fa6a0       ??$OP_NEW_ARRAY@PAUSharedString@VEString@VENet@@@VENet@@YAPAPAUSharedString@VEString@0@HPBDI@Z 005b16a0 f i VEString.obj
 0002:000fa720       ??$OP_NEW_ARRAY@_W@VENet@@YAPA_WHPBDI@Z 005b1720 f i VEString.obj
 0002:000fa7a0       ??$ReadCompressed@E@BitStream@VENet@@QAE_NAAE@Z 005b17a0 f i VEString.obj
 0002:000fa8b0       ??$WriteCompressed@E@BitStream@VENet@@QAEXABE@Z 005b18b0 f i VEString.obj
 0002:000fa9b0       ??0?$List@PAUSharedString@VEString@VENet@@@DataStructures@@QAE@XZ 005b19b0 f i VEString.obj
 0002:000faa10       ??0VEString@VENet@@QAA@PBDZZ 005b1a10 f   VEString.obj
 0002:000faa70       ??0VEString@VENet@@QAA@PBEZZ 005b1a70 f   VEString.obj
 0002:000faad0       ??0VEString@VENet@@QAE@ABV01@@Z 005b1ad0 f   VEString.obj
 0002:000faba0       ??0VEString@VENet@@QAE@D@Z 005b1ba0 f   VEString.obj
 0002:000fac80       ??0VEString@VENet@@QAE@E@Z 005b1c80 f   VEString.obj
 0002:000fad60       ??0VEString@VENet@@QAE@PAUSharedString@01@@Z 005b1d60 f   VEString.obj
 0002:000fadb0       ??0VEString@VENet@@QAE@XZ  005b1db0 f   VEString.obj
 0002:000fae00       ??1?$List@PAUSharedString@VEString@VENet@@@DataStructures@@QAE@XZ 005b1e00 f i VEString.obj
 0002:000fae70       ??1RakStringCleanup@@QAE@XZ 005b1e70 f i VEString.obj
 0002:000faec0       ??1VEString@VENet@@QAE@XZ  005b1ec0 f   VEString.obj
 0002:000faf10       ??4VEString@VENet@@QAEAAV01@ABV01@@Z 005b1f10 f   VEString.obj
 0002:000fafe0       ??4VEString@VENet@@QAEAAV01@D@Z 005b1fe0 f   VEString.obj
 0002:000fb0b0       ??4VEString@VENet@@QAEAAV01@PAD@Z 005b20b0 f   VEString.obj
 0002:000fb110       ??4VEString@VENet@@QAEAAV01@PAE@Z 005b2110 f   VEString.obj
 0002:000fb170       ??4VEString@VENet@@QAEAAV01@PBD@Z 005b2170 f   VEString.obj
 0002:000fb1e0       ??4VEString@VENet@@QAEAAV01@PBE@Z 005b21e0 f   VEString.obj
 0002:000fb240       ??8VEString@VENet@@QBE_NABV01@@Z 005b2240 f   VEString.obj
 0002:000fb2d0       ??8VEString@VENet@@QBE_NPAD@Z 005b22d0 f   VEString.obj
 0002:000fb360       ??8VEString@VENet@@QBE_NPBD@Z 005b2360 f   VEString.obj
 0002:000fb3f0       ??9VEString@VENet@@QBE_NABV01@@Z 005b23f0 f   VEString.obj
 0002:000fb480       ??9VEString@VENet@@QBE_NPAD@Z 005b2480 f   VEString.obj
 0002:000fb510       ??9VEString@VENet@@QBE_NPBD@Z 005b2510 f   VEString.obj
 0002:000fb5a0       ??A?$List@PAUSharedString@VEString@VENet@@@DataStructures@@QBEAAPAUSharedString@VEString@VENet@@I@Z 005b25a0 f i VEString.obj
 0002:000fb640       ??AVEString@VENet@@QBEEI@Z 005b2640 f   VEString.obj
 0002:000fb6e0       ??H@YA?BVVEString@VENet@@ABV01@0@Z 005b26e0 f   VEString.obj
 0002:000fbb50       ??MVEString@VENet@@QBE_NABV01@@Z 005b2b50 f   VEString.obj
 0002:000fbbe0       ??NVEString@VENet@@QBE_NABV01@@Z 005b2be0 f   VEString.obj
 0002:000fbc70       ??OVEString@VENet@@QBE_NABV01@@Z 005b2c70 f   VEString.obj
 0002:000fbd00       ??PVEString@VENet@@QBE_NABV01@@Z 005b2d00 f   VEString.obj
 0002:000fbd90       ??YVEString@VENet@@QAEAAV01@ABV01@@Z 005b2d90 f   VEString.obj
 0002:000fbe90       ??YVEString@VENet@@QAEAAV01@D@Z 005b2e90 f   VEString.obj
 0002:000fbf60       ??YVEString@VENet@@QAEAAV01@PAD@Z 005b2f60 f   VEString.obj
 0002:000fbfc0       ??YVEString@VENet@@QAEAAV01@PAE@Z 005b2fc0 f   VEString.obj
 0002:000fc020       ??YVEString@VENet@@QAEAAV01@PBD@Z 005b3020 f   VEString.obj
 0002:000fc120       ??YVEString@VENet@@QAEAAV01@PBE@Z 005b3120 f   VEString.obj
 0002:000fc180       ??_GSimpleMutex@VENet@@QAEPAXI@Z 005b3180 f i VEString.obj
 0002:000fc1f0       ?Allocate@VEString@VENet@@IAEXI@Z 005b31f0 f   VEString.obj
 0002:000fc410       ?AppendBytes@VEString@VENet@@QAEXPBDI@Z 005b3410 f   VEString.obj
 0002:000fc4c0       ?Assign@VEString@VENet@@IAEXPBD@Z 005b34c0 f   VEString.obj
 0002:000fc580       ?Assign@VEString@VENet@@IAEXPBDPAD@Z 005b3580 f   VEString.obj
 0002:000fc850       ?Assign@VEString@VENet@@QAE?AV12@PBDII@Z 005b3850 f   VEString.obj
 0002:000fc9c0       ?Clear@?$List@PAUSharedString@VEString@VENet@@@DataStructures@@QAEX_NPBDI@Z 005b39c0 f i VEString.obj
 0002:000fca70       ?Clear@VEString@VENet@@QAEXXZ 005b3a70 f   VEString.obj
 0002:000fcac0       ?Clone@VEString@VENet@@IAEXXZ 005b3ac0 f   VEString.obj
 0002:000fcb80       ?ContainsNonprintableExceptSpaces@VEString@VENet@@QBE_NXZ 005b3b80 f   VEString.obj
 0002:000fcc40       ?DeallocWideChar@VEString@VENet@@QAEXPA_W@Z 005b3c40 f   VEString.obj
 0002:000fccb0       ?Deserialize@VEString@VENet@@QAE_NPAVBitStream@2@@Z 005b3cb0 f   VEString.obj
 0002:000fcdc0       ?Deserialize@VEString@VENet@@SA_NPADPAVBitStream@2@@Z 005b3dc0 f   VEString.obj
 0002:000fcea0       ?DeserializeCompressed@VEString@VENet@@QAE_NPAVBitStream@2@_N@Z 005b3ea0 f   VEString.obj
 0002:000fcf70       ?DeserializeCompressed@VEString@VENet@@SA_NPADPAVBitStream@2@_N@Z 005b3f70 f   VEString.obj
 0002:000fd040       ?Erase@VEString@VENet@@QAEXII@Z 005b4040 f   VEString.obj
 0002:000fd140       ?FPrintf@VEString@VENet@@QAEXPAU_iobuf@@@Z 005b4140 f   VEString.obj
 0002:000fd1c0       ?Find@VEString@VENet@@QAEIPBDI@Z 005b41c0 f   VEString.obj
 0002:000fd2f0       ?FormatForGET@VEString@VENet@@SA?AV12@AAV12@I@Z 005b42f0 f   VEString.obj
 0002:000fd570       ?FormatForPOST@VEString@VENet@@SA?AV12@AAV12@0I0@Z 005b4570 f   VEString.obj
 0002:000fd810       ?Free@VEString@VENet@@IAEXXZ 005b4810 f   VEString.obj
 0002:000fd950       ?FreeMemory@VEString@VENet@@SAXXZ 005b4950 f   VEString.obj
 0002:000fd9b0       ?FreeMemoryNoMutex@VEString@VENet@@SAXXZ 005b49b0 f   VEString.obj
 0002:000fdab0       ?GetCharacterCount@VEString@VENet@@QAEHD@Z 005b4ab0 f   VEString.obj
 0002:000fdb60       ?GetLength@VEString@VENet@@QBEIXZ 005b4b60 f   VEString.obj
 0002:000fdbc0       ?GetLengthUTF8@VEString@VENet@@QBEIXZ 005b4bc0 f   VEString.obj
 0002:000fdc20       ?GetPoolMutex@@YAAAVSimpleMutex@VENet@@XZ 005b4c20 f   VEString.obj
 0002:000fdcf0       ?GetSizeToAllocate@VEString@VENet@@SAII@Z 005b4cf0 f i VEString.obj
 0002:000fdd40       ?IPAddressMatch@VEString@VENet@@QAE_NPBD@Z 005b4d40 f   VEString.obj
 0002:000fde70       ?Insert@?$List@PAUSharedString@VEString@VENet@@@DataStructures@@QAEXABQAUSharedString@VEString@VENet@@PBDI@Z 005b4e70 f i VEString.obj
 0002:000fdfc0       ?IsEmailAddress@VEString@VENet@@QBE_NXZ 005b4fc0 f   VEString.obj
 0002:000fe1a0       ?IsEmpty@VEString@VENet@@QBE_NXZ 005b51a0 f   VEString.obj
 0002:000fe210       ?LockMutex@VEString@VENet@@SAXXZ 005b5210 f   VEString.obj
 0002:000fe260       ?MakeFilePath@VEString@VENet@@QAEAAV12@XZ 005b5260 f   VEString.obj
 0002:000fe430       ?NonVariadic@VEString@VENet@@SA?AV12@PBD@Z 005b5430 f   VEString.obj
 0002:000fe540       ?Printf@VEString@VENet@@QAEXXZ 005b5540 f   VEString.obj
 0002:000fe5b0       ?RakStringComp@VEString@VENet@@SAHABV12@0@Z 005b55b0 f   VEString.obj
 0002:000fe600       ?Realloc@VEString@VENet@@IAEXPAUSharedString@12@I@Z 005b5600 f   VEString.obj
 0002:000fe790       ?RemoveAtIndex@?$List@PAUSharedString@VEString@VENet@@@DataStructures@@QAEXI@Z 005b5790 f i VEString.obj
 0002:000fe880       ?RemoveCharacter@VEString@VENet@@QAEXD@Z 005b5880 f   VEString.obj
 0002:000fe980       ?RemoveFromEnd@?$List@PAUSharedString@VEString@VENet@@@DataStructures@@QAEXI@Z 005b5980 f i VEString.obj
 0002:000fea20       ?Replace@VEString@VENet@@QAEXIIE@Z 005b5a20 f   VEString.obj
 0002:000feb00       ?SQLEscape@VEString@VENet@@QAEAAV12@XZ 005b5b00 f   VEString.obj
 0002:000fed20       ?Serialize@VEString@VENet@@QBEXPAVBitStream@2@@Z 005b5d20 f   VEString.obj
 0002:000fed90       ?Serialize@VEString@VENet@@SAXPBDPAVBitStream@2@@Z 005b5d90 f   VEString.obj
 0002:000fee40       ?SerializeCompressed@VEString@VENet@@QBEXPAVBitStream@2@E_N@Z 005b5e40 f   VEString.obj
 0002:000feeb0       ?SerializeCompressed@VEString@VENet@@SAXPBDPAVBitStream@2@E_N@Z 005b5eb0 f   VEString.obj
 0002:000fef30       ?Set@VEString@VENet@@QAAXPBDZZ 005b5f30 f   VEString.obj
 0002:000fefa0       ?SetChar@VEString@VENet@@QAEXIE@Z 005b5fa0 f   VEString.obj
 0002:000ff050       ?SetChar@VEString@VENet@@QAEXIV12@@Z 005b6050 f   VEString.obj
 0002:000ff210       ?Size@?$List@PAUSharedString@VEString@VENet@@@DataStructures@@QBEIXZ 005b6210 f i VEString.obj
 0002:000ff250       ?SplitURI@VEString@VENet@@QAEXAAV12@00@Z 005b6250 f   VEString.obj
 0002:000ff540       ?StrCmp@VEString@VENet@@QBEHABV12@@Z 005b6540 f   VEString.obj
 0002:000ff5b0       ?StrICmp@VEString@VENet@@QBEHABV12@@Z 005b65b0 f   VEString.obj
 0002:000ff630       ?StrNCmp@VEString@VENet@@QBEHABV12@I@Z 005b6630 f   VEString.obj
 0002:000ff6b0       ?SubStr@VEString@VENet@@QBE?AV12@II@Z 005b66b0 f   VEString.obj
 0002:000ff890       ?TerminateAtFirstCharacter@VEString@VENet@@QAEXD@Z 005b6890 f   VEString.obj
 0002:000ff950       ?TerminateAtLastCharacter@VEString@VENet@@QAEXD@Z 005b6950 f   VEString.obj
 0002:000ffa10       ?ToInteger@VEString@VENet@@SAKABV12@@Z 005b6a10 f   VEString.obj
 0002:000ffa70       ?ToInteger@VEString@VENet@@SAKPBD@Z 005b6a70 f   VEString.obj
 0002:000ffb00       ?ToLower@VEString@VENet@@IAEEE@Z 005b6b00 f   VEString.obj
 0002:000ffb60       ?ToLower@VEString@VENet@@QAEPBDXZ 005b6b60 f   VEString.obj
 0002:000ffc30       ?ToString@VEString@VENet@@SAPBD_J@Z 005b6c30 f   VEString.obj
 0002:000ffcf0       ?ToString@VEString@VENet@@SAPBD_K@Z 005b6cf0 f   VEString.obj
 0002:000ffdb0       ?ToUpper@VEString@VENet@@IAEEE@Z 005b6db0 f   VEString.obj
 0002:000ffe10       ?ToUpper@VEString@VENet@@QAEPBDXZ 005b6e10 f   VEString.obj
 0002:000ffee0       ?ToWideChar@VEString@VENet@@QAEPA_WXZ 005b6ee0 f   VEString.obj
 0002:001000a0       ?Truncate@VEString@VENet@@QAEXI@Z 005b70a0 f   VEString.obj
 0002:00100110       ?TruncateUTF8@VEString@VENet@@QAEXI@Z 005b7110 f   VEString.obj
 0002:00100240       ?URLDecode@VEString@VENet@@QAEAAV12@XZ 005b7240 f   VEString.obj
 0002:001005d0       ?URLEncode@VEString@VENet@@QAEAAV12@XZ 005b75d0 f   VEString.obj
 0002:00100860       ?UnlockMutex@VEString@VENet@@SAXXZ 005b7860 f   VEString.obj
 0002:001008b0       ?porges_strlen2@@YAHPAD@Z  005b78b0 f   VEString.obj
 0002:001009d0       ?Create@VEThread@VENet@@SAHP6GIPAX@Z0H@Z 005b79d0 f   VEThread.obj
 0002:00100ad0       ??$ReadCasted@GI@BitStream@VENet@@QAE_NAAI@Z 005b7ad0 f i VEWString.obj
 0002:00100b70       ??0VEWString@VENet@@QAE@ABV01@@Z 005b7b70 f   VEWString.obj
 0002:00100bf0       ??0VEWString@VENet@@QAE@ABVVEString@1@@Z 005b7bf0 f   VEWString.obj
 0002:00100c70       ??0VEWString@VENet@@QAE@PBD@Z 005b7c70 f   VEWString.obj
 0002:00100cf0       ??0VEWString@VENet@@QAE@PB_W@Z 005b7cf0 f   VEWString.obj
 0002:00100d70       ??0VEWString@VENet@@QAE@XZ 005b7d70 f   VEWString.obj
 0002:00100dc0       ??1VEWString@VENet@@QAE@XZ 005b7dc0 f   VEWString.obj
 0002:00100e40       ??4VEWString@VENet@@QAEAAV01@ABV01@@Z 005b7e40 f   VEWString.obj
 0002:00100f80       ??4VEWString@VENet@@QAEAAV01@ABVVEString@1@@Z 005b7f80 f   VEWString.obj
 0002:00100fe0       ??4VEWString@VENet@@QAEAAV01@PAD@Z 005b7fe0 f   VEWString.obj
 0002:00101040       ??4VEWString@VENet@@QAEAAV01@PA_W@Z 005b8040 f   VEWString.obj
 0002:001010a0       ??4VEWString@VENet@@QAEAAV01@QBD@Z 005b80a0 f   VEWString.obj
 0002:00101240       ??4VEWString@VENet@@QAEAAV01@QB_W@Z 005b8240 f   VEWString.obj
 0002:00101390       ??8VEWString@VENet@@QBE_NABV01@@Z 005b8390 f   VEWString.obj
 0002:00101450       ??9VEWString@VENet@@QBE_NABV01@@Z 005b8450 f   VEWString.obj
 0002:00101510       ??MVEWString@VENet@@QBE_NABV01@@Z 005b8510 f   VEWString.obj
 0002:001015b0       ??NVEWString@VENet@@QBE_NABV01@@Z 005b85b0 f   VEWString.obj
 0002:00101650       ??OVEWString@VENet@@QBE_NABV01@@Z 005b8650 f   VEWString.obj
 0002:001016f0       ??PVEWString@VENet@@QBE_NABV01@@Z 005b86f0 f   VEWString.obj
 0002:00101790       ??YVEWString@VENet@@QAEAAV01@ABV01@@Z 005b8790 f   VEWString.obj
 0002:00101950       ??YVEWString@VENet@@QAEAAV01@PA_W@Z 005b8950 f   VEWString.obj
 0002:001019b0       ??YVEWString@VENet@@QAEAAV01@QB_W@Z 005b89b0 f   VEWString.obj
 0002:00101b60       ?C_String@VEWString@VENet@@QBEPB_WXZ 005b8b60 f i VEWString.obj
 0002:00101bb0       ?Clear@VEWString@VENet@@QAEXXZ 005b8bb0 f   VEWString.obj
 0002:00101c40       ?Deserialize@VEWString@VENet@@QAE_NPAVBitStream@2@@Z 005b8c40 f   VEWString.obj
 0002:00101db0       ?Deserialize@VEWString@VENet@@SA_NPA_WPAVBitStream@2@@Z 005b8db0 f   VEWString.obj
 0002:00101ee0       ?FPrintf@VEWString@VENet@@QAEXPAU_iobuf@@@Z 005b8ee0 f   VEWString.obj
 0002:00101f60       ?GetLength@VEWString@VENet@@QBEIXZ 005b8f60 f   VEWString.obj
 0002:00101fa0       ?IsEmpty@VEWString@VENet@@QBE_NXZ 005b8fa0 f   VEWString.obj
 0002:00102020       ?Printf@VEWString@VENet@@QAEXXZ 005b9020 f   VEWString.obj
 0002:00102090       ?Serialize@VEWString@VENet@@QBEXPAVBitStream@2@@Z 005b9090 f   VEWString.obj
 0002:001020f0       ?Serialize@VEWString@VENet@@SAXQB_WPAVBitStream@2@@Z 005b90f0 f   VEWString.obj
 0002:00102200       ?Set@VEWString@VENet@@QAEXPA_W@Z 005b9200 f   VEWString.obj
 0002:00102260       ?StrCmp@VEWString@VENet@@QBEHABV12@@Z 005b9260 f   VEWString.obj
 0002:001022e0       ?StrICmp@VEWString@VENet@@QBEHABV12@@Z 005b92e0 f   VEWString.obj
 0002:00102360       ?ToInteger@VEWString@VENet@@SAKABV12@@Z 005b9360 f   VEWString.obj
 0002:00102420       ??0WSAStartupSingleton@@QAE@XZ 005b9420 f   WSAStartupSingleton.obj
 0002:00102460       ??1WSAStartupSingleton@@QAE@XZ 005b9460 f   WSAStartupSingleton.obj
 0002:001024a0       ?AddRef@WSAStartupSingleton@@SAXXZ 005b94a0 f   WSAStartupSingleton.obj
 0002:00102640       ?Deref@WSAStartupSingleton@@SAXXZ 005b9640 f   WSAStartupSingleton.obj
 0002:001026d0       ??$?6E@@YAAAVBitStream@VENet@@AAV01@ABE@Z 005b96d0 f i ClientAgent.obj
 0002:00102730       ??0?$VePointer@VVePoolAllocator@@@@QAE@PAVVePoolAllocator@@@Z 005b9730 f i ClientAgent.obj
 0002:001027b0       ??0?$VeRefList@PAUNode@?$VeStringMap@PAVEntityS@@@@@@QAE@XZ 005b97b0 f i ClientAgent.obj
 0002:00102820       ??0?$VeRefList@PAVEntityS@@@@QAE@XZ 005b9820 f i ClientAgent.obj
 0002:00102890       ??0?$VeRefNode@PAVClientAgent@@@@QAE@XZ 005b9890 f i ClientAgent.obj
 0002:001028f0       ??0?$VeStringMap@PAVEntityS@@@@QAE@IV?$VePointer@VVePoolAllocator@@@@@Z 005b98f0 f i ClientAgent.obj
 0002:00102a30       ??0?$VeVector@PAUNode@?$VeStringMap@PAVEntityS@@@@@@QAE@XZ 005b9a30 f i ClientAgent.obj
 0002:00102a90       ??0ClientAgent@@QAE@PAVServer@@ABUSystemAddress@VENet@@@Z 005b9a90 f   ClientAgent.obj
 0002:00102bc0       ??1?$VePointer@VVePoolAllocator@@@@QAE@XZ 005b9bc0 f i ClientAgent.obj
 0002:00102c30       ??1?$VeRefList@PAUNode@?$VeStringMap@PAVEntityS@@@@@@QAE@XZ 005b9c30 f i ClientAgent.obj
 0002:00102c80       ??1?$VeRefList@PAVEntityS@@@@QAE@XZ 005b9c80 f i ClientAgent.obj
 0002:00102cd0       ??1?$VeRefNode@PAUNode@?$VeStringMap@PAVEntityS@@@@@@QAE@XZ 005b9cd0 f i ClientAgent.obj
 0002:00102d20       ??1?$VeRefNode@PAVClientAgent@@@@QAE@XZ 005b9d20 f i ClientAgent.obj
 0002:00102d70       ??1?$VeStringMap@PAVEntityS@@@@QAE@XZ 005b9d70 f i ClientAgent.obj
 0002:00102e40       ??1?$VeVector@PAUNode@?$VeStringMap@PAVEntityS@@@@@@QAE@XZ 005b9e40 f i ClientAgent.obj
 0002:00102ef0       ??1ClientAgent@@UAE@XZ     005b9ef0 f   ClientAgent.obj
 0002:00102fc0       ??1Node@?$VeStringMap@PAVEntityS@@@@QAE@XZ 005b9fc0 f i ClientAgent.obj
 0002:00103080       ??4?$VePointer@VVePoolAllocator@@@@QAEAAV0@ABV0@@Z 005ba080 f i ClientAgent.obj
 0002:00103130       ??4?$VePointer@VVePoolAllocator@@@@QAEAAV0@PAVVePoolAllocator@@@Z 005ba130 f i ClientAgent.obj
 0002:001031e0       ??A?$VeVector@PAUNode@?$VeStringMap@PAVEntityS@@@@@@QAEAAPAUNode@?$VeStringMap@PAVEntityS@@@@I@Z 005ba1e0 f i ClientAgent.obj
 0002:00103270       ??B?$VePointer@VVePoolAllocator@@@@QBEPAVVePoolAllocator@@XZ 005ba270 f i ClientAgent.obj
 0002:001032b0       ??C?$VePointer@VVePoolAllocator@@@@QBEPAVVePoolAllocator@@XZ 005ba2b0 f i ClientAgent.obj
 0002:001032f0       ??_EClientAgent@@UAEPAXI@Z 005ba2f0 f i ClientAgent.obj
 0002:001032f0       ??_GClientAgent@@UAEPAXI@Z 005ba2f0 f i ClientAgent.obj
 0002:00103370       ??_GNode@?$VeStringMap@PAVEntityS@@@@QAEPAXI@Z 005ba370 f i ClientAgent.obj
 0002:001033e0       ??_EVePoolAllocator@@UAEPAXI@Z 005ba3e0 f i ClientAgent.obj
 0002:001033e0       ??_GVePoolAllocator@@UAEPAXI@Z 005ba3e0 f i ClientAgent.obj
 0002:00103470       ?AttachEntity@ClientAgent@@QAE?AW4LoadEntResult@@PBD0PAPAVEntityS@@@Z 005ba470 f   ClientAgent.obj
 0002:00103620       ?BeginIterator@?$VeRefList@PAVEntityS@@@@QBEXXZ 005ba620 f i ClientAgent.obj
 0002:00103670       ?Clear@?$VeRefList@PAUNode@?$VeStringMap@PAVEntityS@@@@@@QAEXXZ 005ba670 f i ClientAgent.obj
 0002:00103730       ?Clear@?$VeRefList@PAVEntityS@@@@QAEXXZ 005ba730 f i ClientAgent.obj
 0002:001037f0       ?Clear@?$VeStringMap@PAVEntityS@@@@QAEXXZ 005ba7f0 f i ClientAgent.obj
 0002:00103940       ?Clear@?$VeVector@PAUNode@?$VeStringMap@PAVEntityS@@@@@@QAEXXZ 005ba940 f i ClientAgent.obj
 0002:001039a0       ?Detach@?$VeRefNode@PAUNode@?$VeStringMap@PAVEntityS@@@@@@QAEXXZ 005ba9a0 f i ClientAgent.obj
 0002:00103ac0       ?Detach@?$VeRefNode@PAVClientAgent@@@@QAEXXZ 005baac0 f i ClientAgent.obj
 0002:00103be0       ?DetachAllEntities@ClientAgent@@QAEXXZ 005babe0 f   ClientAgent.obj
 0002:00103cd0       ?DetachEntity@ClientAgent@@QAE?AW4UnLoadEntResult@@PBD@Z 005bacd0 f   ClientAgent.obj
 0002:00103d60       ?Disconnect@ClientAgent@@QAEXXZ 005bad60 f   ClientAgent.obj
 0002:00103ea0       ?Find@?$VeStringMap@PAVEntityS@@@@QAEPAPAVEntityS@@PBD@Z 005baea0 f i ClientAgent.obj
 0002:00103f30       ?FindNode@?$VeStringMap@PAVEntityS@@@@AAEPAUNode@1@PBD@Z 005baf30 f i ClientAgent.obj
 0002:00104050       ?GetEntity@ClientAgent@@QAEPAVEntityS@@PBD@Z 005bb050 f   ClientAgent.obj
 0002:001040e0       ?GetIterNode@?$VeRefList@PAVEntityS@@@@QBEPAV?$VeRefNode@PAVEntityS@@@@XZ 005bb0e0 f i ClientAgent.obj
 0002:00104120       ?IsEnd@?$VeRefList@PAVEntityS@@@@QBE_NXZ 005bb120 f i ClientAgent.obj
 0002:00104180       ?Next@?$VeRefList@PAVEntityS@@@@QBEXXZ 005bb180 f i ClientAgent.obj
 0002:00104210       ?Next@?$VeRefNode@PAUNode@?$VeStringMap@PAVEntityS@@@@@@QBEPAV1@XZ 005bb210 f i ClientAgent.obj
 0002:00104250       ?Next@?$VeRefNode@PAVClientAgent@@@@QBEPAV1@XZ 005bb250 f i ClientAgent.obj
 0002:00104290       ?OnEntityRPCCallback@ClientAgent@@QAEXAAVBitStream@VENet@@@Z 005bb290 f   ClientAgent.obj
 0002:001043d0       ?Reserve@?$VeVector@PAUNode@?$VeStringMap@PAVEntityS@@@@@@QAEXI@Z 005bb3d0 f i ClientAgent.obj
 0002:001044c0       ?Resize@?$VeVector@PAUNode@?$VeStringMap@PAVEntityS@@@@@@QAEXI@Z 005bb4c0 f i ClientAgent.obj
 0002:00104610       ?SendPacket@ClientAgent@@IAEXABVBitStream@VENet@@@Z 005bb610 f   ClientAgent.obj
 0002:001046a0       ?SetAllocator@?$VeStringMap@PAVEntityS@@@@AAEXABV?$VePointer@VVePoolAllocator@@@@@Z 005bb6a0 f i ClientAgent.obj
 0002:00104860       ?Size@?$VeVector@PAUNode@?$VeStringMap@PAVEntityS@@@@@@QBEIXZ 005bb860 f i ClientAgent.obj
 0002:001048a0       ?SyncEntityToClient@ClientAgent@@QAEXPBD@Z 005bb8a0 f   ClientAgent.obj
 0002:00104920       ??0?$VePair@VVeStringA@@H@@QAE@ABU0@@Z 005bb920 f i DBBusiness.obj
 0002:001049a0       ??0?$VePair@VVeStringA@@H@@QAE@ABVVeStringA@@ABH@Z 005bb9a0 f i DBBusiness.obj
 0002:00104a20       ??0?$VePair@VVeStringA@@H@@QAE@XZ 005bba20 f i DBBusiness.obj
 0002:00104aa0       ??0?$VeVector@U?$VePair@VVeStringA@@H@@@@QAE@ABV0@@Z 005bbaa0 f i DBBusiness.obj
 0002:00104b20       ??0?$VeVector@U?$VePair@VVeStringA@@H@@@@QAE@XZ 005bbb20 f i DBBusiness.obj
 0002:00104b80       ??0DBBusiness@@QAE@PBD00@Z 005bbb80 f   DBBusiness.obj
 0002:00104d60       ??1?$VePair@VVeStringA@@H@@QAE@XZ 005bbd60 f i DBBusiness.obj
 0002:00104dc0       ??1?$VeVector@U?$VePair@VVeStringA@@H@@@@QAE@XZ 005bbdc0 f i DBBusiness.obj
 0002:00104e70       ??1DBBusiness@@UAE@XZ      005bbe70 f   DBBusiness.obj
 0002:00104f90       ??1Shell@?$VeVector@U?$VePair@VVeStringA@@H@@@@QAE@XZ 005bbf90 f i DBBusiness.obj
 0002:00104fe0       ??4?$VePair@VVeStringA@@H@@QAEAAU0@ABU0@@Z 005bbfe0 f i DBBusiness.obj
 0002:00105070       ??A?$VeVector@PAVPropertySValue@@@@QAEAAPAVPropertySValue@@I@Z 005bc070 f i DBBusiness.obj
 0002:00105100       ??_EDBBusiness@@UAEPAXI@Z  005bc100 f i DBBusiness.obj
 0002:00105100       ??_GDBBusiness@@UAEPAXI@Z  005bc100 f i DBBusiness.obj
 0002:00105180       ??_GShell@?$VeVector@U?$VePair@VVeStringA@@H@@@@QAEPAXI@Z 005bc180 f i DBBusiness.obj
 0002:001051f0       ?AddProperty@DBBusiness@@QAEHPAVPropertySValue@@PAVPropertySContainer@@@Z 005bc1f0 f   DBBusiness.obj
 0002:00105cf0       ?At@?$VeVector@U?$VePair@VVeStringA@@H@@@@QAEAAU?$VePair@VVeStringA@@H@@I@Z 005bccf0 f i DBBusiness.obj
 0002:00105d80       ?At@?$VeVector@U?$VePair@VVeStringA@@H@@@@QBEABU?$VePair@VVeStringA@@H@@I@Z 005bcd80 f i DBBusiness.obj
 0002:00105e10       ?BeginIterator@?$VeRefList@PAVPropertySValue@@@@QBEXXZ 005bce10 f i DBBusiness.obj
 0002:00105e60       ?Clear@?$VeVector@U?$VePair@VVeStringA@@H@@@@QAEXXZ 005bce60 f i DBBusiness.obj
 0002:00105ec0       ?CloseStmt@CDBAccess@@QAEXXZ 005bcec0 f i DBBusiness.obj
 0002:00105f30       ?CopyFrom@?$VeVector@U?$VePair@VVeStringA@@H@@@@QAEXABV1@@Z 005bcf30 f i DBBusiness.obj
 0002:00105fe0       ?CreateTable@DBBusiness@@QAEHPAVPropertySContainer@@@Z 005bcfe0 f   DBBusiness.obj
 0002:00106ca0       ?DataToString@DBBusiness@@QAEXPAXPADH@Z 005bdca0 f   DBBusiness.obj
 0002:00106ec0       ?Delete@DBBusiness@@QAEHPAVPropertySContainer@@@Z 005bdec0 f   DBBusiness.obj
 0002:00106f00       ?FecthNext@CDBAccess@@QAE_NXZ 005bdf00 f i DBBusiness.obj
 0002:00106f60       ?FetchFirst@CDBAccess@@QAE_NXZ 005bdf60 f i DBBusiness.obj
 0002:00106fc0       ?GetData@CDBAccess@@QAE_NPBDPAXKPAJH@Z 005bdfc0 f i DBBusiness.obj
 0002:00107040       ?GetIterNode@?$VeRefList@PAVPropertySValue@@@@QBEPAV?$VeRefNode@PAVPropertySValue@@@@XZ 005be040 f i DBBusiness.obj
 0002:00107080       ?GetLastError@CDBAccess@@QAEPBDXZ 005be080 f i DBBusiness.obj
 0002:001070c0       ?GetProperty@DBBusiness@@QAEHPAVPropertySValue@@@Z 005be0c0 f   DBBusiness.obj
 0002:001075a0       ?Insert@DBBusiness@@QAEHPAVPropertySContainer@@@Z 005be5a0 f   DBBusiness.obj
 0002:001086e0       ?IsEnd@?$VeRefList@PAVPropertySValue@@@@QBE_NXZ 005bf6e0 f i DBBusiness.obj
 0002:00108740       ?Load@DBBusiness@@QAEHPAVPropertySContainer@@@Z 005bf740 f   DBBusiness.obj
 0002:001093a0       ?Next@?$VeRefList@PAVPropertySValue@@@@QBEXXZ 005c03a0 f i DBBusiness.obj
 0002:00109430       ?PushBack@?$VeVector@U?$VePair@VVeStringA@@H@@@@QAEXABU?$VePair@VVeStringA@@H@@@Z 005c0430 f i DBBusiness.obj
 0002:001094a0       ?Reserve@?$VeVector@U?$VePair@VVeStringA@@H@@@@QAEXI@Z 005c04a0 f i DBBusiness.obj
 0002:00109590       ?Resize@?$VeVector@U?$VePair@VVeStringA@@H@@@@QAEXI@Z 005c0590 f i DBBusiness.obj
 0002:00109730       ?Resize@?$VeVector@U?$VePair@VVeStringA@@H@@@@QAEXIABU?$VePair@VVeStringA@@H@@@Z 005c0730 f i DBBusiness.obj
 0002:001098d0       ?Size@?$VeRefList@PAVPropertySValue@@@@QBEIXZ 005c08d0 f i DBBusiness.obj
 0002:00109910       ?Size@?$VeVector@PAVPropertySValue@@@@QBEIXZ 005c0910 f i DBBusiness.obj
 0002:00109950       ?Size@?$VeVector@U?$VePair@VVeStringA@@H@@@@QBEIXZ 005c0950 f i DBBusiness.obj
 0002:00109990       ?TrimString@DBBusiness@@QAE?AVVeStringA@@PAD@Z 005c0990 f   DBBusiness.obj
 0002:00109b20       ?Update@DBBusiness@@QAEHPAVPropertySContainer@@@Z 005c0b20 f   DBBusiness.obj
 0002:0010a9c0       ?checkPurchase@DBBusiness@@QAE?AV?$VeVector@U?$VePair@VVeStringA@@H@@@@PBD@Z 005c19c0 f   DBBusiness.obj
 0002:0010b3e0       ??$?6G@@YAAAVBitStream@VENet@@AAV01@ABG@Z 005c23e0 f i EntityS.obj
 0002:0010b440       ??$?6VVEString@VENet@@@@YAAAVBitStream@VENet@@AAV01@ABVVEString@1@@Z 005c2440 f i EntityS.obj
 0002:0010b4a0       ??0?$VePair@AAVVeFixedStringA@@AAPAVEntityS@@@@QAE@AAVVeFixedStringA@@AAPAVEntityS@@@Z 005c24a0 f i EntityS.obj
 0002:0010b4f0       ??0?$VeRefList@PAVPropertySValue@@@@QAE@XZ 005c24f0 f i EntityS.obj
 0002:0010b560       ??0?$VeRefNode@PAUNode@?$VeStringMap@PAVEntityS@@@@@@QAE@XZ 005c2560 f i EntityS.obj
 0002:0010b5c0       ??0?$VeRefNode@PAVEntityS@@@@QAE@XZ 005c25c0 f i EntityS.obj
 0002:0010b620       ??0?$VeRefNode@PAVPropertySContainer@@@@QAE@XZ 005c2620 f i EntityS.obj
 0002:0010b680       ??0?$VeRefNode@PAVPropertySValue@@@@QAE@XZ 005c2680 f i EntityS.obj
 0002:0010b6e0       ??0?$VeVector@PAVPropertySValue@@@@QAE@XZ 005c26e0 f i EntityS.obj
 0002:0010b740       ??0EntityS@@QAE@PAVServer@@PBD1@Z 005c2740 f   EntityS.obj
 0002:0010b8a0       ??0Node@?$VeStringMap@PAVEntityS@@@@QAE@XZ 005c28a0 f i EntityS.obj
 0002:0010b990       ??0PropertyS@@QAE@PAVPropertySContainer@@I@Z 005c2990 f   EntityS.obj
 0002:0010b9f0       ??0PropertySContainer@@QAE@PAVServer@@@Z 005c29f0 f   EntityS.obj
 0002:0010bb00       ??0PropertySValue@@QAE@PAVPropertySContainer@@IPBD@Z 005c2b00 f   EntityS.obj
 0002:0010bc10       ??0VeStringA_S@@QAE@PAVPropertySContainer@@IPBD1@Z 005c2c10 f   EntityS.obj
 0002:0010bd90       ??1?$VeRefList@PAVPropertySValue@@@@QAE@XZ 005c2d90 f i EntityS.obj
 0002:0010bde0       ??1?$VeRefNode@PAVEntityS@@@@QAE@XZ 005c2de0 f i EntityS.obj
 0002:0010be30       ??1?$VeRefNode@PAVPropertySContainer@@@@QAE@XZ 005c2e30 f i EntityS.obj
 0002:0010be80       ??1?$VeRefNode@PAVPropertySValue@@@@QAE@XZ 005c2e80 f i EntityS.obj
 0002:0010bed0       ??1?$VeVector@PAVPropertySValue@@@@QAE@XZ 005c2ed0 f i EntityS.obj
 0002:0010bf80       ??1EntityS@@UAE@XZ         005c2f80 f   EntityS.obj
 0002:0010c080       ??1PropertyS@@UAE@XZ       005c3080 f   EntityS.obj
 0002:0010c0c0       ??1PropertySContainer@@UAE@XZ 005c30c0 f   EntityS.obj
 0002:0010c1b0       ??1PropertySValue@@UAE@XZ  005c31b0 f i EntityS.obj
 0002:0010c270       ??1VeStringA_S@@UAE@XZ     005c3270 f i EntityS.obj
 0002:0010c360       ??4VeStringA_S@@QAEAAVVeStringA@@ABV1@@Z 005c3360 f   EntityS.obj
 0002:0010c430       ??A?$VeStringMap@PAVEntityS@@@@QAEAAPAVEntityS@@PBD@Z 005c3430 f i EntityS.obj
 0002:0010c6e0       ??BVeStringA_S@@QAEABVVeStringA@@XZ 005c36e0 f   EntityS.obj
 0002:0010c720       ??_EEntityS@@UAEPAXI@Z     005c3720 f i EntityS.obj
 0002:0010c720       ??_GEntityS@@UAEPAXI@Z     005c3720 f i EntityS.obj
 0002:0010c7a0       ??_GPropertyS@@UAEPAXI@Z   005c37a0 f i EntityS.obj
 0002:0010c7a0       ??_EPropertyS@@UAEPAXI@Z   005c37a0 f i EntityS.obj
 0002:0010c820       ??_GPropertySContainer@@UAEPAXI@Z 005c3820 f i EntityS.obj
 0002:0010c820       ??_EPropertySContainer@@UAEPAXI@Z 005c3820 f i EntityS.obj
 0002:0010c8a0       ??_EPropertySValue@@UAEPAXI@Z 005c38a0 f i EntityS.obj
 0002:0010c8a0       ??_GPropertySValue@@UAEPAXI@Z 005c38a0 f i EntityS.obj
 0002:0010c920       ??_EVeStringA_S@@UAEPAXI@Z 005c3920 f i EntityS.obj
 0002:0010c920       ??_GVeStringA_S@@UAEPAXI@Z 005c3920 f i EntityS.obj
 0002:0010c9a0       ?Attach@PropertySContainer@@QAEXPAVPropertySValue@@@Z 005c39a0 f   EntityS.obj
 0002:0010ca40       ?AttachAgent@EntityS@@QAEXPAVClientAgent@@@Z 005c3a40 f   EntityS.obj
 0002:0010cb30       ?AttachBack@?$VeRefList@PAUNode@?$VeStringMap@PAVEntityS@@@@@@QAEXAAV?$VeRefNode@PAUNode@?$VeStringMap@PAVEntityS@@@@@@@Z 005c3b30 f i EntityS.obj
 0002:0010cbf0       ?AttachBack@?$VeRefList@PAVEntityS@@@@QAEXAAV?$VeRefNode@PAVEntityS@@@@@Z 005c3bf0 f i EntityS.obj
 0002:0010ccb0       ?AttachBack@?$VeRefList@PAVPropertySValue@@@@QAEXAAV?$VeRefNode@PAVPropertySValue@@@@@Z 005c3cb0 f i EntityS.obj
 0002:0010cd70       ?Clear@?$VeRefList@PAVPropertySValue@@@@QAEXXZ 005c3d70 f i EntityS.obj
 0002:0010ce30       ?Clear@?$VeVector@PAVPropertySValue@@@@QAEXXZ 005c3e30 f i EntityS.obj
 0002:0010ce90       ?DestoryFromClient@EntityS@@QAEXXZ 005c3e90 f   EntityS.obj
 0002:0010d060       ?Detach@?$VeRefNode@PAVEntityS@@@@QAEXXZ 005c4060 f i EntityS.obj
 0002:0010d180       ?Detach@?$VeRefNode@PAVPropertySContainer@@@@QAEXXZ 005c4180 f i EntityS.obj
 0002:0010d2a0       ?Detach@?$VeRefNode@PAVPropertySValue@@@@QAEXXZ 005c42a0 f i EntityS.obj
 0002:0010d3c0       ?DetachAgent@EntityS@@QAEXXZ 005c43c0 f   EntityS.obj
 0002:0010d490       ?DirtyDB@PropertySContainer@@QAEXAAV?$VeRefNode@PAVPropertySValue@@@@@Z 005c4490 f   EntityS.obj
 0002:0010d520       ?DirtySync@PropertySContainer@@QAEXAAV?$VeRefNode@PAVPropertySValue@@@@@Z 005c4520 f   EntityS.obj
 0002:0010d580       ?GetClientData@VeStringA_S@@UAEPAXXZ 005c4580 f   EntityS.obj
 0002:0010d5e0       ?GetClientSize@VeStringA_S@@UAEIXZ 005c45e0 f   EntityS.obj
 0002:0010d640       ?GetData@VeStringA_S@@UAEPAXXZ 005c4640 f   EntityS.obj
 0002:0010d6a0       ?GetDefaultData@VeStringA_S@@UAEPAXXZ 005c46a0 f   EntityS.obj
 0002:0010d700       ?GetDefaultSize@VeStringA_S@@UAEIXZ 005c4700 f   EntityS.obj
 0002:0010d760       ?GetField@PropertySValue@@QAEPBDXZ 005c4760 f   EntityS.obj
 0002:0010d7a0       ?GetKey@EntityS@@UAEPBDXZ  005c47a0 f   EntityS.obj
 0002:0010d800       ?GetSize@VeStringA_S@@UAEIXZ 005c4800 f   EntityS.obj
 0002:0010d860       ?GetString@VeStringA_S@@QAEPBDXZ 005c4860 f   EntityS.obj
 0002:0010d8c0       ?GetType@VeStringA_S@@UAE?AW4PropertyType@@XZ 005c48c0 f   EntityS.obj
 0002:0010d900       ?HasAgent@EntityS@@QAE_NXZ 005c4900 f   EntityS.obj
 0002:0010d9f0       ?IsAttach@?$VeRefNode@PAVEntityS@@@@QBE_NABV?$VeRefList@PAVEntityS@@@@@Z 005c49f0 f i EntityS.obj
 0002:0010da60       ?IsAttach@?$VeRefNode@PAVEntityS@@@@QBE_NXZ 005c4a60 f i EntityS.obj
 0002:0010dad0       ?IsAttach@?$VeRefNode@PAVPropertySContainer@@@@QBE_NXZ 005c4ad0 f i EntityS.obj
 0002:0010db40       ?IsAttach@?$VeRefNode@PAVPropertySValue@@@@QBE_NXZ 005c4b40 f i EntityS.obj
 0002:0010dbb0       ?IsLocked@EntityS@@QAE_NXZ 005c4bb0 f   EntityS.obj
 0002:0010dbf0       ?IsSaveDatabase@PropertyS@@QAE_NXZ 005c4bf0 f   EntityS.obj
 0002:0010dc60       ?IsSynToClient@PropertyS@@QAE_NXZ 005c4c60 f   EntityS.obj
 0002:0010dcd0       ?LoadProperties@PropertySContainer@@QAEIXZ 005c4cd0 f   EntityS.obj
 0002:0010dd50       ?Lock@EntityS@@QAEXXZ      005c4d50 f   EntityS.obj
 0002:0010dda0       ?Next@?$VeRefNode@PAVEntityS@@@@QBEPAV1@XZ 005c4da0 f i EntityS.obj
 0002:0010dde0       ?Next@?$VeRefNode@PAVPropertySContainer@@@@QBEPAV1@XZ 005c4de0 f i EntityS.obj
 0002:0010de20       ?Next@?$VeRefNode@PAVPropertySValue@@@@QBEPAV1@XZ 005c4e20 f i EntityS.obj
 0002:0010de60       ?NotifyDirty@PropertySValue@@IAEXXZ 005c4e60 f   EntityS.obj
 0002:0010df30       ?OnLoad@EntityS@@QAE_NXZ   005c4f30 f   EntityS.obj
 0002:0010e010       ?OnUnload@EntityS@@QAEXXZ  005c5010 f   EntityS.obj
 0002:0010e080       ?PushBack@?$VeVector@PAVPropertySValue@@@@QAEXABQAVPropertySValue@@@Z 005c5080 f i EntityS.obj
 0002:0010e0f0       ?Remove@?$VeStringMap@PAVEntityS@@@@QAE_NPBD@Z 005c50f0 f i EntityS.obj
 0002:0010e2a0       ?Reserve@?$VeVector@PAVPropertySValue@@@@QAEXI@Z 005c52a0 f i EntityS.obj
 0002:0010e390       ?Resize@?$VeVector@PAVPropertySValue@@@@QAEXI@Z 005c5390 f i EntityS.obj
 0002:0010e4e0       ?Resize@?$VeVector@PAVPropertySValue@@@@QAEXIABQAVPropertySValue@@@Z 005c54e0 f i EntityS.obj
 0002:0010e660       ?SendPacket@EntityS@@IAEXABVBitStream@VENet@@@Z 005c5660 f   EntityS.obj
 0002:0010e6d0       ?SetData@VeStringA_S@@UAEXPAXI@Z 005c56d0 f   EntityS.obj
 0002:0010e800       ?SyncAllToClient@EntityS@@QAEXXZ 005c5800 f   EntityS.obj
 0002:0010eb30       ?SyncToClient@EntityS@@QAEXXZ 005c5b30 f   EntityS.obj
 0002:0010eeb0       ?ToHome@EntityS@@QAEXXZ    005c5eb0 f   EntityS.obj
 0002:0010efd0       ?ToWild@EntityS@@QAEXXZ    005c5fd0 f   EntityS.obj
 0002:0010f160       ?Unload@EntityS@@QAE_NXZ   005c6160 f   EntityS.obj
 0002:0010f2c0       ?Unlock@EntityS@@QAEXXZ    005c62c0 f   EntityS.obj
 0002:0010f310       ?UpdateGBKToValueData@VeStringA_S@@IAEXXZ 005c6310 f   EntityS.obj
 0002:0010f5b0       ?UpdateProperties@PropertySContainer@@QAEIXZ 005c65b0 f   EntityS.obj
 0002:0010f660       ?UpdateValueToGBKData@VeStringA_S@@IAEXXZ 005c6660 f   EntityS.obj
 0002:0010f900       ??$?0AAV?$_Tree_iterator@V?$_Tree_val@U?$_Tree_simple_types@U?$pair@$$CB_KPAVVeTimeEvent@@@std@@@std@@@std@@@std@@_N@?$pair@V?$_Tree_iterator@V?$_Tree_val@U?$_Tree_simple_types@U?$pair@$$CB_KPAVVeTimeEvent@@@std@@@std@@@std@@@std@@_N@std@@QAE@AAV?$_Tree_iterator@V?$_Tree_val@U?$_Tree_simple_types@U?$pair@$$CB_KPAVVeTimeEvent@@@std@@@std@@@std@@@1@$$QA_NPAPAX@Z 005c6900 f i Server.obj
 0002:0010f9d0       ??$?0AA_KABV?$VePointer@VVeTimeEvent@@@@@?$pair@_KV?$VePointer@VVeTimeEvent@@@@@std@@QAE@AA_KABV?$VePointer@VVeTimeEvent@@@@PAPAX@Z 005c69d0 f i Server.obj
 0002:0010fa60       ??$?0U?$_Tree_node@U?$pair@$$CB_KPAVVeTimeEvent@@@std@@PAX@std@@@?$allocator@U_Container_proxy@std@@@std@@QAE@ABV?$allocator@U?$_Tree_node@U?$pair@$$CB_KPAVVeTimeEvent@@@std@@PAX@std@@@1@@Z 005c6a60 f i Server.obj
 0002:0010faa0       ??$?0U?$_Wrap_alloc@V?$allocator@U?$_Tree_node@U?$pair@$$CB_KPAVVeTimeEvent@@@std@@PAX@std@@@std@@@std@@@?$_Wrap_alloc@V?$allocator@U_Container_proxy@std@@@std@@@std@@QAE@ABU?$_Wrap_alloc@V?$allocator@U?$_Tree_node@U?$pair@$$CB_KPAVVeTimeEvent@@@std@@PAX@std@@@std@@@1@@Z 005c6aa0 f i Server.obj
 0002:0010fb00       ??$?0V?$_Tree_iterator@V?$_Tree_val@U?$_Tree_simple_types@U?$pair@$$CB_KPAVVeTimeEvent@@@std@@@std@@@std@@@std@@_N@?$pair@V?$_Tree_iterator@V?$_Tree_val@U?$_Tree_simple_types@U?$pair@$$CB_KPAVVeTimeEvent@@@std@@@std@@@std@@@std@@_N@std@@QAE@$$QAU01@PAPAX@Z 005c6b00 f i Server.obj
 0002:0010fbd0       ??$?0V?$_Tree_iterator@V?$_Tree_val@U?$_Tree_simple_types@U?$pair@$$CB_KPAVVeTimeEvent@@@std@@@std@@@std@@@std@@_N@?$pair@V?$_Tree_iterator@V?$_Tree_val@U?$_Tree_simple_types@U?$pair@$$CB_KPAVVeTimeEvent@@@std@@@std@@@std@@@std@@_N@std@@QAE@$$QAV?$_Tree_iterator@V?$_Tree_val@U?$_Tree_simple_types@U?$pair@$$CB_KPAVVeTimeEvent@@@std@@@std@@@std@@@1@$$QA_NPAPAX@Z 005c6bd0 f i Server.obj
 0002:0010fca0       ??$?0_KV?$VePointer@VVeTimeEvent@@@@@?$pair@$$CB_KPAVVeTimeEvent@@@std@@QAE@$$QAU?$pair@_KV?$VePointer@VVeTimeEvent@@@@@1@PAPAX@Z 005c6ca0 f i Server.obj
 0002:0010fd30       ??$?0_KV?$VePointer@VVeTimeEvent@@@@@?$pair@_KV?$VePointer@VVeTimeEvent@@@@@std@@QAE@$$QAU01@PAPAX@Z 005c6d30 f i Server.obj
 0002:0010fdc0       ??$?5E@@YAAAVBitStream@VENet@@AAV01@AAE@Z 005c6dc0 f i Server.obj
 0002:0010fe30       ??$_Allocate@U?$_Tree_node@U?$pair@$$CB_KPAVVeTimeEvent@@@std@@PAX@std@@@std@@YAPAU?$_Tree_node@U?$pair@$$CB_KPAVVeTimeEvent@@@std@@PAX@0@IPAU10@@Z 005c6e30 f i Server.obj
 0002:0010fed0       ??$_Allocate@U_Container_proxy@std@@@std@@YAPAU_Container_proxy@0@IPAU10@@Z 005c6ed0 f i Server.obj
